ARM GAS  C:\Users\Reza\AppData\Local\Temp\ccTWnMtU.s 			page 1


   1              		.syntax unified
   2              		.cpu cortex-m3
   3              		.fpu softvfp
   4              		.eabi_attribute 20, 1
   5              		.eabi_attribute 21, 1
   6              		.eabi_attribute 23, 3
   7              		.eabi_attribute 24, 1
   8              		.eabi_attribute 25, 1
   9              		.eabi_attribute 26, 1
  10              		.eabi_attribute 30, 1
  11              		.eabi_attribute 34, 1
  12              		.eabi_attribute 18, 4
  13              		.thumb
  14              		.syntax unified
  15              		.file	"reactionGame.c"
  16              		.text
  17              	.Ltext0:
  18              		.cfi_sections	.debug_frame
  19              		.section	.text.REACTIONGAME_Round_Increament,"ax",%progbits
  20              		.align	2
  21              		.global	REACTIONGAME_Round_Increament
  22              		.thumb
  23              		.thumb_func
  24              		.type	REACTIONGAME_Round_Increament, %function
  25              	REACTIONGAME_Round_Increament:
  26              	.LFB112:
  27              		.file 1 "source\\asw\\reactionGame.c"
   1:source\asw/reactionGame.c **** /**
   2:source\asw/reactionGame.c **** * \file <filename>
   3:source\asw/reactionGame.c **** * \author <author-name>
   4:source\asw/reactionGame.c **** * \date <date>
   5:source\asw/reactionGame.c **** *
   6:source\asw/reactionGame.c **** * \brief <Symbolic File name>
   7:source\asw/reactionGame.c **** *
   8:source\asw/reactionGame.c **** * \copyright Copyright ©2016
   9:source\asw/reactionGame.c **** * Department of electrical engineering and information technology, Hochschule Darmstadt - Universit
  10:source\asw/reactionGame.c **** * Permission to use, copy, modify, and distribute this software and its documentation for education
  11:source\asw/reactionGame.c **** * (unless permitted by h_da) and official h_da projects, is hereby granted for enrolled students of
  12:source\asw/reactionGame.c **** * this paragraph and the following paragraph appear in all copies, modifications, and distributions
  13:source\asw/reactionGame.c **** * Contact Prof.Dr.-Ing. Peter Fromm, peter.fromm@h-da.de, Birkenweg 8 64295 Darmstadt - GERMANY for
  14:source\asw/reactionGame.c **** *
  15:source\asw/reactionGame.c **** * \warning This software is a PROTOTYPE version and is not designed or intended for use in producti
  16:source\asw/reactionGame.c **** * The user represents and warrants that it will NOT use or redistribute the Software for such purpo
  17:source\asw/reactionGame.c **** * This prototype is for research purposes only. This software is provided "AS IS," without a warran
  18:source\asw/reactionGame.c **** */
  19:source\asw/reactionGame.c **** 
  20:source\asw/reactionGame.c **** /*****************************************************************************/
  21:source\asw/reactionGame.c **** /* Include files                                                             */
  22:source\asw/reactionGame.c **** /*****************************************************************************/
  23:source\asw/reactionGame.c **** #include "reactionGame.h"
  24:source\asw/reactionGame.c **** #include "seven.h"
  25:source\asw/reactionGame.c **** #include "led.h"
  26:source\asw/reactionGame.c **** #include "uart.h"
  27:source\asw/reactionGame.c **** #include <stdlib.h> 
  28:source\asw/reactionGame.c **** 
  29:source\asw/reactionGame.c **** 
  30:source\asw/reactionGame.c **** /*****************************************************************************/
ARM GAS  C:\Users\Reza\AppData\Local\Temp\ccTWnMtU.s 			page 2


  31:source\asw/reactionGame.c **** /* Local pre-processor symbols/macros ('#define')                            */
  32:source\asw/reactionGame.c **** /*****************************************************************************/
  33:source\asw/reactionGame.c **** 
  34:source\asw/reactionGame.c **** /*****************************************************************************/
  35:source\asw/reactionGame.c **** /* Global variable definitions (declared in header file with 'extern')       */
  36:source\asw/reactionGame.c **** /*****************************************************************************/
  37:source\asw/reactionGame.c **** static int8 Score=0;
  38:source\asw/reactionGame.c **** uint32 Time[10]={0};
  39:source\asw/reactionGame.c **** BUTTON_id_t RandomButton;
  40:source\asw/reactionGame.c **** BUTTON_id_t PressedButton;
  41:source\asw/reactionGame.c **** eGame_s_t GameState=Is_Initial;
  42:source\asw/reactionGame.c **** static uint8 Round=0;
  43:source\asw/reactionGame.c **** uint8 MaxRound=10;
  44:source\asw/reactionGame.c **** 
  45:source\asw/reactionGame.c **** /*****************************************************************************/
  46:source\asw/reactionGame.c **** /* Local type definitions ('typedef')                                        */
  47:source\asw/reactionGame.c **** /*****************************************************************************/
  48:source\asw/reactionGame.c **** 
  49:source\asw/reactionGame.c **** /*****************************************************************************/
  50:source\asw/reactionGame.c **** /* Local variable definitions ('static')                                     */
  51:source\asw/reactionGame.c **** /*****************************************************************************/
  52:source\asw/reactionGame.c **** 
  53:source\asw/reactionGame.c **** 
  54:source\asw/reactionGame.c **** 
  55:source\asw/reactionGame.c **** /*****************************************************************************/
  56:source\asw/reactionGame.c **** /* Local function prototypes ('static')                                      */
  57:source\asw/reactionGame.c **** /*****************************************************************************/
  58:source\asw/reactionGame.c **** 
  59:source\asw/reactionGame.c **** 
  60:source\asw/reactionGame.c **** /*****************************************************************************/
  61:source\asw/reactionGame.c **** /* Function implementation - global ('extern') and local ('static')          */
  62:source\asw/reactionGame.c **** /*****************************************************************************/
  63:source\asw/reactionGame.c **** 
  64:source\asw/reactionGame.c **** /**
  65:source\asw/reactionGame.c ****  * Reaction Game Initialisation
  66:source\asw/reactionGame.c ****  * @return RC_SUCCESS
  67:source\asw/reactionGame.c ****  */
  68:source\asw/reactionGame.c **** 
  69:source\asw/reactionGame.c **** RC_t REACTIONGAME_Init()
  70:source\asw/reactionGame.c **** {
  71:source\asw/reactionGame.c ****     Score=0;
  72:source\asw/reactionGame.c ****     Time[10]=0;
  73:source\asw/reactionGame.c ****     Round=0;
  74:source\asw/reactionGame.c ****     MaxRound=10;
  75:source\asw/reactionGame.c ****     REACTIONGAME_Round_Increament();
  76:source\asw/reactionGame.c ****     return RC_SUCCESS;
  77:source\asw/reactionGame.c **** }
  78:source\asw/reactionGame.c **** 
  79:source\asw/reactionGame.c **** /**
  80:source\asw/reactionGame.c ****  * Run the reaction Game according to event.
  81:source\asw/reactionGame.c ****  * @param Game_event_t game_event   - type of event
  82:source\asw/reactionGame.c ****  * @return RC_SUCCESS
  83:source\asw/reactionGame.c ****  */
  84:source\asw/reactionGame.c **** RC_t REACTIONGAME_Run(Game_event_t game_event)
  85:source\asw/reactionGame.c **** {
  86:source\asw/reactionGame.c ****      switch(GameState)
  87:source\asw/reactionGame.c ****         {
ARM GAS  C:\Users\Reza\AppData\Local\Temp\ccTWnMtU.s 			page 3


  88:source\asw/reactionGame.c ****             case Is_Initial: if(game_event == ev_button)
  89:source\asw/reactionGame.c ****             {
  90:source\asw/reactionGame.c ****                 REACTIONGAME_CreateRandomTime();
  91:source\asw/reactionGame.c ****                 uint32 randtime=REACTIONGAME_RandTime();
  92:source\asw/reactionGame.c ****                 SetRelAlarm(Rand_Time,randtime,0);
  93:source\asw/reactionGame.c ****                 GameState=Is_WaitRandTime;
  94:source\asw/reactionGame.c ****                 
  95:source\asw/reactionGame.c ****             };break;
  96:source\asw/reactionGame.c ****             case Is_WaitRandTime:if(game_event == ev_timeout)
  97:source\asw/reactionGame.c ****             {
  98:source\asw/reactionGame.c ****                 REACTIONGAME_RandButtonSelect();
  99:source\asw/reactionGame.c ****                 GameState=Is_ButtonPressed;
 100:source\asw/reactionGame.c ****             };break;
 101:source\asw/reactionGame.c ****             case Is_ButtonPressed:
 102:source\asw/reactionGame.c ****             if(game_event == ev_button)
 103:source\asw/reactionGame.c ****             {
 104:source\asw/reactionGame.c ****                 if(REACTIONGAME_CheckGameEnd() == TRUE)
 105:source\asw/reactionGame.c ****                 {
 106:source\asw/reactionGame.c ****                     GameState=Is_GameEnd;
 107:source\asw/reactionGame.c ****                     SEVEN_Clear(SEVEN_0);
 108:source\asw/reactionGame.c ****                     SEVEN_Clear(SEVEN_1);
 109:source\asw/reactionGame.c ****                     REACTIONGAME_ShowScore();
 110:source\asw/reactionGame.c ****                     REACTIONGAME_ShowAvgTime();
 111:source\asw/reactionGame.c ****                 }
 112:source\asw/reactionGame.c ****                 else
 113:source\asw/reactionGame.c ****                 { 
 114:source\asw/reactionGame.c ****                     REACTIONGAME_CheckValidButton();
 115:source\asw/reactionGame.c ****                     GameState=Is_Initial;
 116:source\asw/reactionGame.c ****                     SEVEN_Clear(SEVEN_0);
 117:source\asw/reactionGame.c ****                     SEVEN_Clear(SEVEN_1);  
 118:source\asw/reactionGame.c ****                 }
 119:source\asw/reactionGame.c ****                 
 120:source\asw/reactionGame.c ****             }
 121:source\asw/reactionGame.c ****             if(game_event == ev_tooslow)
 122:source\asw/reactionGame.c ****             {
 123:source\asw/reactionGame.c ****                 if(REACTIONGAME_CheckGameEnd() == TRUE)
 124:source\asw/reactionGame.c ****                 {
 125:source\asw/reactionGame.c ****                     GameState=Is_GameEnd;
 126:source\asw/reactionGame.c ****                     SEVEN_Clear(SEVEN_0);
 127:source\asw/reactionGame.c ****                     SEVEN_Clear(SEVEN_1);
 128:source\asw/reactionGame.c ****                     REACTIONGAME_ShowScore();
 129:source\asw/reactionGame.c ****                     REACTIONGAME_ShowAvgTime();
 130:source\asw/reactionGame.c **** 
 131:source\asw/reactionGame.c ****                 }
 132:source\asw/reactionGame.c ****                 else
 133:source\asw/reactionGame.c ****                 {
 134:source\asw/reactionGame.c ****                     GameState=Is_Initial;
 135:source\asw/reactionGame.c ****                     SEVEN_Clear(SEVEN_0);
 136:source\asw/reactionGame.c ****                     SEVEN_Clear(SEVEN_1);
 137:source\asw/reactionGame.c ****                     REACTIONGAME_TooSlowPressed();
 138:source\asw/reactionGame.c ****                 }
 139:source\asw/reactionGame.c ****             };break;
 140:source\asw/reactionGame.c **** 
 141:source\asw/reactionGame.c ****              case Is_GameEnd:
 142:source\asw/reactionGame.c ****                 ;break;
 143:source\asw/reactionGame.c ****         }
 144:source\asw/reactionGame.c ****         return RC_SUCCESS;
ARM GAS  C:\Users\Reza\AppData\Local\Temp\ccTWnMtU.s 			page 4


 145:source\asw/reactionGame.c **** }
 146:source\asw/reactionGame.c **** 
 147:source\asw/reactionGame.c **** /**
 148:source\asw/reactionGame.c ****  * Increament the round turn.
 149:source\asw/reactionGame.c ****  * @return Round
 150:source\asw/reactionGame.c ****  */
 151:source\asw/reactionGame.c **** uint8 REACTIONGAME_Round_Increament()
 152:source\asw/reactionGame.c **** {
  28              		.loc 1 152 0
  29              		.cfi_startproc
  30              		@ args = 0, pretend = 0, frame = 0
  31              		@ frame_needed = 0, uses_anonymous_args = 0
  32 0000 08B5     		push	{r3, lr}
  33              		.cfi_def_cfa_offset 8
  34              		.cfi_offset 3, -8
  35              		.cfi_offset 14, -4
 153:source\asw/reactionGame.c ****     Round++;
  36              		.loc 1 153 0
  37 0002 084B     		ldr	r3, .L4
  38 0004 1878     		ldrb	r0, [r3]	@ zero_extendqisi2
  39 0006 0130     		adds	r0, r0, #1
  40 0008 C0B2     		uxtb	r0, r0
  41 000a 1870     		strb	r0, [r3]
 154:source\asw/reactionGame.c ****     if(Round <= MaxRound)
  42              		.loc 1 154 0
  43 000c 064B     		ldr	r3, .L4+4
  44 000e 1B78     		ldrb	r3, [r3]	@ zero_extendqisi2
  45 0010 9842     		cmp	r0, r3
  46 0012 05D8     		bhi	.L2
 155:source\asw/reactionGame.c ****     {
 156:source\asw/reactionGame.c ****     UART_Show_Round_Counter(Round);
  47              		.loc 1 156 0
  48 0014 FFF7FEFF 		bl	UART_Show_Round_Counter
  49              	.LVL0:
 157:source\asw/reactionGame.c ****     UART_Show_Prompt_Message();
  50              		.loc 1 157 0
  51 0018 FFF7FEFF 		bl	UART_Show_Prompt_Message
  52              	.LVL1:
 158:source\asw/reactionGame.c ****     return Round;
  53              		.loc 1 158 0
  54 001c 014B     		ldr	r3, .L4
  55 001e 1878     		ldrb	r0, [r3]	@ zero_extendqisi2
  56              	.L2:
 159:source\asw/reactionGame.c ****     }
 160:source\asw/reactionGame.c ****     return Round;
 161:source\asw/reactionGame.c **** }
  57              		.loc 1 161 0
  58 0020 08BD     		pop	{r3, pc}
  59              	.L5:
  60 0022 00BF     		.align	2
  61              	.L4:
  62 0024 00000000 		.word	.LANCHOR0
  63 0028 00000000 		.word	.LANCHOR1
  64              		.cfi_endproc
  65              	.LFE112:
  66              		.size	REACTIONGAME_Round_Increament, .-REACTIONGAME_Round_Increament
  67              		.section	.text.REACTIONGAME_Init,"ax",%progbits
ARM GAS  C:\Users\Reza\AppData\Local\Temp\ccTWnMtU.s 			page 5


  68              		.align	2
  69              		.global	REACTIONGAME_Init
  70              		.thumb
  71              		.thumb_func
  72              		.type	REACTIONGAME_Init, %function
  73              	REACTIONGAME_Init:
  74              	.LFB110:
  70:source\asw/reactionGame.c ****     Score=0;
  75              		.loc 1 70 0
  76              		.cfi_startproc
  77              		@ args = 0, pretend = 0, frame = 0
  78              		@ frame_needed = 0, uses_anonymous_args = 0
  79 0000 10B5     		push	{r4, lr}
  80              		.cfi_def_cfa_offset 8
  81              		.cfi_offset 4, -8
  82              		.cfi_offset 14, -4
  71:source\asw/reactionGame.c ****     Time[10]=0;
  83              		.loc 1 71 0
  84 0002 064B     		ldr	r3, .L8
  85 0004 0024     		movs	r4, #0
  86 0006 5C70     		strb	r4, [r3, #1]
  72:source\asw/reactionGame.c ****     Round=0;
  87              		.loc 1 72 0
  88 0008 DC62     		str	r4, [r3, #44]
  73:source\asw/reactionGame.c ****     MaxRound=10;
  89              		.loc 1 73 0
  90 000a 1C70     		strb	r4, [r3]
  74:source\asw/reactionGame.c ****     REACTIONGAME_Round_Increament();
  91              		.loc 1 74 0
  92 000c 0A22     		movs	r2, #10
  93 000e 044B     		ldr	r3, .L8+4
  94 0010 1A70     		strb	r2, [r3]
  75:source\asw/reactionGame.c ****     return RC_SUCCESS;
  95              		.loc 1 75 0
  96 0012 FFF7FEFF 		bl	REACTIONGAME_Round_Increament
  97              	.LVL2:
  77:source\asw/reactionGame.c **** 
  98              		.loc 1 77 0
  99 0016 2046     		mov	r0, r4
 100 0018 10BD     		pop	{r4, pc}
 101              	.L9:
 102 001a 00BF     		.align	2
 103              	.L8:
 104 001c 00000000 		.word	.LANCHOR0
 105 0020 00000000 		.word	.LANCHOR1
 106              		.cfi_endproc
 107              	.LFE110:
 108              		.size	REACTIONGAME_Init, .-REACTIONGAME_Init
 109              		.section	.text.REACTIONGAME_RandTime,"ax",%progbits
 110              		.align	2
 111              		.global	REACTIONGAME_RandTime
 112              		.thumb
 113              		.thumb_func
 114              		.type	REACTIONGAME_RandTime, %function
 115              	REACTIONGAME_RandTime:
 116              	.LFB113:
 162:source\asw/reactionGame.c **** 
ARM GAS  C:\Users\Reza\AppData\Local\Temp\ccTWnMtU.s 			page 6


 163:source\asw/reactionGame.c **** /**
 164:source\asw/reactionGame.c ****  * Generats random time and enbles the ev_TimeOut event.
 165:source\asw/reactionGame.c ****  * @return random number between 1 to 3 seconds.
 166:source\asw/reactionGame.c ****  */
 167:source\asw/reactionGame.c **** uint32 REACTIONGAME_RandTime()
 168:source\asw/reactionGame.c **** {
 117              		.loc 1 168 0
 118              		.cfi_startproc
 119              		@ args = 0, pretend = 0, frame = 0
 120              		@ frame_needed = 0, uses_anonymous_args = 0
 121 0000 08B5     		push	{r3, lr}
 122              		.cfi_def_cfa_offset 8
 123              		.cfi_offset 3, -8
 124              		.cfi_offset 14, -4
 169:source\asw/reactionGame.c ****     uint32 RandomTim=(rand()%3000)+1;
 125              		.loc 1 169 0
 126 0002 FFF7FEFF 		bl	rand
 127              	.LVL3:
 128 0006 064B     		ldr	r3, .L12
 129 0008 83FB0032 		smull	r3, r2, r3, r0
 130 000c C317     		asrs	r3, r0, #31
 131 000e C3EBA213 		rsb	r3, r3, r2, asr #6
 132 0012 40F6B832 		movw	r2, #3000
 133 0016 02FB1303 		mls	r3, r2, r3, r0
 134              	.LVL4:
 170:source\asw/reactionGame.c ****     return RandomTim;
 171:source\asw/reactionGame.c **** }
 135              		.loc 1 171 0
 136 001a 581C     		adds	r0, r3, #1
 137              	.LVL5:
 138 001c 08BD     		pop	{r3, pc}
 139              	.L13:
 140 001e 00BF     		.align	2
 141              	.L12:
 142 0020 F1197605 		.word	91625969
 143              		.cfi_endproc
 144              	.LFE113:
 145              		.size	REACTIONGAME_RandTime, .-REACTIONGAME_RandTime
 146              		.section	.text.REACTIONGAME_TooSlowPressed,"ax",%progbits
 147              		.align	2
 148              		.global	REACTIONGAME_TooSlowPressed
 149              		.thumb
 150              		.thumb_func
 151              		.type	REACTIONGAME_TooSlowPressed, %function
 152              	REACTIONGAME_TooSlowPressed:
 153              	.LFB116:
 172:source\asw/reactionGame.c **** 
 173:source\asw/reactionGame.c **** /**
 174:source\asw/reactionGame.c ****  * Generats random number of button and display on seven segment.
 175:source\asw/reactionGame.c ****  * @return RC_SUCCESS
 176:source\asw/reactionGame.c ****  */
 177:source\asw/reactionGame.c **** RC_t REACTIONGAME_RandButtonSelect()
 178:source\asw/reactionGame.c **** {
 179:source\asw/reactionGame.c ****     SEVEN_id_t seven = SEVEN_0;
 180:source\asw/reactionGame.c ****     uint8 RandButton=(rand()%2)+1;
 181:source\asw/reactionGame.c ****      switch (RandButton)
 182:source\asw/reactionGame.c ****     {
ARM GAS  C:\Users\Reza\AppData\Local\Temp\ccTWnMtU.s 			page 7


 183:source\asw/reactionGame.c ****         case 1 : 
 184:source\asw/reactionGame.c ****             RandomButton = BUTTON_1;
 185:source\asw/reactionGame.c ****             seven = SEVEN_0;
 186:source\asw/reactionGame.c ****             SEVEN_Set(seven,RandButton);
 187:source\asw/reactionGame.c ****             seven = SEVEN_1;
 188:source\asw/reactionGame.c ****             SEVEN_Set(seven,RandButton);
 189:source\asw/reactionGame.c ****             break;
 190:source\asw/reactionGame.c ****         case 2 : 
 191:source\asw/reactionGame.c ****             RandomButton = BUTTON_2;
 192:source\asw/reactionGame.c ****             seven = SEVEN_0;
 193:source\asw/reactionGame.c ****             SEVEN_Set(seven,RandButton);
 194:source\asw/reactionGame.c ****             seven = SEVEN_1;
 195:source\asw/reactionGame.c ****             SEVEN_Set(seven,RandButton);
 196:source\asw/reactionGame.c ****             break;
 197:source\asw/reactionGame.c ****     }
 198:source\asw/reactionGame.c ****     REACTIONGAME_CounterTicks_Reset();
 199:source\asw/reactionGame.c ****     return RC_SUCCESS;
 200:source\asw/reactionGame.c **** }
 201:source\asw/reactionGame.c **** 
 202:source\asw/reactionGame.c **** /**
 203:source\asw/reactionGame.c ****  * Checks if the valid button is pressed.
 204:source\asw/reactionGame.c ****  * @return RC_SUCCESS
 205:source\asw/reactionGame.c ****  */
 206:source\asw/reactionGame.c **** RC_t REACTIONGAME_CheckValidButton()
 207:source\asw/reactionGame.c **** {
 208:source\asw/reactionGame.c ****     uint32 roundtime=REACTIONGAME_CounterTicks_Read();
 209:source\asw/reactionGame.c ****     if(PressedButton == RandomButton)
 210:source\asw/reactionGame.c ****     {
 211:source\asw/reactionGame.c ****         UART_Show_Valid_Button_Pressed();
 212:source\asw/reactionGame.c ****         UART_Show_Round_Time(roundtime); 
 213:source\asw/reactionGame.c ****         Time[Round]=roundtime;
 214:source\asw/reactionGame.c ****         REACTIONGAME_IncreaseScore(); 
 215:source\asw/reactionGame.c ****     }
 216:source\asw/reactionGame.c ****     else
 217:source\asw/reactionGame.c ****     {
 218:source\asw/reactionGame.c ****         UART_Show_Invalid_Button_Pressed();
 219:source\asw/reactionGame.c ****         Time[Round]=0;
 220:source\asw/reactionGame.c ****         REACTIONGAME_DecreaseScore();
 221:source\asw/reactionGame.c ****     }
 222:source\asw/reactionGame.c ****     return RC_SUCCESS;
 223:source\asw/reactionGame.c **** }
 224:source\asw/reactionGame.c **** 
 225:source\asw/reactionGame.c **** /**
 226:source\asw/reactionGame.c ****  * Checks if player is too slow.
 227:source\asw/reactionGame.c ****  * @return RC_SUCCESS
 228:source\asw/reactionGame.c ****  */
 229:source\asw/reactionGame.c **** RC_t REACTIONGAME_TooSlowPressed()
 230:source\asw/reactionGame.c **** {
 154              		.loc 1 230 0
 155              		.cfi_startproc
 156              		@ args = 0, pretend = 0, frame = 0
 157              		@ frame_needed = 0, uses_anonymous_args = 0
 158 0000 08B5     		push	{r3, lr}
 159              		.cfi_def_cfa_offset 8
 160              		.cfi_offset 3, -8
 161              		.cfi_offset 14, -4
 231:source\asw/reactionGame.c ****        UART_Show_TooSlow_Message();
ARM GAS  C:\Users\Reza\AppData\Local\Temp\ccTWnMtU.s 			page 8


 162              		.loc 1 231 0
 163 0002 FFF7FEFF 		bl	UART_Show_TooSlow_Message
 164              	.LVL6:
 232:source\asw/reactionGame.c ****        if(Score ==0)
 165              		.loc 1 232 0
 166 0006 0C4B     		ldr	r3, .L18
 167 0008 93F90130 		ldrsb	r3, [r3, #1]
 168 000c 3BB9     		cbnz	r3, .L15
 233:source\asw/reactionGame.c ****         {
 234:source\asw/reactionGame.c ****             Score=Score;
 235:source\asw/reactionGame.c ****             Time[Round]=1000;
 169              		.loc 1 235 0
 170 000e 0A4B     		ldr	r3, .L18
 171 0010 1A78     		ldrb	r2, [r3]	@ zero_extendqisi2
 172 0012 03EB8203 		add	r3, r3, r2, lsl #2
 173 0016 4FF47A72 		mov	r2, #1000
 174 001a 5A60     		str	r2, [r3, #4]
 175 001c 08E0     		b	.L16
 176              	.L15:
 236:source\asw/reactionGame.c ****         }
 237:source\asw/reactionGame.c ****        else
 238:source\asw/reactionGame.c ****         {
 239:source\asw/reactionGame.c ****           Score--;  
 177              		.loc 1 239 0
 178 001e 064A     		ldr	r2, .L18
 179 0020 013B     		subs	r3, r3, #1
 180 0022 5370     		strb	r3, [r2, #1]
 240:source\asw/reactionGame.c ****           Time[Round]=1000;
 181              		.loc 1 240 0
 182 0024 1378     		ldrb	r3, [r2]	@ zero_extendqisi2
 183 0026 02EB8302 		add	r2, r2, r3, lsl #2
 184 002a 4FF47A73 		mov	r3, #1000
 185 002e 5360     		str	r3, [r2, #4]
 186              	.L16:
 241:source\asw/reactionGame.c ****         }
 242:source\asw/reactionGame.c ****     REACTIONGAME_Round_Increament();
 187              		.loc 1 242 0
 188 0030 FFF7FEFF 		bl	REACTIONGAME_Round_Increament
 189              	.LVL7:
 243:source\asw/reactionGame.c ****     return RC_SUCCESS;
 244:source\asw/reactionGame.c **** }
 190              		.loc 1 244 0
 191 0034 0020     		movs	r0, #0
 192 0036 08BD     		pop	{r3, pc}
 193              	.L19:
 194              		.align	2
 195              	.L18:
 196 0038 00000000 		.word	.LANCHOR0
 197              		.cfi_endproc
 198              	.LFE116:
 199              		.size	REACTIONGAME_TooSlowPressed, .-REACTIONGAME_TooSlowPressed
 200              		.section	.text.REACTIONGAME_ShowScore,"ax",%progbits
 201              		.align	2
 202              		.global	REACTIONGAME_ShowScore
 203              		.thumb
 204              		.thumb_func
 205              		.type	REACTIONGAME_ShowScore, %function
ARM GAS  C:\Users\Reza\AppData\Local\Temp\ccTWnMtU.s 			page 9


 206              	REACTIONGAME_ShowScore:
 207              	.LFB117:
 245:source\asw/reactionGame.c **** 
 246:source\asw/reactionGame.c **** /**
 247:source\asw/reactionGame.c ****  * Display the score on the console.
 248:source\asw/reactionGame.c ****  * @return RC_SUCCESS
 249:source\asw/reactionGame.c ****  */
 250:source\asw/reactionGame.c **** RC_t REACTIONGAME_ShowScore()
 251:source\asw/reactionGame.c **** {
 208              		.loc 1 251 0
 209              		.cfi_startproc
 210              		@ args = 0, pretend = 0, frame = 0
 211              		@ frame_needed = 0, uses_anonymous_args = 0
 212 0000 08B5     		push	{r3, lr}
 213              		.cfi_def_cfa_offset 8
 214              		.cfi_offset 3, -8
 215              		.cfi_offset 14, -4
 252:source\asw/reactionGame.c ****     UART_Show_Score(Score);
 216              		.loc 1 252 0
 217 0002 034B     		ldr	r3, .L22
 218 0004 5878     		ldrb	r0, [r3, #1]	@ zero_extendqisi2
 219 0006 FFF7FEFF 		bl	UART_Show_Score
 220              	.LVL8:
 253:source\asw/reactionGame.c ****     return RC_SUCCESS;
 254:source\asw/reactionGame.c **** }
 221              		.loc 1 254 0
 222 000a 0020     		movs	r0, #0
 223 000c 08BD     		pop	{r3, pc}
 224              	.L23:
 225 000e 00BF     		.align	2
 226              	.L22:
 227 0010 00000000 		.word	.LANCHOR0
 228              		.cfi_endproc
 229              	.LFE117:
 230              		.size	REACTIONGAME_ShowScore, .-REACTIONGAME_ShowScore
 231              		.section	.text.REACTIONGAME_ShowAvgTime,"ax",%progbits
 232              		.align	2
 233              		.global	REACTIONGAME_ShowAvgTime
 234              		.thumb
 235              		.thumb_func
 236              		.type	REACTIONGAME_ShowAvgTime, %function
 237              	REACTIONGAME_ShowAvgTime:
 238              	.LFB118:
 255:source\asw/reactionGame.c **** 
 256:source\asw/reactionGame.c **** /**
 257:source\asw/reactionGame.c ****  * Display average time after 10 rounds.
 258:source\asw/reactionGame.c ****  * @return RC_SUCCESS
 259:source\asw/reactionGame.c ****  */
 260:source\asw/reactionGame.c **** RC_t REACTIONGAME_ShowAvgTime()
 261:source\asw/reactionGame.c **** {
 239              		.loc 1 261 0
 240              		.cfi_startproc
 241              		@ args = 0, pretend = 0, frame = 0
 242              		@ frame_needed = 0, uses_anonymous_args = 0
 243 0000 08B5     		push	{r3, lr}
 244              		.cfi_def_cfa_offset 8
 245              		.cfi_offset 3, -8
ARM GAS  C:\Users\Reza\AppData\Local\Temp\ccTWnMtU.s 			page 10


 246              		.cfi_offset 14, -4
 247              	.LVL9:
 248              	.LBB2:
 262:source\asw/reactionGame.c ****     uint32 sum=0;
 263:source\asw/reactionGame.c ****     uint32 average=0;
 264:source\asw/reactionGame.c ****     for(uint8 i = 0; i < MaxRound; i++)
 249              		.loc 1 264 0
 250 0002 0023     		movs	r3, #0
 251              	.LBE2:
 262:source\asw/reactionGame.c ****     uint32 sum=0;
 252              		.loc 1 262 0
 253 0004 1846     		mov	r0, r3
 254              	.LBB3:
 255              		.loc 1 264 0
 256 0006 06E0     		b	.L25
 257              	.LVL10:
 258              	.L26:
 265:source\asw/reactionGame.c ****     {
 266:source\asw/reactionGame.c ****         sum += Time[i];
 259              		.loc 1 266 0 discriminator 3
 260 0008 084A     		ldr	r2, .L28
 261 000a 02EB8302 		add	r2, r2, r3, lsl #2
 262 000e 5268     		ldr	r2, [r2, #4]
 263 0010 1044     		add	r0, r0, r2
 264              	.LVL11:
 264:source\asw/reactionGame.c ****     {
 265              		.loc 1 264 0 discriminator 3
 266 0012 0133     		adds	r3, r3, #1
 267              	.LVL12:
 268 0014 DBB2     		uxtb	r3, r3
 269              	.LVL13:
 270              	.L25:
 264:source\asw/reactionGame.c ****     {
 271              		.loc 1 264 0 is_stmt 0 discriminator 1
 272 0016 064A     		ldr	r2, .L28+4
 273 0018 1278     		ldrb	r2, [r2]	@ zero_extendqisi2
 274 001a 9342     		cmp	r3, r2
 275 001c F4D3     		bcc	.L26
 276              	.LVL14:
 277              	.LBE3:
 267:source\asw/reactionGame.c ****     }
 268:source\asw/reactionGame.c ****     average = sum / MaxRound;
 269:source\asw/reactionGame.c ****     UART_Show_Average_Time(average);
 278              		.loc 1 269 0 is_stmt 1
 279 001e B0FBF2F0 		udiv	r0, r0, r2
 280              	.LVL15:
 281 0022 FFF7FEFF 		bl	UART_Show_Average_Time
 282              	.LVL16:
 270:source\asw/reactionGame.c ****     return RC_SUCCESS;
 271:source\asw/reactionGame.c **** }
 283              		.loc 1 271 0
 284 0026 0020     		movs	r0, #0
 285 0028 08BD     		pop	{r3, pc}
 286              	.L29:
 287 002a 00BF     		.align	2
 288              	.L28:
 289 002c 00000000 		.word	.LANCHOR0
ARM GAS  C:\Users\Reza\AppData\Local\Temp\ccTWnMtU.s 			page 11


 290 0030 00000000 		.word	.LANCHOR1
 291              		.cfi_endproc
 292              	.LFE118:
 293              		.size	REACTIONGAME_ShowAvgTime, .-REACTIONGAME_ShowAvgTime
 294              		.section	.text.REACTIONGAME_IncreaseScore,"ax",%progbits
 295              		.align	2
 296              		.global	REACTIONGAME_IncreaseScore
 297              		.thumb
 298              		.thumb_func
 299              		.type	REACTIONGAME_IncreaseScore, %function
 300              	REACTIONGAME_IncreaseScore:
 301              	.LFB119:
 272:source\asw/reactionGame.c **** 
 273:source\asw/reactionGame.c **** /**
 274:source\asw/reactionGame.c ****  * Increament the score.
 275:source\asw/reactionGame.c ****  * @return RC_SUCCESS
 276:source\asw/reactionGame.c ****  */
 277:source\asw/reactionGame.c **** RC_t REACTIONGAME_IncreaseScore()
 278:source\asw/reactionGame.c **** {
 302              		.loc 1 278 0
 303              		.cfi_startproc
 304              		@ args = 0, pretend = 0, frame = 0
 305              		@ frame_needed = 0, uses_anonymous_args = 0
 306 0000 08B5     		push	{r3, lr}
 307              		.cfi_def_cfa_offset 8
 308              		.cfi_offset 3, -8
 309              		.cfi_offset 14, -4
 279:source\asw/reactionGame.c ****     Score++;
 310              		.loc 1 279 0
 311 0002 044A     		ldr	r2, .L32
 312 0004 5378     		ldrb	r3, [r2, #1]	@ zero_extendqisi2
 313 0006 0133     		adds	r3, r3, #1
 314 0008 5370     		strb	r3, [r2, #1]
 280:source\asw/reactionGame.c ****     REACTIONGAME_Round_Increament();
 315              		.loc 1 280 0
 316 000a FFF7FEFF 		bl	REACTIONGAME_Round_Increament
 317              	.LVL17:
 281:source\asw/reactionGame.c ****     return RC_SUCCESS;
 282:source\asw/reactionGame.c **** }
 318              		.loc 1 282 0
 319 000e 0020     		movs	r0, #0
 320 0010 08BD     		pop	{r3, pc}
 321              	.L33:
 322 0012 00BF     		.align	2
 323              	.L32:
 324 0014 00000000 		.word	.LANCHOR0
 325              		.cfi_endproc
 326              	.LFE119:
 327              		.size	REACTIONGAME_IncreaseScore, .-REACTIONGAME_IncreaseScore
 328              		.section	.text.REACTIONGAME_DecreaseScore,"ax",%progbits
 329              		.align	2
 330              		.global	REACTIONGAME_DecreaseScore
 331              		.thumb
 332              		.thumb_func
 333              		.type	REACTIONGAME_DecreaseScore, %function
 334              	REACTIONGAME_DecreaseScore:
 335              	.LFB120:
ARM GAS  C:\Users\Reza\AppData\Local\Temp\ccTWnMtU.s 			page 12


 283:source\asw/reactionGame.c **** 
 284:source\asw/reactionGame.c **** /**
 285:source\asw/reactionGame.c ****  * Decreament the score.
 286:source\asw/reactionGame.c ****  * @return RC_SUCCESS
 287:source\asw/reactionGame.c ****  */
 288:source\asw/reactionGame.c **** RC_t REACTIONGAME_DecreaseScore()
 289:source\asw/reactionGame.c **** {
 336              		.loc 1 289 0
 337              		.cfi_startproc
 338              		@ args = 0, pretend = 0, frame = 0
 339              		@ frame_needed = 0, uses_anonymous_args = 0
 340 0000 08B5     		push	{r3, lr}
 341              		.cfi_def_cfa_offset 8
 342              		.cfi_offset 3, -8
 343              		.cfi_offset 14, -4
 290:source\asw/reactionGame.c ****     
 291:source\asw/reactionGame.c ****     if(Score ==0)
 344              		.loc 1 291 0
 345 0002 054B     		ldr	r3, .L37
 346 0004 93F90130 		ldrsb	r3, [r3, #1]
 347 0008 13B1     		cbz	r3, .L35
 292:source\asw/reactionGame.c ****     {
 293:source\asw/reactionGame.c ****         Score=Score;
 294:source\asw/reactionGame.c ****     }
 295:source\asw/reactionGame.c ****     else
 296:source\asw/reactionGame.c ****     {
 297:source\asw/reactionGame.c ****       Score--;  
 348              		.loc 1 297 0
 349 000a 013B     		subs	r3, r3, #1
 350 000c 024A     		ldr	r2, .L37
 351 000e 5370     		strb	r3, [r2, #1]
 352              	.L35:
 298:source\asw/reactionGame.c ****     }
 299:source\asw/reactionGame.c ****     REACTIONGAME_Round_Increament();
 353              		.loc 1 299 0
 354 0010 FFF7FEFF 		bl	REACTIONGAME_Round_Increament
 355              	.LVL18:
 300:source\asw/reactionGame.c ****     return RC_SUCCESS;
 301:source\asw/reactionGame.c **** }
 356              		.loc 1 301 0
 357 0014 0020     		movs	r0, #0
 358 0016 08BD     		pop	{r3, pc}
 359              	.L38:
 360              		.align	2
 361              	.L37:
 362 0018 00000000 		.word	.LANCHOR0
 363              		.cfi_endproc
 364              	.LFE120:
 365              		.size	REACTIONGAME_DecreaseScore, .-REACTIONGAME_DecreaseScore
 366              		.section	.text.REACTIONGAME_CheckGameEnd,"ax",%progbits
 367              		.align	2
 368              		.global	REACTIONGAME_CheckGameEnd
 369              		.thumb
 370              		.thumb_func
 371              		.type	REACTIONGAME_CheckGameEnd, %function
 372              	REACTIONGAME_CheckGameEnd:
 373              	.LFB121:
ARM GAS  C:\Users\Reza\AppData\Local\Temp\ccTWnMtU.s 			page 13


 302:source\asw/reactionGame.c **** 
 303:source\asw/reactionGame.c **** /**
 304:source\asw/reactionGame.c ****  * Checks if the game is ended.
 305:source\asw/reactionGame.c ****  * @return TRUE or FALSE
 306:source\asw/reactionGame.c ****  */
 307:source\asw/reactionGame.c **** boolean_t REACTIONGAME_CheckGameEnd()
 308:source\asw/reactionGame.c **** {
 374              		.loc 1 308 0
 375              		.cfi_startproc
 376              		@ args = 0, pretend = 0, frame = 0
 377              		@ frame_needed = 0, uses_anonymous_args = 0
 378              		@ link register save eliminated.
 309:source\asw/reactionGame.c ****     if (Round <= MaxRound )
 379              		.loc 1 309 0
 380 0000 044B     		ldr	r3, .L42
 381 0002 1A78     		ldrb	r2, [r3]	@ zero_extendqisi2
 382 0004 044B     		ldr	r3, .L42+4
 383 0006 1B78     		ldrb	r3, [r3]	@ zero_extendqisi2
 384 0008 9A42     		cmp	r2, r3
 385 000a 01D8     		bhi	.L41
 310:source\asw/reactionGame.c ****     {
 311:source\asw/reactionGame.c ****         return FALSE;
 386              		.loc 1 311 0
 387 000c 0020     		movs	r0, #0
 388 000e 7047     		bx	lr
 389              	.L41:
 312:source\asw/reactionGame.c ****     }
 313:source\asw/reactionGame.c ****     return TRUE;
 390              		.loc 1 313 0
 391 0010 0120     		movs	r0, #1
 314:source\asw/reactionGame.c **** }
 392              		.loc 1 314 0
 393 0012 7047     		bx	lr
 394              	.L43:
 395              		.align	2
 396              	.L42:
 397 0014 00000000 		.word	.LANCHOR0
 398 0018 00000000 		.word	.LANCHOR1
 399              		.cfi_endproc
 400              	.LFE121:
 401              		.size	REACTIONGAME_CheckGameEnd, .-REACTIONGAME_CheckGameEnd
 402              		.section	.text.REACTIONGAME_CounterTicks,"ax",%progbits
 403              		.align	2
 404              		.global	REACTIONGAME_CounterTicks
 405              		.thumb
 406              		.thumb_func
 407              		.type	REACTIONGAME_CounterTicks, %function
 408              	REACTIONGAME_CounterTicks:
 409              	.LFB122:
 315:source\asw/reactionGame.c **** 
 316:source\asw/reactionGame.c **** /**
 317:source\asw/reactionGame.c ****  * 1 ms Counter.
 318:source\asw/reactionGame.c ****  * @return current counter value.
 319:source\asw/reactionGame.c ****  */
 320:source\asw/reactionGame.c **** uint32 REACTIONGAME_CounterTicks(Ticks_s_t ticks)
 321:source\asw/reactionGame.c **** {
 410              		.loc 1 321 0
ARM GAS  C:\Users\Reza\AppData\Local\Temp\ccTWnMtU.s 			page 14


 411              		.cfi_startproc
 412              		@ args = 0, pretend = 0, frame = 0
 413              		@ frame_needed = 0, uses_anonymous_args = 0
 414              	.LVL19:
 415 0000 08B5     		push	{r3, lr}
 416              		.cfi_def_cfa_offset 8
 417              		.cfi_offset 3, -8
 418              		.cfi_offset 14, -4
 322:source\asw/reactionGame.c ****     static uint32 timer_ticks=0;
 323:source\asw/reactionGame.c ****     switch(ticks)
 419              		.loc 1 323 0
 420 0002 0128     		cmp	r0, #1
 421 0004 06D0     		beq	.L46
 422 0006 10B1     		cbz	r0, .L47
 423 0008 0228     		cmp	r0, #2
 424 000a 07D0     		beq	.L48
 425 000c 14E0     		b	.L51
 426              	.L47:
 324:source\asw/reactionGame.c ****     {
 325:source\asw/reactionGame.c ****         case ReadTicks: return timer_ticks;break;
 427              		.loc 1 325 0
 428 000e 0C4B     		ldr	r3, .L53
 429 0010 D86A     		ldr	r0, [r3, #44]
 430              	.LVL20:
 431 0012 08BD     		pop	{r3, pc}
 432              	.LVL21:
 433              	.L46:
 326:source\asw/reactionGame.c ****         case ResetTicks: timer_ticks=0;return timer_ticks;break;
 434              		.loc 1 326 0
 435 0014 0020     		movs	r0, #0
 436              	.LVL22:
 437 0016 0A4B     		ldr	r3, .L53
 438 0018 D862     		str	r0, [r3, #44]
 439 001a 08BD     		pop	{r3, pc}
 440              	.LVL23:
 441              	.L48:
 327:source\asw/reactionGame.c ****         case IncreaseTicks:timer_ticks++;
 442              		.loc 1 327 0
 443 001c 084A     		ldr	r2, .L53
 444 001e D36A     		ldr	r3, [r2, #44]
 445 0020 0133     		adds	r3, r3, #1
 446 0022 D362     		str	r3, [r2, #44]
 328:source\asw/reactionGame.c ****         if(timer_ticks >1000)
 447              		.loc 1 328 0
 448 0024 B3F57A7F 		cmp	r3, #1000
 449 0028 03D9     		bls	.L50
 329:source\asw/reactionGame.c ****         {
 330:source\asw/reactionGame.c ****             SetEvent(tsk_Control, ev_TooSlow);
 450              		.loc 1 330 0
 451 002a 0421     		movs	r1, #4
 452 002c 0120     		movs	r0, #1
 453              	.LVL24:
 454 002e FFF7FEFF 		bl	EE_oo_SetEvent
 455              	.LVL25:
 456              	.L50:
 331:source\asw/reactionGame.c ****         };return timer_ticks;break; 
 457              		.loc 1 331 0
ARM GAS  C:\Users\Reza\AppData\Local\Temp\ccTWnMtU.s 			page 15


 458 0032 034B     		ldr	r3, .L53
 459 0034 D86A     		ldr	r0, [r3, #44]
 460 0036 08BD     		pop	{r3, pc}
 461              	.LVL26:
 462              	.L51:
 332:source\asw/reactionGame.c ****     }
 333:source\asw/reactionGame.c ****     return timer_ticks;
 463              		.loc 1 333 0
 464 0038 014B     		ldr	r3, .L53
 465 003a D86A     		ldr	r0, [r3, #44]
 466              	.LVL27:
 334:source\asw/reactionGame.c **** }
 467              		.loc 1 334 0
 468 003c 08BD     		pop	{r3, pc}
 469              	.L54:
 470 003e 00BF     		.align	2
 471              	.L53:
 472 0040 00000000 		.word	.LANCHOR0
 473              		.cfi_endproc
 474              	.LFE122:
 475              		.size	REACTIONGAME_CounterTicks, .-REACTIONGAME_CounterTicks
 476              		.section	.text.REACTIONGAME_CounterTicks_Read,"ax",%progbits
 477              		.align	2
 478              		.global	REACTIONGAME_CounterTicks_Read
 479              		.thumb
 480              		.thumb_func
 481              		.type	REACTIONGAME_CounterTicks_Read, %function
 482              	REACTIONGAME_CounterTicks_Read:
 483              	.LFB123:
 335:source\asw/reactionGame.c **** 
 336:source\asw/reactionGame.c **** /**
 337:source\asw/reactionGame.c ****  * Reads the counter value.
 338:source\asw/reactionGame.c ****  * @return current counter value.
 339:source\asw/reactionGame.c ****  */
 340:source\asw/reactionGame.c **** uint32 REACTIONGAME_CounterTicks_Read()
 341:source\asw/reactionGame.c **** {
 484              		.loc 1 341 0
 485              		.cfi_startproc
 486              		@ args = 0, pretend = 0, frame = 0
 487              		@ frame_needed = 0, uses_anonymous_args = 0
 488 0000 08B5     		push	{r3, lr}
 489              		.cfi_def_cfa_offset 8
 490              		.cfi_offset 3, -8
 491              		.cfi_offset 14, -4
 342:source\asw/reactionGame.c ****     return REACTIONGAME_CounterTicks(ReadTicks);
 492              		.loc 1 342 0
 493 0002 0020     		movs	r0, #0
 494 0004 FFF7FEFF 		bl	REACTIONGAME_CounterTicks
 495              	.LVL28:
 343:source\asw/reactionGame.c **** }
 496              		.loc 1 343 0
 497 0008 08BD     		pop	{r3, pc}
 498              		.cfi_endproc
 499              	.LFE123:
 500              		.size	REACTIONGAME_CounterTicks_Read, .-REACTIONGAME_CounterTicks_Read
 501 000a 00BF     		.section	.text.REACTIONGAME_CheckValidButton,"ax",%progbits
 502              		.align	2
ARM GAS  C:\Users\Reza\AppData\Local\Temp\ccTWnMtU.s 			page 16


 503              		.global	REACTIONGAME_CheckValidButton
 504              		.thumb
 505              		.thumb_func
 506              		.type	REACTIONGAME_CheckValidButton, %function
 507              	REACTIONGAME_CheckValidButton:
 508              	.LFB115:
 207:source\asw/reactionGame.c ****     uint32 roundtime=REACTIONGAME_CounterTicks_Read();
 509              		.loc 1 207 0
 510              		.cfi_startproc
 511              		@ args = 0, pretend = 0, frame = 0
 512              		@ frame_needed = 0, uses_anonymous_args = 0
 513 0000 10B5     		push	{r4, lr}
 514              		.cfi_def_cfa_offset 8
 515              		.cfi_offset 4, -8
 516              		.cfi_offset 14, -4
 208:source\asw/reactionGame.c ****     if(PressedButton == RandomButton)
 517              		.loc 1 208 0
 518 0002 FFF7FEFF 		bl	REACTIONGAME_CounterTicks_Read
 519              	.LVL29:
 209:source\asw/reactionGame.c ****     {
 520              		.loc 1 209 0
 521 0006 104B     		ldr	r3, .L61
 522 0008 1A78     		ldrb	r2, [r3]	@ zero_extendqisi2
 523 000a 104B     		ldr	r3, .L61+4
 524 000c 1B78     		ldrb	r3, [r3]	@ zero_extendqisi2
 525 000e 9A42     		cmp	r2, r3
 526 0010 0DD1     		bne	.L58
 527 0012 0446     		mov	r4, r0
 211:source\asw/reactionGame.c ****         UART_Show_Round_Time(roundtime); 
 528              		.loc 1 211 0
 529 0014 FFF7FEFF 		bl	UART_Show_Valid_Button_Pressed
 530              	.LVL30:
 212:source\asw/reactionGame.c ****         Time[Round]=roundtime;
 531              		.loc 1 212 0
 532 0018 2046     		mov	r0, r4
 533 001a FFF7FEFF 		bl	UART_Show_Round_Time
 534              	.LVL31:
 213:source\asw/reactionGame.c ****         REACTIONGAME_IncreaseScore(); 
 535              		.loc 1 213 0
 536 001e 0C4B     		ldr	r3, .L61+8
 537 0020 1A78     		ldrb	r2, [r3]	@ zero_extendqisi2
 538 0022 03EB8203 		add	r3, r3, r2, lsl #2
 539 0026 5C60     		str	r4, [r3, #4]
 214:source\asw/reactionGame.c ****     }
 540              		.loc 1 214 0
 541 0028 FFF7FEFF 		bl	REACTIONGAME_IncreaseScore
 542              	.LVL32:
 543 002c 09E0     		b	.L59
 544              	.LVL33:
 545              	.L58:
 218:source\asw/reactionGame.c ****         Time[Round]=0;
 546              		.loc 1 218 0
 547 002e FFF7FEFF 		bl	UART_Show_Invalid_Button_Pressed
 548              	.LVL34:
 219:source\asw/reactionGame.c ****         REACTIONGAME_DecreaseScore();
 549              		.loc 1 219 0
 550 0032 074B     		ldr	r3, .L61+8
ARM GAS  C:\Users\Reza\AppData\Local\Temp\ccTWnMtU.s 			page 17


 551 0034 1A78     		ldrb	r2, [r3]	@ zero_extendqisi2
 552 0036 03EB8203 		add	r3, r3, r2, lsl #2
 553 003a 0022     		movs	r2, #0
 554 003c 5A60     		str	r2, [r3, #4]
 220:source\asw/reactionGame.c ****     }
 555              		.loc 1 220 0
 556 003e FFF7FEFF 		bl	REACTIONGAME_DecreaseScore
 557              	.LVL35:
 558              	.L59:
 223:source\asw/reactionGame.c **** 
 559              		.loc 1 223 0
 560 0042 0020     		movs	r0, #0
 561 0044 10BD     		pop	{r4, pc}
 562              	.L62:
 563 0046 00BF     		.align	2
 564              	.L61:
 565 0048 00000000 		.word	PressedButton
 566 004c 00000000 		.word	RandomButton
 567 0050 00000000 		.word	.LANCHOR0
 568              		.cfi_endproc
 569              	.LFE115:
 570              		.size	REACTIONGAME_CheckValidButton, .-REACTIONGAME_CheckValidButton
 571              		.section	.text.REACTIONGAME_CounterTicks_Reset,"ax",%progbits
 572              		.align	2
 573              		.global	REACTIONGAME_CounterTicks_Reset
 574              		.thumb
 575              		.thumb_func
 576              		.type	REACTIONGAME_CounterTicks_Reset, %function
 577              	REACTIONGAME_CounterTicks_Reset:
 578              	.LFB124:
 344:source\asw/reactionGame.c **** 
 345:source\asw/reactionGame.c **** /**
 346:source\asw/reactionGame.c ****  * Resets the counter value.
 347:source\asw/reactionGame.c ****  * @return RC_SUCCESS
 348:source\asw/reactionGame.c ****  */
 349:source\asw/reactionGame.c **** RC_t REACTIONGAME_CounterTicks_Reset()
 350:source\asw/reactionGame.c **** {
 579              		.loc 1 350 0
 580              		.cfi_startproc
 581              		@ args = 0, pretend = 0, frame = 0
 582              		@ frame_needed = 0, uses_anonymous_args = 0
 583 0000 08B5     		push	{r3, lr}
 584              		.cfi_def_cfa_offset 8
 585              		.cfi_offset 3, -8
 586              		.cfi_offset 14, -4
 351:source\asw/reactionGame.c ****     REACTIONGAME_CounterTicks(ResetTicks);
 587              		.loc 1 351 0
 588 0002 0120     		movs	r0, #1
 589 0004 FFF7FEFF 		bl	REACTIONGAME_CounterTicks
 590              	.LVL36:
 352:source\asw/reactionGame.c ****     return RC_SUCCESS;
 353:source\asw/reactionGame.c **** }
 591              		.loc 1 353 0
 592 0008 0020     		movs	r0, #0
 593 000a 08BD     		pop	{r3, pc}
 594              		.cfi_endproc
 595              	.LFE124:
ARM GAS  C:\Users\Reza\AppData\Local\Temp\ccTWnMtU.s 			page 18


 596              		.size	REACTIONGAME_CounterTicks_Reset, .-REACTIONGAME_CounterTicks_Reset
 597              		.section	.text.REACTIONGAME_RandButtonSelect,"ax",%progbits
 598              		.align	2
 599              		.global	REACTIONGAME_RandButtonSelect
 600              		.thumb
 601              		.thumb_func
 602              		.type	REACTIONGAME_RandButtonSelect, %function
 603              	REACTIONGAME_RandButtonSelect:
 604              	.LFB114:
 178:source\asw/reactionGame.c ****     SEVEN_id_t seven = SEVEN_0;
 605              		.loc 1 178 0
 606              		.cfi_startproc
 607              		@ args = 0, pretend = 0, frame = 0
 608              		@ frame_needed = 0, uses_anonymous_args = 0
 609 0000 38B5     		push	{r3, r4, r5, lr}
 610              		.cfi_def_cfa_offset 16
 611              		.cfi_offset 3, -16
 612              		.cfi_offset 4, -12
 613              		.cfi_offset 5, -8
 614              		.cfi_offset 14, -4
 615              	.LVL37:
 180:source\asw/reactionGame.c ****      switch (RandButton)
 616              		.loc 1 180 0
 617 0002 FFF7FEFF 		bl	rand
 618              	.LVL38:
 619 0006 144C     		ldr	r4, .L71
 620 0008 2040     		ands	r0, r0, r4
 621 000a 03D5     		bpl	.L66
 622 000c 0138     		subs	r0, r0, #1
 623 000e 60F00100 		orn	r0, r0, #1
 624 0012 0130     		adds	r0, r0, #1
 625              	.L66:
 626 0014 0130     		adds	r0, r0, #1
 627 0016 C4B2     		uxtb	r4, r0
 628              	.LVL39:
 181:source\asw/reactionGame.c ****     {
 629              		.loc 1 181 0
 630 0018 012C     		cmp	r4, #1
 631 001a 02D0     		beq	.L68
 632 001c 022C     		cmp	r4, #2
 633 001e 0BD0     		beq	.L69
 634 0020 15E0     		b	.L67
 635              	.L68:
 184:source\asw/reactionGame.c ****             seven = SEVEN_0;
 636              		.loc 1 184 0
 637 0022 0020     		movs	r0, #0
 638 0024 0D4B     		ldr	r3, .L71+4
 639 0026 1870     		strb	r0, [r3]
 186:source\asw/reactionGame.c ****             seven = SEVEN_1;
 640              		.loc 1 186 0
 641 0028 2146     		mov	r1, r4
 642 002a FFF7FEFF 		bl	SEVEN_Set
 643              	.LVL40:
 188:source\asw/reactionGame.c ****             break;
 644              		.loc 1 188 0
 645 002e 2146     		mov	r1, r4
 646 0030 0120     		movs	r0, #1
ARM GAS  C:\Users\Reza\AppData\Local\Temp\ccTWnMtU.s 			page 19


 647 0032 FFF7FEFF 		bl	SEVEN_Set
 648              	.LVL41:
 189:source\asw/reactionGame.c ****         case 2 : 
 649              		.loc 1 189 0
 650 0036 0AE0     		b	.L67
 651              	.LVL42:
 652              	.L69:
 191:source\asw/reactionGame.c ****             seven = SEVEN_0;
 653              		.loc 1 191 0
 654 0038 0125     		movs	r5, #1
 655 003a 084B     		ldr	r3, .L71+4
 656 003c 1D70     		strb	r5, [r3]
 193:source\asw/reactionGame.c ****             seven = SEVEN_1;
 657              		.loc 1 193 0
 658 003e 2146     		mov	r1, r4
 659 0040 0020     		movs	r0, #0
 660 0042 FFF7FEFF 		bl	SEVEN_Set
 661              	.LVL43:
 195:source\asw/reactionGame.c ****             break;
 662              		.loc 1 195 0
 663 0046 2146     		mov	r1, r4
 664 0048 2846     		mov	r0, r5
 665 004a FFF7FEFF 		bl	SEVEN_Set
 666              	.LVL44:
 667              	.L67:
 198:source\asw/reactionGame.c ****     return RC_SUCCESS;
 668              		.loc 1 198 0
 669 004e FFF7FEFF 		bl	REACTIONGAME_CounterTicks_Reset
 670              	.LVL45:
 200:source\asw/reactionGame.c **** 
 671              		.loc 1 200 0
 672 0052 0020     		movs	r0, #0
 673 0054 38BD     		pop	{r3, r4, r5, pc}
 674              	.LVL46:
 675              	.L72:
 676 0056 00BF     		.align	2
 677              	.L71:
 678 0058 01000080 		.word	-2147483647
 679 005c 00000000 		.word	RandomButton
 680              		.cfi_endproc
 681              	.LFE114:
 682              		.size	REACTIONGAME_RandButtonSelect, .-REACTIONGAME_RandButtonSelect
 683              		.section	.text.REACTIONGAME_Run,"ax",%progbits
 684              		.align	2
 685              		.global	REACTIONGAME_Run
 686              		.thumb
 687              		.thumb_func
 688              		.type	REACTIONGAME_Run, %function
 689              	REACTIONGAME_Run:
 690              	.LFB111:
  85:source\asw/reactionGame.c ****      switch(GameState)
 691              		.loc 1 85 0
 692              		.cfi_startproc
 693              		@ args = 0, pretend = 0, frame = 0
 694              		@ frame_needed = 0, uses_anonymous_args = 0
 695              	.LVL47:
 696 0000 10B5     		push	{r4, lr}
ARM GAS  C:\Users\Reza\AppData\Local\Temp\ccTWnMtU.s 			page 20


 697              		.cfi_def_cfa_offset 8
 698              		.cfi_offset 4, -8
 699              		.cfi_offset 14, -4
 700 0002 0446     		mov	r4, r0
  86:source\asw/reactionGame.c ****         {
 701              		.loc 1 86 0
 702 0004 314B     		ldr	r3, .L82
 703 0006 93F83030 		ldrb	r3, [r3, #48]	@ zero_extendqisi2
 704 000a 012B     		cmp	r3, #1
 705 000c 13D0     		beq	.L75
 706 000e 13B1     		cbz	r3, .L76
 707 0010 022B     		cmp	r3, #2
 708 0012 19D0     		beq	.L77
 709 0014 57E0     		b	.L74
 710              	.L76:
  88:source\asw/reactionGame.c ****             {
 711              		.loc 1 88 0
 712 0016 0028     		cmp	r0, #0
 713 0018 55D1     		bne	.L74
 714              	.LBB4:
  90:source\asw/reactionGame.c ****                 uint32 randtime=REACTIONGAME_RandTime();
 715              		.loc 1 90 0
 716 001a FFF7FEFF 		bl	REACTIONGAME_CreateRandomTime
 717              	.LVL48:
  91:source\asw/reactionGame.c ****                 SetRelAlarm(Rand_Time,randtime,0);
 718              		.loc 1 91 0
 719 001e FFF7FEFF 		bl	REACTIONGAME_RandTime
 720              	.LVL49:
  92:source\asw/reactionGame.c ****                 GameState=Is_WaitRandTime;
 721              		.loc 1 92 0
 722 0022 0022     		movs	r2, #0
 723 0024 0146     		mov	r1, r0
 724 0026 1046     		mov	r0, r2
 725              	.LVL50:
 726 0028 FFF7FEFF 		bl	EE_oo_SetRelAlarm
 727              	.LVL51:
  93:source\asw/reactionGame.c ****                 
 728              		.loc 1 93 0
 729 002c 0122     		movs	r2, #1
 730 002e 274B     		ldr	r3, .L82
 731 0030 83F83020 		strb	r2, [r3, #48]
 732 0034 47E0     		b	.L74
 733              	.LVL52:
 734              	.L75:
 735              	.LBE4:
  96:source\asw/reactionGame.c ****             {
 736              		.loc 1 96 0
 737 0036 0128     		cmp	r0, #1
 738 0038 45D1     		bne	.L74
  98:source\asw/reactionGame.c ****                 GameState=Is_ButtonPressed;
 739              		.loc 1 98 0
 740 003a FFF7FEFF 		bl	REACTIONGAME_RandButtonSelect
 741              	.LVL53:
  99:source\asw/reactionGame.c ****             };break;
 742              		.loc 1 99 0
 743 003e 0222     		movs	r2, #2
 744 0040 224B     		ldr	r3, .L82
ARM GAS  C:\Users\Reza\AppData\Local\Temp\ccTWnMtU.s 			page 21


 745 0042 83F83020 		strb	r2, [r3, #48]
 746 0046 3EE0     		b	.L74
 747              	.LVL54:
 748              	.L77:
 102:source\asw/reactionGame.c ****             {
 749              		.loc 1 102 0
 750 0048 E8B9     		cbnz	r0, .L78
 104:source\asw/reactionGame.c ****                 {
 751              		.loc 1 104 0
 752 004a FFF7FEFF 		bl	REACTIONGAME_CheckGameEnd
 753              	.LVL55:
 754 004e 0128     		cmp	r0, #1
 755 0050 0ED1     		bne	.L79
 106:source\asw/reactionGame.c ****                     SEVEN_Clear(SEVEN_0);
 756              		.loc 1 106 0
 757 0052 0322     		movs	r2, #3
 758 0054 1D4B     		ldr	r3, .L82
 759 0056 83F83020 		strb	r2, [r3, #48]
 107:source\asw/reactionGame.c ****                     SEVEN_Clear(SEVEN_1);
 760              		.loc 1 107 0
 761 005a 0020     		movs	r0, #0
 762 005c FFF7FEFF 		bl	SEVEN_Clear
 763              	.LVL56:
 108:source\asw/reactionGame.c ****                     REACTIONGAME_ShowScore();
 764              		.loc 1 108 0
 765 0060 0120     		movs	r0, #1
 766 0062 FFF7FEFF 		bl	SEVEN_Clear
 767              	.LVL57:
 109:source\asw/reactionGame.c ****                     REACTIONGAME_ShowAvgTime();
 768              		.loc 1 109 0
 769 0066 FFF7FEFF 		bl	REACTIONGAME_ShowScore
 770              	.LVL58:
 110:source\asw/reactionGame.c ****                 }
 771              		.loc 1 110 0
 772 006a FFF7FEFF 		bl	REACTIONGAME_ShowAvgTime
 773              	.LVL59:
 774 006e 0AE0     		b	.L78
 775              	.L79:
 114:source\asw/reactionGame.c ****                     GameState=Is_Initial;
 776              		.loc 1 114 0
 777 0070 FFF7FEFF 		bl	REACTIONGAME_CheckValidButton
 778              	.LVL60:
 115:source\asw/reactionGame.c ****                     SEVEN_Clear(SEVEN_0);
 779              		.loc 1 115 0
 780 0074 0020     		movs	r0, #0
 781 0076 154B     		ldr	r3, .L82
 782 0078 83F83000 		strb	r0, [r3, #48]
 116:source\asw/reactionGame.c ****                     SEVEN_Clear(SEVEN_1);  
 783              		.loc 1 116 0
 784 007c FFF7FEFF 		bl	SEVEN_Clear
 785              	.LVL61:
 117:source\asw/reactionGame.c ****                 }
 786              		.loc 1 117 0
 787 0080 0120     		movs	r0, #1
 788 0082 FFF7FEFF 		bl	SEVEN_Clear
 789              	.LVL62:
 790              	.L78:
ARM GAS  C:\Users\Reza\AppData\Local\Temp\ccTWnMtU.s 			page 22


 121:source\asw/reactionGame.c ****             {
 791              		.loc 1 121 0
 792 0086 022C     		cmp	r4, #2
 793 0088 1DD1     		bne	.L74
 123:source\asw/reactionGame.c ****                 {
 794              		.loc 1 123 0
 795 008a FFF7FEFF 		bl	REACTIONGAME_CheckGameEnd
 796              	.LVL63:
 797 008e 0128     		cmp	r0, #1
 798 0090 0ED1     		bne	.L80
 125:source\asw/reactionGame.c ****                     SEVEN_Clear(SEVEN_0);
 799              		.loc 1 125 0
 800 0092 0322     		movs	r2, #3
 801 0094 0D4B     		ldr	r3, .L82
 802 0096 83F83020 		strb	r2, [r3, #48]
 126:source\asw/reactionGame.c ****                     SEVEN_Clear(SEVEN_1);
 803              		.loc 1 126 0
 804 009a 0020     		movs	r0, #0
 805 009c FFF7FEFF 		bl	SEVEN_Clear
 806              	.LVL64:
 127:source\asw/reactionGame.c ****                     REACTIONGAME_ShowScore();
 807              		.loc 1 127 0
 808 00a0 0120     		movs	r0, #1
 809 00a2 FFF7FEFF 		bl	SEVEN_Clear
 810              	.LVL65:
 128:source\asw/reactionGame.c ****                     REACTIONGAME_ShowAvgTime();
 811              		.loc 1 128 0
 812 00a6 FFF7FEFF 		bl	REACTIONGAME_ShowScore
 813              	.LVL66:
 129:source\asw/reactionGame.c **** 
 814              		.loc 1 129 0
 815 00aa FFF7FEFF 		bl	REACTIONGAME_ShowAvgTime
 816              	.LVL67:
 817 00ae 0AE0     		b	.L74
 818              	.L80:
 134:source\asw/reactionGame.c ****                     SEVEN_Clear(SEVEN_0);
 819              		.loc 1 134 0
 820 00b0 0020     		movs	r0, #0
 821 00b2 064B     		ldr	r3, .L82
 822 00b4 83F83000 		strb	r0, [r3, #48]
 135:source\asw/reactionGame.c ****                     SEVEN_Clear(SEVEN_1);
 823              		.loc 1 135 0
 824 00b8 FFF7FEFF 		bl	SEVEN_Clear
 825              	.LVL68:
 136:source\asw/reactionGame.c ****                     REACTIONGAME_TooSlowPressed();
 826              		.loc 1 136 0
 827 00bc 0120     		movs	r0, #1
 828 00be FFF7FEFF 		bl	SEVEN_Clear
 829              	.LVL69:
 137:source\asw/reactionGame.c ****                 }
 830              		.loc 1 137 0
 831 00c2 FFF7FEFF 		bl	REACTIONGAME_TooSlowPressed
 832              	.LVL70:
 833              	.L74:
 145:source\asw/reactionGame.c **** 
 834              		.loc 1 145 0
 835 00c6 0020     		movs	r0, #0
ARM GAS  C:\Users\Reza\AppData\Local\Temp\ccTWnMtU.s 			page 23


 836 00c8 10BD     		pop	{r4, pc}
 837              	.L83:
 838 00ca 00BF     		.align	2
 839              	.L82:
 840 00cc 00000000 		.word	.LANCHOR0
 841              		.cfi_endproc
 842              	.LFE111:
 843              		.size	REACTIONGAME_Run, .-REACTIONGAME_Run
 844              		.section	.text.REACTIONGAME_CounterTicks_Increase,"ax",%progbits
 845              		.align	2
 846              		.global	REACTIONGAME_CounterTicks_Increase
 847              		.thumb
 848              		.thumb_func
 849              		.type	REACTIONGAME_CounterTicks_Increase, %function
 850              	REACTIONGAME_CounterTicks_Increase:
 851              	.LFB125:
 354:source\asw/reactionGame.c **** 
 355:source\asw/reactionGame.c **** /**
 356:source\asw/reactionGame.c ****  * Increament the counter value.
 357:source\asw/reactionGame.c ****  * @return RC_SUCCESS
 358:source\asw/reactionGame.c ****  */
 359:source\asw/reactionGame.c **** RC_t REACTIONGAME_CounterTicks_Increase()
 360:source\asw/reactionGame.c **** {
 852              		.loc 1 360 0
 853              		.cfi_startproc
 854              		@ args = 0, pretend = 0, frame = 0
 855              		@ frame_needed = 0, uses_anonymous_args = 0
 856 0000 08B5     		push	{r3, lr}
 857              		.cfi_def_cfa_offset 8
 858              		.cfi_offset 3, -8
 859              		.cfi_offset 14, -4
 361:source\asw/reactionGame.c ****     REACTIONGAME_CounterTicks(IncreaseTicks);
 860              		.loc 1 361 0
 861 0002 0220     		movs	r0, #2
 862 0004 FFF7FEFF 		bl	REACTIONGAME_CounterTicks
 863              	.LVL71:
 362:source\asw/reactionGame.c ****     return RC_SUCCESS;
 363:source\asw/reactionGame.c **** }
 864              		.loc 1 363 0
 865 0008 0020     		movs	r0, #0
 866 000a 08BD     		pop	{r3, pc}
 867              		.cfi_endproc
 868              	.LFE125:
 869              		.size	REACTIONGAME_CounterTicks_Increase, .-REACTIONGAME_CounterTicks_Increase
 870              		.global	MaxRound
 871              		.global	GameState
 872              		.comm	PressedButton,1,1
 873              		.comm	RandomButton,1,1
 874              		.global	Time
 875              		.data
 876              		.set	.LANCHOR1,. + 0
 877              		.type	MaxRound, %object
 878              		.size	MaxRound, 1
 879              	MaxRound:
 880 0000 0A       		.byte	10
 881              		.bss
 882              		.align	2
ARM GAS  C:\Users\Reza\AppData\Local\Temp\ccTWnMtU.s 			page 24


 883              		.set	.LANCHOR0,. + 0
 884              		.type	Round, %object
 885              		.size	Round, 1
 886              	Round:
 887 0000 00       		.space	1
 888              		.type	Score, %object
 889              		.size	Score, 1
 890              	Score:
 891 0001 00       		.space	1
 892 0002 0000     		.space	2
 893              		.type	Time, %object
 894              		.size	Time, 40
 895              	Time:
 896 0004 00000000 		.space	40
 896      00000000 
 896      00000000 
 896      00000000 
 896      00000000 
 897              		.type	timer_ticks.7249, %object
 898              		.size	timer_ticks.7249, 4
 899              	timer_ticks.7249:
 900 002c 00000000 		.space	4
 901              		.type	GameState, %object
 902              		.size	GameState, 1
 903              	GameState:
 904 0030 00       		.space	1
 905              		.text
 906              	.Letext0:
 907              		.file 2 "c:\\program files (x86)\\cypress\\psoc creator\\4.4\\psoc creator\\import\\gnu\\arm\\5.4.
 908              		.file 3 "c:\\program files (x86)\\cypress\\psoc creator\\4.4\\psoc creator\\import\\gnu\\arm\\5.4.
 909              		.file 4 "Generated_Source\\PSoC5/cytypes.h"
 910              		.file 5 "Generated_Source\\PSoC5/ErikaOS_1_common_ee_types.inc"
 911              		.file 6 "Generated_Source\\PSoC5/ErikaOS_1_cortex_mx_ee_cpu.inc"
 912              		.file 7 ".\\source\\bsw/global.h"
 913              		.file 8 ".\\source\\bsw/button.h"
 914              		.file 9 "source\\asw\\reactionGame.h"
 915              		.file 10 ".\\source\\bsw/seven.h"
 916              		.file 11 "Generated_Source\\PSoC5/ErikaOS_1_ee_oo_intfunc.inc"
 917              		.file 12 "Generated_Source\\PSoC5/ErikaOS_1_cortex_mx_ee_context.inc"
 918              		.file 13 "Generated_Source\\PSoC5/ErikaOS_1_common_ee_primitives.inc"
 919              		.file 14 "Generated_Source\\PSoC5/core_cm3.h"
 920              		.file 15 ".\\source\\bsw/uart.h"
 921              		.file 16 "c:\\program files (x86)\\cypress\\psoc creator\\4.4\\psoc creator\\import\\gnu\\arm\\5.4
 922              		.file 17 "Generated_Source\\PSoC5/ErikaOS_1_ee_oo_kernel.inc"