ARM GAS  C:\Users\Reza\AppData\Local\Temp\ccPKC4bg.s 			page 1


   1              		.syntax unified
   2              		.cpu cortex-m3
   3              		.fpu softvfp
   4              		.eabi_attribute 20, 1
   5              		.eabi_attribute 21, 1
   6              		.eabi_attribute 23, 3
   7              		.eabi_attribute 24, 1
   8              		.eabi_attribute 25, 1
   9              		.eabi_attribute 26, 1
  10              		.eabi_attribute 30, 1
  11              		.eabi_attribute 34, 1
  12              		.eabi_attribute 18, 4
  13              		.thumb
  14              		.syntax unified
  15              		.file	"uart.c"
  16              		.text
  17              	.Ltext0:
  18              		.cfi_sections	.debug_frame
  19              		.section	.text.UART_Show_Round_Counter,"ax",%progbits
  20              		.align	2
  21              		.global	UART_Show_Round_Counter
  22              		.thumb
  23              		.thumb_func
  24              		.type	UART_Show_Round_Counter, %function
  25              	UART_Show_Round_Counter:
  26              	.LFB110:
  27              		.file 1 "source\\bsw\\uart.c"
   1:source\bsw/uart.c **** /**
   2:source\bsw/uart.c **** * \file <filename>
   3:source\bsw/uart.c **** * \author <author-name>
   4:source\bsw/uart.c **** * \date <date>
   5:source\bsw/uart.c **** *
   6:source\bsw/uart.c **** * \brief <Symbolic File name>
   7:source\bsw/uart.c **** *
   8:source\bsw/uart.c **** * \copyright Copyright ©2016
   9:source\bsw/uart.c **** * Department of electrical engineering and information technology, Hochschule Darmstadt - Universit
  10:source\bsw/uart.c **** * Permission to use, copy, modify, and distribute this software and its documentation for education
  11:source\bsw/uart.c **** * (unless permitted by h_da) and official h_da projects, is hereby granted for enrolled students of
  12:source\bsw/uart.c **** * this paragraph and the following paragraph appear in all copies, modifications, and distributions
  13:source\bsw/uart.c **** * Contact Prof.Dr.-Ing. Peter Fromm, peter.fromm@h-da.de, Birkenweg 8 64295 Darmstadt - GERMANY for
  14:source\bsw/uart.c **** *
  15:source\bsw/uart.c **** * \warning This software is a PROTOTYPE version and is not designed or intended for use in producti
  16:source\bsw/uart.c **** * The user represents and warrants that it will NOT use or redistribute the Software for such purpo
  17:source\bsw/uart.c **** * This prototype is for research purposes only. This software is provided "AS IS," without a warran
  18:source\bsw/uart.c **** */
  19:source\bsw/uart.c **** 
  20:source\bsw/uart.c **** /*****************************************************************************/
  21:source\bsw/uart.c **** /* Include files                                                             */
  22:source\bsw/uart.c **** /*****************************************************************************/
  23:source\bsw/uart.c **** 
  24:source\bsw/uart.c **** #include "project.h"
  25:source\bsw/uart.c **** #include "uart.h"
  26:source\bsw/uart.c **** #include <stdlib.h> 
  27:source\bsw/uart.c **** 
  28:source\bsw/uart.c **** 
  29:source\bsw/uart.c **** /*****************************************************************************/
  30:source\bsw/uart.c **** /* Local pre-processor symbols/macros ('#define')                            */
ARM GAS  C:\Users\Reza\AppData\Local\Temp\ccPKC4bg.s 			page 2


  31:source\bsw/uart.c **** /*****************************************************************************/
  32:source\bsw/uart.c **** 
  33:source\bsw/uart.c **** /*****************************************************************************/
  34:source\bsw/uart.c **** /* Global variable definitions (declared in header file with 'extern')       */
  35:source\bsw/uart.c **** /*****************************************************************************/
  36:source\bsw/uart.c **** 
  37:source\bsw/uart.c **** /*****************************************************************************/
  38:source\bsw/uart.c **** /* Local type definitions ('typedef')                                        */
  39:source\bsw/uart.c **** /*****************************************************************************/
  40:source\bsw/uart.c **** 
  41:source\bsw/uart.c **** 
  42:source\bsw/uart.c **** 
  43:source\bsw/uart.c **** /*****************************************************************************/
  44:source\bsw/uart.c **** /* Local variable definitions ('static')                                     */
  45:source\bsw/uart.c **** /*****************************************************************************/
  46:source\bsw/uart.c **** 
  47:source\bsw/uart.c **** 
  48:source\bsw/uart.c **** /*****************************************************************************/
  49:source\bsw/uart.c **** /* Local function prototypes ('static')                                      */
  50:source\bsw/uart.c **** /*****************************************************************************/
  51:source\bsw/uart.c **** 
  52:source\bsw/uart.c **** 
  53:source\bsw/uart.c **** 
  54:source\bsw/uart.c **** /*****************************************************************************/
  55:source\bsw/uart.c **** /* Function implementation - global ('extern') and local ('static')          */
  56:source\bsw/uart.c **** /*****************************************************************************/
  57:source\bsw/uart.c **** 
  58:source\bsw/uart.c **** /**
  59:source\bsw/uart.c ****  * Sends and diplays the current round value on the console.
  60:source\bsw/uart.c ****  * @param uint8 round current round value
  61:source\bsw/uart.c ****  * @return RC_SUCCESS if function was executed as exepected, other error code in case of error
  62:source\bsw/uart.c ****  */
  63:source\bsw/uart.c **** RC_t UART_Show_Round_Counter(uint8 round)
  64:source\bsw/uart.c **** {
  28              		.loc 1 64 0
  29              		.cfi_startproc
  30              		@ args = 0, pretend = 0, frame = 8
  31              		@ frame_needed = 0, uses_anonymous_args = 0
  32              	.LVL0:
  33 0000 30B5     		push	{r4, r5, lr}
  34              		.cfi_def_cfa_offset 12
  35              		.cfi_offset 4, -12
  36              		.cfi_offset 5, -8
  37              		.cfi_offset 14, -4
  38 0002 83B0     		sub	sp, sp, #12
  39              		.cfi_def_cfa_offset 24
  65:source\bsw/uart.c ****         char arr[2] ="" ;
  40              		.loc 1 65 0
  41 0004 0025     		movs	r5, #0
  42 0006 02AC     		add	r4, sp, #8
  43 0008 24F8045D 		strh	r5, [r4, #-4]!	@ movhi
  66:source\bsw/uart.c ****         itoa(round,arr,10);
  44              		.loc 1 66 0
  45 000c 0A22     		movs	r2, #10
  46 000e 2146     		mov	r1, r4
  47 0010 FFF7FEFF 		bl	itoa
  48              	.LVL1:
ARM GAS  C:\Users\Reza\AppData\Local\Temp\ccPKC4bg.s 			page 3


  67:source\bsw/uart.c ****         UART_LOG_Start();
  49              		.loc 1 67 0
  50 0014 FFF7FEFF 		bl	UART_LOG_Start
  51              	.LVL2:
  68:source\bsw/uart.c ****         UART_LOG_PutStringConst(" Reaction test program round ");
  52              		.loc 1 68 0
  53 0018 0548     		ldr	r0, .L3
  54 001a FFF7FEFF 		bl	UART_LOG_PutString
  55              	.LVL3:
  69:source\bsw/uart.c ****         UART_LOG_PutString(arr);
  56              		.loc 1 69 0
  57 001e 2046     		mov	r0, r4
  58 0020 FFF7FEFF 		bl	UART_LOG_PutString
  59              	.LVL4:
  70:source\bsw/uart.c ****         UART_LOG_PutStringConst("\n");
  60              		.loc 1 70 0
  61 0024 0348     		ldr	r0, .L3+4
  62 0026 FFF7FEFF 		bl	UART_LOG_PutString
  63              	.LVL5:
  71:source\bsw/uart.c ****         return RC_SUCCESS;
  72:source\bsw/uart.c **** }
  64              		.loc 1 72 0
  65 002a 2846     		mov	r0, r5
  66 002c 03B0     		add	sp, sp, #12
  67              		.cfi_def_cfa_offset 12
  68              		@ sp needed
  69 002e 30BD     		pop	{r4, r5, pc}
  70              	.L4:
  71              		.align	2
  72              	.L3:
  73 0030 00000000 		.word	.LC0
  74 0034 20000000 		.word	.LC1
  75              		.cfi_endproc
  76              	.LFE110:
  77              		.size	UART_Show_Round_Counter, .-UART_Show_Round_Counter
  78              		.section	.text.UART_Show_Prompt_Message,"ax",%progbits
  79              		.align	2
  80              		.global	UART_Show_Prompt_Message
  81              		.thumb
  82              		.thumb_func
  83              		.type	UART_Show_Prompt_Message, %function
  84              	UART_Show_Prompt_Message:
  85              	.LFB111:
  73:source\bsw/uart.c **** 
  74:source\bsw/uart.c **** /**
  75:source\bsw/uart.c ****  * Sends and diplays prompt message on the console.
  76:source\bsw/uart.c ****  * @return RC_SUCCESS if function was executed as exepected, other error code in case of error
  77:source\bsw/uart.c ****  */
  78:source\bsw/uart.c **** RC_t UART_Show_Prompt_Message()
  79:source\bsw/uart.c **** {   
  86              		.loc 1 79 0
  87              		.cfi_startproc
  88              		@ args = 0, pretend = 0, frame = 0
  89              		@ frame_needed = 0, uses_anonymous_args = 0
  90 0000 08B5     		push	{r3, lr}
  91              		.cfi_def_cfa_offset 8
  92              		.cfi_offset 3, -8
ARM GAS  C:\Users\Reza\AppData\Local\Temp\ccPKC4bg.s 			page 4


  93              		.cfi_offset 14, -4
  80:source\bsw/uart.c ****     UART_LOG_Start();
  94              		.loc 1 80 0
  95 0002 FFF7FEFF 		bl	UART_LOG_Start
  96              	.LVL6:
  81:source\bsw/uart.c ****     UART_LOG_PutStringConst(" press one of the two buttons to start... \n \n");
  97              		.loc 1 81 0
  98 0006 0248     		ldr	r0, .L7
  99 0008 FFF7FEFF 		bl	UART_LOG_PutString
 100              	.LVL7:
  82:source\bsw/uart.c ****     return RC_SUCCESS;
  83:source\bsw/uart.c **** }
 101              		.loc 1 83 0
 102 000c 0020     		movs	r0, #0
 103 000e 08BD     		pop	{r3, pc}
 104              	.L8:
 105              		.align	2
 106              	.L7:
 107 0010 24000000 		.word	.LC2
 108              		.cfi_endproc
 109              	.LFE111:
 110              		.size	UART_Show_Prompt_Message, .-UART_Show_Prompt_Message
 111              		.section	.text.UART_Show_Score,"ax",%progbits
 112              		.align	2
 113              		.global	UART_Show_Score
 114              		.thumb
 115              		.thumb_func
 116              		.type	UART_Show_Score, %function
 117              	UART_Show_Score:
 118              	.LFB112:
  84:source\bsw/uart.c **** 
  85:source\bsw/uart.c **** /**
  86:source\bsw/uart.c ****  * Sends and diplays the current score value on the console.
  87:source\bsw/uart.c ****  * @param uint8 score current socre value
  88:source\bsw/uart.c ****  * @return RC_SUCCESS if function was executed as exepected, other error code in case of error
  89:source\bsw/uart.c ****  */
  90:source\bsw/uart.c **** RC_t UART_Show_Score(uint8 score)
  91:source\bsw/uart.c **** {
 119              		.loc 1 91 0
 120              		.cfi_startproc
 121              		@ args = 0, pretend = 0, frame = 8
 122              		@ frame_needed = 0, uses_anonymous_args = 0
 123              	.LVL8:
 124 0000 10B5     		push	{r4, lr}
 125              		.cfi_def_cfa_offset 8
 126              		.cfi_offset 4, -8
 127              		.cfi_offset 14, -4
 128 0002 82B0     		sub	sp, sp, #8
 129              		.cfi_def_cfa_offset 16
 130              	.LVL9:
  92:source\bsw/uart.c ****         uint8 realscore=score;
  93:source\bsw/uart.c ****         char arr[3] ="" ;
 131              		.loc 1 93 0
 132 0004 0C4B     		ldr	r3, .L11
 133 0006 1B78     		ldrb	r3, [r3]	@ zero_extendqisi2
 134 0008 8DF80430 		strb	r3, [sp, #4]
 135 000c 0024     		movs	r4, #0
ARM GAS  C:\Users\Reza\AppData\Local\Temp\ccPKC4bg.s 			page 5


 136 000e ADF80540 		strh	r4, [sp, #5]	@ unaligned
  94:source\bsw/uart.c ****         itoa(realscore,arr,10);
 137              		.loc 1 94 0
 138 0012 0A22     		movs	r2, #10
 139 0014 01A9     		add	r1, sp, #4
 140 0016 FFF7FEFF 		bl	itoa
 141              	.LVL10:
  95:source\bsw/uart.c ****         UART_LOG_Start();
 142              		.loc 1 95 0
 143 001a FFF7FEFF 		bl	UART_LOG_Start
 144              	.LVL11:
  96:source\bsw/uart.c ****         UART_LOG_PutStringConst(" Final Score is: ");
 145              		.loc 1 96 0
 146 001e 0748     		ldr	r0, .L11+4
 147 0020 FFF7FEFF 		bl	UART_LOG_PutString
 148              	.LVL12:
  97:source\bsw/uart.c ****         UART_LOG_PutString(arr);
 149              		.loc 1 97 0
 150 0024 01A8     		add	r0, sp, #4
 151 0026 FFF7FEFF 		bl	UART_LOG_PutString
 152              	.LVL13:
  98:source\bsw/uart.c ****         UART_LOG_PutStringConst("\n");
 153              		.loc 1 98 0
 154 002a 0548     		ldr	r0, .L11+8
 155 002c FFF7FEFF 		bl	UART_LOG_PutString
 156              	.LVL14:
  99:source\bsw/uart.c ****         return RC_SUCCESS;
 100:source\bsw/uart.c **** }
 157              		.loc 1 100 0
 158 0030 2046     		mov	r0, r4
 159 0032 02B0     		add	sp, sp, #8
 160              		.cfi_def_cfa_offset 8
 161              		@ sp needed
 162 0034 10BD     		pop	{r4, pc}
 163              	.L12:
 164 0036 00BF     		.align	2
 165              	.L11:
 166 0038 00000000 		.word	.LANCHOR0
 167 003c 54000000 		.word	.LC4
 168 0040 20000000 		.word	.LC1
 169              		.cfi_endproc
 170              	.LFE112:
 171              		.size	UART_Show_Score, .-UART_Show_Score
 172              		.section	.text.UART_Show_Average_Time,"ax",%progbits
 173              		.align	2
 174              		.global	UART_Show_Average_Time
 175              		.thumb
 176              		.thumb_func
 177              		.type	UART_Show_Average_Time, %function
 178              	UART_Show_Average_Time:
 179              	.LFB113:
 101:source\bsw/uart.c **** 
 102:source\bsw/uart.c **** /**
 103:source\bsw/uart.c ****  * Sends and diplays the average time value on the console.
 104:source\bsw/uart.c ****  * @param uint8 avgtime Average time of all 10 rounds.
 105:source\bsw/uart.c ****  * @return RC_SUCCESS if function was executed as exepected, other error code in case of error
 106:source\bsw/uart.c ****  */
ARM GAS  C:\Users\Reza\AppData\Local\Temp\ccPKC4bg.s 			page 6


 107:source\bsw/uart.c **** RC_t UART_Show_Average_Time(uint32 avgtime)
 108:source\bsw/uart.c **** {
 180              		.loc 1 108 0
 181              		.cfi_startproc
 182              		@ args = 0, pretend = 0, frame = 24
 183              		@ frame_needed = 0, uses_anonymous_args = 0
 184              	.LVL15:
 185 0000 10B5     		push	{r4, lr}
 186              		.cfi_def_cfa_offset 8
 187              		.cfi_offset 4, -8
 188              		.cfi_offset 14, -4
 189 0002 86B0     		sub	sp, sp, #24
 190              		.cfi_def_cfa_offset 32
 191              	.LVL16:
 109:source\bsw/uart.c ****         uint32 time=avgtime;
 110:source\bsw/uart.c ****         char arr[20] ="" ;
 192              		.loc 1 110 0
 193 0004 0024     		movs	r4, #0
 194 0006 0194     		str	r4, [sp, #4]
 195 0008 0294     		str	r4, [sp, #8]
 196 000a 0394     		str	r4, [sp, #12]
 197 000c 0494     		str	r4, [sp, #16]
 198 000e 0594     		str	r4, [sp, #20]
 111:source\bsw/uart.c ****         itoa(time,arr,10);
 199              		.loc 1 111 0
 200 0010 0A22     		movs	r2, #10
 201 0012 01A9     		add	r1, sp, #4
 202 0014 FFF7FEFF 		bl	itoa
 203              	.LVL17:
 112:source\bsw/uart.c ****         UART_LOG_Start();
 204              		.loc 1 112 0
 205 0018 FFF7FEFF 		bl	UART_LOG_Start
 206              	.LVL18:
 113:source\bsw/uart.c ****         UART_LOG_PutStringConst(" Average time in ms: ");
 207              		.loc 1 113 0
 208 001c 0748     		ldr	r0, .L15
 209 001e FFF7FEFF 		bl	UART_LOG_PutString
 210              	.LVL19:
 114:source\bsw/uart.c ****         UART_LOG_PutString(arr);
 211              		.loc 1 114 0
 212 0022 01A8     		add	r0, sp, #4
 213 0024 FFF7FEFF 		bl	UART_LOG_PutString
 214              	.LVL20:
 115:source\bsw/uart.c ****         UART_LOG_PutStringConst("\n"); 
 215              		.loc 1 115 0
 216 0028 0548     		ldr	r0, .L15+4
 217 002a FFF7FEFF 		bl	UART_LOG_PutString
 218              	.LVL21:
 116:source\bsw/uart.c ****         UART_LOG_PutStringConst(" ****************************************************** \n");
 219              		.loc 1 116 0
 220 002e 0548     		ldr	r0, .L15+8
 221 0030 FFF7FEFF 		bl	UART_LOG_PutString
 222              	.LVL22:
 117:source\bsw/uart.c ****         return RC_SUCCESS;
 118:source\bsw/uart.c **** }
 223              		.loc 1 118 0
 224 0034 2046     		mov	r0, r4
ARM GAS  C:\Users\Reza\AppData\Local\Temp\ccPKC4bg.s 			page 7


 225 0036 06B0     		add	sp, sp, #24
 226              		.cfi_def_cfa_offset 8
 227              		@ sp needed
 228 0038 10BD     		pop	{r4, pc}
 229              	.L16:
 230 003a 00BF     		.align	2
 231              	.L15:
 232 003c 68000000 		.word	.LC5
 233 0040 20000000 		.word	.LC1
 234 0044 80000000 		.word	.LC6
 235              		.cfi_endproc
 236              	.LFE113:
 237              		.size	UART_Show_Average_Time, .-UART_Show_Average_Time
 238              		.section	.text.UART_Show_Round_Time,"ax",%progbits
 239              		.align	2
 240              		.global	UART_Show_Round_Time
 241              		.thumb
 242              		.thumb_func
 243              		.type	UART_Show_Round_Time, %function
 244              	UART_Show_Round_Time:
 245              	.LFB114:
 119:source\bsw/uart.c **** 
 120:source\bsw/uart.c **** /**
 121:source\bsw/uart.c ****  * Sends and diplays each round time after valid button pressed on the console.
 122:source\bsw/uart.c ****  * @param uint8 roundtime current round time value.
 123:source\bsw/uart.c ****  * @return RC_SUCCESS if function was executed as exepected, other error code in case of error
 124:source\bsw/uart.c ****  */
 125:source\bsw/uart.c **** RC_t UART_Show_Round_Time(uint32 roundtime)
 126:source\bsw/uart.c **** {
 246              		.loc 1 126 0
 247              		.cfi_startproc
 248              		@ args = 0, pretend = 0, frame = 24
 249              		@ frame_needed = 0, uses_anonymous_args = 0
 250              	.LVL23:
 251 0000 10B5     		push	{r4, lr}
 252              		.cfi_def_cfa_offset 8
 253              		.cfi_offset 4, -8
 254              		.cfi_offset 14, -4
 255 0002 86B0     		sub	sp, sp, #24
 256              		.cfi_def_cfa_offset 32
 257              	.LVL24:
 127:source\bsw/uart.c ****     uint32 time=roundtime;
 128:source\bsw/uart.c ****         char arr[20] ="" ;
 258              		.loc 1 128 0
 259 0004 0024     		movs	r4, #0
 260 0006 0194     		str	r4, [sp, #4]
 261 0008 0294     		str	r4, [sp, #8]
 262 000a 0394     		str	r4, [sp, #12]
 263 000c 0494     		str	r4, [sp, #16]
 264 000e 0594     		str	r4, [sp, #20]
 129:source\bsw/uart.c ****         itoa(time,arr,10);
 265              		.loc 1 129 0
 266 0010 0A22     		movs	r2, #10
 267 0012 01A9     		add	r1, sp, #4
 268 0014 FFF7FEFF 		bl	itoa
 269              	.LVL25:
 130:source\bsw/uart.c ****         UART_LOG_Start();
ARM GAS  C:\Users\Reza\AppData\Local\Temp\ccPKC4bg.s 			page 8


 270              		.loc 1 130 0
 271 0018 FFF7FEFF 		bl	UART_LOG_Start
 272              	.LVL26:
 131:source\bsw/uart.c ****         UART_LOG_PutStringConst(" Reaction time in ms: ");
 273              		.loc 1 131 0
 274 001c 0748     		ldr	r0, .L19
 275 001e FFF7FEFF 		bl	UART_LOG_PutString
 276              	.LVL27:
 132:source\bsw/uart.c ****         UART_LOG_PutString(arr);
 277              		.loc 1 132 0
 278 0022 01A8     		add	r0, sp, #4
 279 0024 FFF7FEFF 		bl	UART_LOG_PutString
 280              	.LVL28:
 133:source\bsw/uart.c ****         UART_LOG_PutStringConst("\n \n");
 281              		.loc 1 133 0
 282 0028 0548     		ldr	r0, .L19+4
 283 002a FFF7FEFF 		bl	UART_LOG_PutString
 284              	.LVL29:
 134:source\bsw/uart.c ****         UART_LOG_PutStringConst(" ======================================================= \n");
 285              		.loc 1 134 0
 286 002e 0548     		ldr	r0, .L19+8
 287 0030 FFF7FEFF 		bl	UART_LOG_PutString
 288              	.LVL30:
 135:source\bsw/uart.c ****         return RC_SUCCESS;
 136:source\bsw/uart.c **** }
 289              		.loc 1 136 0
 290 0034 2046     		mov	r0, r4
 291 0036 06B0     		add	sp, sp, #24
 292              		.cfi_def_cfa_offset 8
 293              		@ sp needed
 294 0038 10BD     		pop	{r4, pc}
 295              	.L20:
 296 003a 00BF     		.align	2
 297              	.L19:
 298 003c BC000000 		.word	.LC7
 299 0040 D4000000 		.word	.LC8
 300 0044 D8000000 		.word	.LC9
 301              		.cfi_endproc
 302              	.LFE114:
 303              		.size	UART_Show_Round_Time, .-UART_Show_Round_Time
 304              		.section	.text.UART_Show_Invalid_Button_Pressed,"ax",%progbits
 305              		.align	2
 306              		.global	UART_Show_Invalid_Button_Pressed
 307              		.thumb
 308              		.thumb_func
 309              		.type	UART_Show_Invalid_Button_Pressed, %function
 310              	UART_Show_Invalid_Button_Pressed:
 311              	.LFB115:
 137:source\bsw/uart.c **** 
 138:source\bsw/uart.c **** /**
 139:source\bsw/uart.c ****  * Sends and diplays the invalid buttom pressed message on the console.
 140:source\bsw/uart.c ****  * @return RC_SUCCESS if function was executed as exepected, other error code in case of error
 141:source\bsw/uart.c ****  */
 142:source\bsw/uart.c **** RC_t UART_Show_Invalid_Button_Pressed()
 143:source\bsw/uart.c **** {
 312              		.loc 1 143 0
 313              		.cfi_startproc
ARM GAS  C:\Users\Reza\AppData\Local\Temp\ccPKC4bg.s 			page 9


 314              		@ args = 0, pretend = 0, frame = 0
 315              		@ frame_needed = 0, uses_anonymous_args = 0
 316 0000 08B5     		push	{r3, lr}
 317              		.cfi_def_cfa_offset 8
 318              		.cfi_offset 3, -8
 319              		.cfi_offset 14, -4
 144:source\bsw/uart.c ****     UART_LOG_Start();
 320              		.loc 1 144 0
 321 0002 FFF7FEFF 		bl	UART_LOG_Start
 322              	.LVL31:
 145:source\bsw/uart.c ****     UART_LOG_PutStringConst(" Oops - incorrect button pressed \n");
 323              		.loc 1 145 0
 324 0006 0548     		ldr	r0, .L23
 325 0008 FFF7FEFF 		bl	UART_LOG_PutString
 326              	.LVL32:
 146:source\bsw/uart.c ****     UART_LOG_PutStringConst(" \n");
 327              		.loc 1 146 0
 328 000c 0448     		ldr	r0, .L23+4
 329 000e FFF7FEFF 		bl	UART_LOG_PutString
 330              	.LVL33:
 147:source\bsw/uart.c ****     UART_LOG_PutStringConst(" ======================================================= \n");
 331              		.loc 1 147 0
 332 0012 0448     		ldr	r0, .L23+8
 333 0014 FFF7FEFF 		bl	UART_LOG_PutString
 334              	.LVL34:
 148:source\bsw/uart.c ****     return RC_SUCCESS;
 149:source\bsw/uart.c **** }
 335              		.loc 1 149 0
 336 0018 0020     		movs	r0, #0
 337 001a 08BD     		pop	{r3, pc}
 338              	.L24:
 339              		.align	2
 340              	.L23:
 341 001c 14010000 		.word	.LC10
 342 0020 38010000 		.word	.LC11
 343 0024 D8000000 		.word	.LC9
 344              		.cfi_endproc
 345              	.LFE115:
 346              		.size	UART_Show_Invalid_Button_Pressed, .-UART_Show_Invalid_Button_Pressed
 347              		.section	.text.UART_Show_Valid_Button_Pressed,"ax",%progbits
 348              		.align	2
 349              		.global	UART_Show_Valid_Button_Pressed
 350              		.thumb
 351              		.thumb_func
 352              		.type	UART_Show_Valid_Button_Pressed, %function
 353              	UART_Show_Valid_Button_Pressed:
 354              	.LFB116:
 150:source\bsw/uart.c **** 
 151:source\bsw/uart.c **** /**
 152:source\bsw/uart.c ****  * Sends and diplays the valid buttom pressed message on the console.
 153:source\bsw/uart.c ****  * @return RC_SUCCESS if function was executed as exepected, other error code in case of error
 154:source\bsw/uart.c ****  */
 155:source\bsw/uart.c **** RC_t UART_Show_Valid_Button_Pressed()
 156:source\bsw/uart.c **** {
 355              		.loc 1 156 0
 356              		.cfi_startproc
 357              		@ args = 0, pretend = 0, frame = 0
ARM GAS  C:\Users\Reza\AppData\Local\Temp\ccPKC4bg.s 			page 10


 358              		@ frame_needed = 0, uses_anonymous_args = 0
 359 0000 08B5     		push	{r3, lr}
 360              		.cfi_def_cfa_offset 8
 361              		.cfi_offset 3, -8
 362              		.cfi_offset 14, -4
 157:source\bsw/uart.c ****     UART_LOG_Start();
 363              		.loc 1 157 0
 364 0002 FFF7FEFF 		bl	UART_LOG_Start
 365              	.LVL35:
 158:source\bsw/uart.c ****     UART_LOG_PutStringConst(" Great - correct button pressed \n");
 366              		.loc 1 158 0
 367 0006 0248     		ldr	r0, .L27
 368 0008 FFF7FEFF 		bl	UART_LOG_PutString
 369              	.LVL36:
 159:source\bsw/uart.c ****     return RC_SUCCESS;
 160:source\bsw/uart.c **** }
 370              		.loc 1 160 0
 371 000c 0020     		movs	r0, #0
 372 000e 08BD     		pop	{r3, pc}
 373              	.L28:
 374              		.align	2
 375              	.L27:
 376 0010 3C010000 		.word	.LC12
 377              		.cfi_endproc
 378              	.LFE116:
 379              		.size	UART_Show_Valid_Button_Pressed, .-UART_Show_Valid_Button_Pressed
 380              		.section	.text.UART_Show_TooSlow_Message,"ax",%progbits
 381              		.align	2
 382              		.global	UART_Show_TooSlow_Message
 383              		.thumb
 384              		.thumb_func
 385              		.type	UART_Show_TooSlow_Message, %function
 386              	UART_Show_TooSlow_Message:
 387              	.LFB117:
 161:source\bsw/uart.c **** 
 162:source\bsw/uart.c **** /**
 163:source\bsw/uart.c ****  * Sends and diplays the too slow message on the console.
 164:source\bsw/uart.c ****  * @return RC_SUCCESS if function was executed as exepected, other error code in case of error
 165:source\bsw/uart.c ****  */
 166:source\bsw/uart.c **** RC_t UART_Show_TooSlow_Message()
 167:source\bsw/uart.c **** {
 388              		.loc 1 167 0
 389              		.cfi_startproc
 390              		@ args = 0, pretend = 0, frame = 0
 391              		@ frame_needed = 0, uses_anonymous_args = 0
 392 0000 08B5     		push	{r3, lr}
 393              		.cfi_def_cfa_offset 8
 394              		.cfi_offset 3, -8
 395              		.cfi_offset 14, -4
 168:source\bsw/uart.c ****     UART_LOG_Start();
 396              		.loc 1 168 0
 397 0002 FFF7FEFF 		bl	UART_LOG_Start
 398              	.LVL37:
 169:source\bsw/uart.c ****     UART_LOG_PutStringConst(" Too Slow| \n");
 399              		.loc 1 169 0
 400 0006 0548     		ldr	r0, .L31
 401 0008 FFF7FEFF 		bl	UART_LOG_PutString
ARM GAS  C:\Users\Reza\AppData\Local\Temp\ccPKC4bg.s 			page 11


 402              	.LVL38:
 170:source\bsw/uart.c ****     UART_LOG_PutStringConst(" \n");
 403              		.loc 1 170 0
 404 000c 0448     		ldr	r0, .L31+4
 405 000e FFF7FEFF 		bl	UART_LOG_PutString
 406              	.LVL39:
 171:source\bsw/uart.c ****     UART_LOG_PutStringConst(" ======================================================= \n");
 407              		.loc 1 171 0
 408 0012 0448     		ldr	r0, .L31+8
 409 0014 FFF7FEFF 		bl	UART_LOG_PutString
 410              	.LVL40:
 172:source\bsw/uart.c ****     return RC_SUCCESS;
 173:source\bsw/uart.c **** }
 411              		.loc 1 173 0
 412 0018 0020     		movs	r0, #0
 413 001a 08BD     		pop	{r3, pc}
 414              	.L32:
 415              		.align	2
 416              	.L31:
 417 001c 60010000 		.word	.LC13
 418 0020 38010000 		.word	.LC11
 419 0024 D8000000 		.word	.LC9
 420              		.cfi_endproc
 421              	.LFE117:
 422              		.size	UART_Show_TooSlow_Message, .-UART_Show_TooSlow_Message
 423              		.section	.rodata
 424              		.align	2
 425              		.set	.LANCHOR0,. + 0
 426              	.LC3:
 427 0000 00       		.ascii	"\000"
 428 0001 0000     		.space	2
 429              		.section	.rodata.str1.4,"aMS",%progbits,1
 430              		.align	2
 431              	.LC0:
 432 0000 20526561 		.ascii	" Reaction test program round \000"
 432      6374696F 
 432      6E207465 
 432      73742070 
 432      726F6772 
 433 001e 0000     		.space	2
 434              	.LC1:
 435 0020 0A00     		.ascii	"\012\000"
 436 0022 0000     		.space	2
 437              	.LC2:
 438 0024 20707265 		.ascii	" press one of the two buttons to start... \012 \012"
 438      7373206F 
 438      6E65206F 
 438      66207468 
 438      65207477 
 439 0051 00       		.ascii	"\000"
 440 0052 0000     		.space	2
 441              	.LC4:
 442 0054 2046696E 		.ascii	" Final Score is: \000"
 442      616C2053 
 442      636F7265 
 442      2069733A 
 442      2000
ARM GAS  C:\Users\Reza\AppData\Local\Temp\ccPKC4bg.s 			page 12


 443 0066 0000     		.space	2
 444              	.LC5:
 445 0068 20417665 		.ascii	" Average time in ms: \000"
 445      72616765 
 445      2074696D 
 445      6520696E 
 445      206D733A 
 446 007e 0000     		.space	2
 447              	.LC6:
 448 0080 202A2A2A 		.ascii	" **************************************************"
 448      2A2A2A2A 
 448      2A2A2A2A 
 448      2A2A2A2A 
 448      2A2A2A2A 
 449 00b3 2A2A2A2A 		.ascii	"**** \012\000"
 449      200A00
 450 00ba 0000     		.space	2
 451              	.LC7:
 452 00bc 20526561 		.ascii	" Reaction time in ms: \000"
 452      6374696F 
 452      6E207469 
 452      6D652069 
 452      6E206D73 
 453 00d3 00       		.space	1
 454              	.LC8:
 455 00d4 0A200A00 		.ascii	"\012 \012\000"
 456              	.LC9:
 457 00d8 203D3D3D 		.ascii	" =================================================="
 457      3D3D3D3D 
 457      3D3D3D3D 
 457      3D3D3D3D 
 457      3D3D3D3D 
 458 010b 3D3D3D3D 		.ascii	"===== \012\000"
 458      3D200A00 
 459 0113 00       		.space	1
 460              	.LC10:
 461 0114 204F6F70 		.ascii	" Oops - incorrect button pressed \012\000"
 461      73202D20 
 461      696E636F 
 461      72726563 
 461      74206275 
 462 0137 00       		.space	1
 463              	.LC11:
 464 0138 200A00   		.ascii	" \012\000"
 465 013b 00       		.space	1
 466              	.LC12:
 467 013c 20477265 		.ascii	" Great - correct button pressed \012\000"
 467      6174202D 
 467      20636F72 
 467      72656374 
 467      20627574 
 468 015e 0000     		.space	2
 469              	.LC13:
 470 0160 20546F6F 		.ascii	" Too Slow| \012\000"
 470      20536C6F 
 470      777C200A 
 470      00
ARM GAS  C:\Users\Reza\AppData\Local\Temp\ccPKC4bg.s 			page 13


 471              		.text
 472              	.Letext0:
 473              		.file 2 "c:\\program files (x86)\\cypress\\psoc creator\\4.4\\psoc creator\\import\\gnu\\arm\\5.4.
 474              		.file 3 "c:\\program files (x86)\\cypress\\psoc creator\\4.4\\psoc creator\\import\\gnu\\arm\\5.4.
 475              		.file 4 "Generated_Source\\PSoC5/cytypes.h"
 476              		.file 5 "Generated_Source\\PSoC5/ErikaOS_1_common_ee_types.inc"
 477              		.file 6 "Generated_Source\\PSoC5/ErikaOS_1_cortex_mx_ee_cpu.inc"
 478              		.file 7 "source\\bsw\\global.h"
 479              		.file 8 "Generated_Source\\PSoC5/ErikaOS_1_ee_oo_intfunc.inc"
 480              		.file 9 "Generated_Source\\PSoC5/ErikaOS_1_cortex_mx_ee_context.inc"
 481              		.file 10 "Generated_Source\\PSoC5/ErikaOS_1_common_ee_primitives.inc"
 482              		.file 11 "Generated_Source\\PSoC5/core_cm3.h"
 483              		.file 12 "c:\\program files (x86)\\cypress\\psoc creator\\4.4\\psoc creator\\import\\gnu\\arm\\5.4
 484              		.file 13 "Generated_Source\\PSoC5/UART_LOG.h"