ARM GAS  C:\Users\Reza\AppData\Local\Temp\ccq3WVFj.s 			page 1


   1              		.syntax unified
   2              		.cpu cortex-m3
   3              		.fpu softvfp
   4              		.eabi_attribute 20, 1
   5              		.eabi_attribute 21, 1
   6              		.eabi_attribute 23, 3
   7              		.eabi_attribute 24, 1
   8              		.eabi_attribute 25, 1
   9              		.eabi_attribute 26, 1
  10              		.eabi_attribute 30, 4
  11              		.eabi_attribute 34, 1
  12              		.eabi_attribute 18, 4
  13              		.thumb
  14              		.syntax unified
  15              		.file	"blinker.c"
  16              		.text
  17              	.Ltext0:
  18              		.cfi_sections	.debug_frame
  19              		.section	.text.BLINKER_Init,"ax",%progbits
  20              		.align	1
  21              		.global	BLINKER_Init
  22              		.thumb
  23              		.thumb_func
  24              		.type	BLINKER_Init, %function
  25              	BLINKER_Init:
  26              	.LFB110:
  27              		.file 1 "source\\asw\\blinker.c"
   1:source\asw/blinker.c **** /**
   2:source\asw/blinker.c **** * \file <filename>
   3:source\asw/blinker.c **** * \author <author-name>
   4:source\asw/blinker.c **** * \date <date>
   5:source\asw/blinker.c **** *
   6:source\asw/blinker.c **** * \brief <Symbolic File name>
   7:source\asw/blinker.c **** *
   8:source\asw/blinker.c **** * \copyright Copyright ©2016
   9:source\asw/blinker.c **** * Department of electrical engineering and information technology, Hochschule Darmstadt - Universit
  10:source\asw/blinker.c **** * Permission to use, copy, modify, and distribute this software and its documentation for education
  11:source\asw/blinker.c **** * (unless permitted by h_da) and official h_da projects, is hereby granted for enrolled students of
  12:source\asw/blinker.c **** * this paragraph and the following paragraph appear in all copies, modifications, and distributions
  13:source\asw/blinker.c **** * Contact Prof.Dr.-Ing. Peter Fromm, peter.fromm@h-da.de, Birkenweg 8 64295 Darmstadt - GERMANY for
  14:source\asw/blinker.c **** *
  15:source\asw/blinker.c **** * \warning This software is a PROTOTYPE version and is not designed or intended for use in producti
  16:source\asw/blinker.c **** * The user represents and warrants that it will NOT use or redistribute the Software for such purpo
  17:source\asw/blinker.c **** * This prototype is for research purposes only. This software is provided "AS IS," without a warran
  18:source\asw/blinker.c **** */
  19:source\asw/blinker.c **** 
  20:source\asw/blinker.c **** /*****************************************************************************/
  21:source\asw/blinker.c **** /* Include files                                                             */
  22:source\asw/blinker.c **** /*****************************************************************************/
  23:source\asw/blinker.c **** #include "blinker.h"
  24:source\asw/blinker.c **** 
  25:source\asw/blinker.c **** #include "seven.h"
  26:source\asw/blinker.c **** #include "led.h"
  27:source\asw/blinker.c **** 
  28:source\asw/blinker.c **** /*****************************************************************************/
  29:source\asw/blinker.c **** /* Local pre-processor symbols/macros ('#define')                            */
  30:source\asw/blinker.c **** /*****************************************************************************/
ARM GAS  C:\Users\Reza\AppData\Local\Temp\ccq3WVFj.s 			page 2


  31:source\asw/blinker.c **** 
  32:source\asw/blinker.c **** /*****************************************************************************/
  33:source\asw/blinker.c **** /* Global variable definitions (declared in header file with 'extern')       */
  34:source\asw/blinker.c **** /*****************************************************************************/
  35:source\asw/blinker.c **** 
  36:source\asw/blinker.c **** BLINKER_t BLINKER_left = {BLINKER_LEFT, 0};
  37:source\asw/blinker.c **** BLINKER_t BLINKER_right = {BLINKER_RIGHT, 0};
  38:source\asw/blinker.c **** 
  39:source\asw/blinker.c **** /*****************************************************************************/
  40:source\asw/blinker.c **** /* Local type definitions ('typedef')                                        */
  41:source\asw/blinker.c **** /*****************************************************************************/
  42:source\asw/blinker.c **** 
  43:source\asw/blinker.c **** /*****************************************************************************/
  44:source\asw/blinker.c **** /* Local variable definitions ('static')                                     */
  45:source\asw/blinker.c **** /*****************************************************************************/
  46:source\asw/blinker.c **** 
  47:source\asw/blinker.c **** 
  48:source\asw/blinker.c **** 
  49:source\asw/blinker.c **** /*****************************************************************************/
  50:source\asw/blinker.c **** /* Local function prototypes ('static')                                      */
  51:source\asw/blinker.c **** /*****************************************************************************/
  52:source\asw/blinker.c **** 
  53:source\asw/blinker.c **** 
  54:source\asw/blinker.c **** /*****************************************************************************/
  55:source\asw/blinker.c **** /* Function implementation - global ('extern') and local ('static')          */
  56:source\asw/blinker.c **** /*****************************************************************************/
  57:source\asw/blinker.c **** 
  58:source\asw/blinker.c **** /**
  59:source\asw/blinker.c ****  * Blinker Initialisation
  60:source\asw/blinker.c ****  * @param BLINKER_t *const me   - blinker object
  61:source\asw/blinker.c ****  * @param BLINKER_Id_t led      - left/right blinker
  62:source\asw/blinker.c ****  * @return RC_SUCCESS
  63:source\asw/blinker.c ****  */
  64:source\asw/blinker.c **** RC_t BLINKER_Init(BLINKER_t *const me, BLINKER_Id_t led)
  65:source\asw/blinker.c **** {
  28              		.loc 1 65 0
  29              		.cfi_startproc
  30              		@ args = 0, pretend = 0, frame = 0
  31              		@ frame_needed = 0, uses_anonymous_args = 0
  32              		@ link register save eliminated.
  33              	.LVL0:
  66:source\asw/blinker.c ****     
  67:source\asw/blinker.c ****     me->led = led;
  68:source\asw/blinker.c ****     me->remainingBlinks = 0;
  34              		.loc 1 68 0
  35 0000 0023     		movs	r3, #0
  67:source\asw/blinker.c ****     me->remainingBlinks = 0;
  36              		.loc 1 67 0
  37 0002 0170     		strb	r1, [r0]
  38              		.loc 1 68 0
  39 0004 4370     		strb	r3, [r0, #1]
  69:source\asw/blinker.c ****     me->emergency = FALSE;
  40              		.loc 1 69 0
  41 0006 8370     		strb	r3, [r0, #2]
  70:source\asw/blinker.c ****     
  71:source\asw/blinker.c ****     return RC_SUCCESS;
  72:source\asw/blinker.c **** }
ARM GAS  C:\Users\Reza\AppData\Local\Temp\ccq3WVFj.s 			page 3


  42              		.loc 1 72 0
  43 0008 1846     		mov	r0, r3
  44              	.LVL1:
  45 000a 7047     		bx	lr
  46              		.cfi_endproc
  47              	.LFE110:
  48              		.size	BLINKER_Init, .-BLINKER_Init
  49              		.section	.text.BLINKER_Set,"ax",%progbits
  50              		.align	1
  51              		.global	BLINKER_Set
  52              		.thumb
  53              		.thumb_func
  54              		.type	BLINKER_Set, %function
  55              	BLINKER_Set:
  56              	.LFB111:
  73:source\asw/blinker.c ****     
  74:source\asw/blinker.c **** 
  75:source\asw/blinker.c **** /**
  76:source\asw/blinker.c ****  * Set Blinker depending on button press
  77:source\asw/blinker.c ****  * @param BLINKER_t *const me   - blinker object
  78:source\asw/blinker.c ****  * @param uint8_t noBlinks      - number of blinks to go
  79:source\asw/blinker.c ****  * @return RC_SUCCESS
  80:source\asw/blinker.c ****  */
  81:source\asw/blinker.c **** RC_t BLINKER_Set(BLINKER_t *const me, uint8_t noBlinks)
  82:source\asw/blinker.c **** {
  57              		.loc 1 82 0
  58              		.cfi_startproc
  59              		@ args = 0, pretend = 0, frame = 0
  60              		@ frame_needed = 0, uses_anonymous_args = 0
  61              		@ link register save eliminated.
  62              	.LVL2:
  83:source\asw/blinker.c ****     if (me->remainingBlinks < noBlinks)
  63              		.loc 1 83 0
  64 0000 4378     		ldrb	r3, [r0, #1]	@ zero_extendqisi2
  65 0002 8B42     		cmp	r3, r1
  84:source\asw/blinker.c ****     {
  85:source\asw/blinker.c ****         me->remainingBlinks = noBlinks;
  66              		.loc 1 85 0
  67 0004 38BF     		it	cc
  68 0006 4170     		strbcc	r1, [r0, #1]
  86:source\asw/blinker.c ****     }
  87:source\asw/blinker.c ****     
  88:source\asw/blinker.c ****     return RC_SUCCESS;
  89:source\asw/blinker.c **** }
  69              		.loc 1 89 0
  70 0008 0020     		movs	r0, #0
  71              	.LVL3:
  72 000a 7047     		bx	lr
  73              		.cfi_endproc
  74              	.LFE111:
  75              		.size	BLINKER_Set, .-BLINKER_Set
  76              		.section	.text.BLINKER_Blink,"ax",%progbits
  77              		.align	1
  78              		.global	BLINKER_Blink
  79              		.thumb
  80              		.thumb_func
  81              		.type	BLINKER_Blink, %function
ARM GAS  C:\Users\Reza\AppData\Local\Temp\ccq3WVFj.s 			page 4


  82              	BLINKER_Blink:
  83              	.LFB112:
  90:source\asw/blinker.c **** 
  91:source\asw/blinker.c **** 
  92:source\asw/blinker.c **** /**
  93:source\asw/blinker.c ****  * Perform a blink and decrement blink counter
  94:source\asw/blinker.c ****  * @param BLINKER_t *const me   - blinker object
  95:source\asw/blinker.c ****  * @return RC_SUCCESS
  96:source\asw/blinker.c ****  */
  97:source\asw/blinker.c **** RC_t BLINKER_Blink(BLINKER_t *const me)
  98:source\asw/blinker.c **** {
  84              		.loc 1 98 0
  85              		.cfi_startproc
  86              		@ args = 0, pretend = 0, frame = 0
  87              		@ frame_needed = 0, uses_anonymous_args = 0
  88              	.LVL4:
  89 0000 F8B5     		push	{r3, r4, r5, r6, r7, lr}
  90              		.cfi_def_cfa_offset 24
  91              		.cfi_offset 3, -24
  92              		.cfi_offset 4, -20
  93              		.cfi_offset 5, -16
  94              		.cfi_offset 6, -12
  95              		.cfi_offset 7, -8
  96              		.cfi_offset 14, -4
  99:source\asw/blinker.c ****     LED_id_t led = LED_ALL;
 100:source\asw/blinker.c ****     SEVEN_id_t seven = SEVEN_0;
 101:source\asw/blinker.c ****     
 102:source\asw/blinker.c ****     switch (me->led)
  97              		.loc 1 102 0
  98 0002 0478     		ldrb	r4, [r0]	@ zero_extendqisi2
  98:source\asw/blinker.c ****     LED_id_t led = LED_ALL;
  99              		.loc 1 98 0
 100 0004 0546     		mov	r5, r0
 101              		.loc 1 102 0
 102 0006 34B1     		cbz	r4, .L6
 100:source\asw/blinker.c ****     
 103              		.loc 1 100 0
 104 0008 012C     		cmp	r4, #1
 105 000a 0BBF     		itete	eq
 106 000c 0124     		moveq	r4, #1
 107 000e 0024     		movne	r4, #0
 108 0010 0226     		moveq	r6, #2
 109 0012 0326     		movne	r6, #3
 110 0014 00E0     		b	.L5
 111              	.L6:
 112              	.LVL5:
 103:source\asw/blinker.c ****     {
 104:source\asw/blinker.c ****         case BLINKER_LEFT : 
 105:source\asw/blinker.c ****             led = LED_GREEN;
 106:source\asw/blinker.c ****             seven = SEVEN_1;
 107:source\asw/blinker.c ****             break;
 108:source\asw/blinker.c ****         case BLINKER_RIGHT : 
 109:source\asw/blinker.c ****             led = LED_RED;
 113              		.loc 1 109 0
 114 0016 2646     		mov	r6, r4
 115              	.LVL6:
 116              	.L5:
ARM GAS  C:\Users\Reza\AppData\Local\Temp\ccq3WVFj.s 			page 5


 110:source\asw/blinker.c ****             seven = SEVEN_0;
 111:source\asw/blinker.c ****             break;
 112:source\asw/blinker.c ****     }
 113:source\asw/blinker.c ****     
 114:source\asw/blinker.c ****     //normal operation
 115:source\asw/blinker.c ****     if (FALSE == me->emergency)
 117              		.loc 1 115 0
 118 0018 AB78     		ldrb	r3, [r5, #2]	@ zero_extendqisi2
 119 001a 9BB9     		cbnz	r3, .L8
 116:source\asw/blinker.c ****     {
 117:source\asw/blinker.c ****         if (me->remainingBlinks > 0)
 120              		.loc 1 117 0
 121 001c 6F78     		ldrb	r7, [r5, #1]	@ zero_extendqisi2
 122 001e 57B1     		cbz	r7, .L9
 118:source\asw/blinker.c ****         {
 119:source\asw/blinker.c ****             LED_Toggle(led); 
 123              		.loc 1 119 0
 124 0020 3046     		mov	r0, r6
 125              	.LVL7:
 126 0022 FFF7FEFF 		bl	LED_Toggle
 127              	.LVL8:
 120:source\asw/blinker.c ****             SEVEN_Set(seven, me->remainingBlinks);
 128              		.loc 1 120 0
 129 0026 6978     		ldrb	r1, [r5, #1]	@ zero_extendqisi2
 130 0028 2046     		mov	r0, r4
 131 002a FFF7FEFF 		bl	SEVEN_Set
 132              	.LVL9:
 121:source\asw/blinker.c ****             
 122:source\asw/blinker.c ****             me->remainingBlinks--;    
 133              		.loc 1 122 0
 134 002e 6B78     		ldrb	r3, [r5, #1]	@ zero_extendqisi2
 135 0030 013B     		subs	r3, r3, #1
 136 0032 6B70     		strb	r3, [r5, #1]
 137 0034 06E0     		b	.L8
 138              	.LVL10:
 139              	.L9:
 123:source\asw/blinker.c **** 
 124:source\asw/blinker.c ****         }
 125:source\asw/blinker.c ****         else    
 126:source\asw/blinker.c ****         {
 127:source\asw/blinker.c ****             //Robustness code, to make sure everything is turned off at the end of the sequence
 128:source\asw/blinker.c ****             SEVEN_Clear(seven);
 140              		.loc 1 128 0
 141 0036 2046     		mov	r0, r4
 142              	.LVL11:
 143 0038 FFF7FEFF 		bl	SEVEN_Clear
 144              	.LVL12:
 129:source\asw/blinker.c ****             LED_Set(led, LED_OFF);
 145              		.loc 1 129 0
 146 003c 3946     		mov	r1, r7
 147 003e 3046     		mov	r0, r6
 148 0040 FFF7FEFF 		bl	LED_Set
 149              	.LVL13:
 150              	.L8:
 130:source\asw/blinker.c ****         }
 131:source\asw/blinker.c ****     }
 132:source\asw/blinker.c ****     
ARM GAS  C:\Users\Reza\AppData\Local\Temp\ccq3WVFj.s 			page 6


 133:source\asw/blinker.c ****     
 134:source\asw/blinker.c ****     //Emergency
 135:source\asw/blinker.c ****     if (TRUE == me->emergency)
 151              		.loc 1 135 0
 152 0044 AB78     		ldrb	r3, [r5, #2]	@ zero_extendqisi2
 153 0046 012B     		cmp	r3, #1
 154 0048 08D1     		bne	.L10
 136:source\asw/blinker.c ****     {
 137:source\asw/blinker.c ****         LED_Toggle(led); 
 155              		.loc 1 137 0
 156 004a 3046     		mov	r0, r6
 157 004c FFF7FEFF 		bl	LED_Toggle
 158              	.LVL14:
 138:source\asw/blinker.c ****         SEVEN_Set(seven, 14); //E
 159              		.loc 1 138 0
 160 0050 2046     		mov	r0, r4
 139:source\asw/blinker.c ****     }
 140:source\asw/blinker.c **** }
 161              		.loc 1 140 0
 162 0052 BDE8F840 		pop	{r3, r4, r5, r6, r7, lr}
 163              		.cfi_remember_state
 164              		.cfi_restore 14
 165              		.cfi_restore 7
 166              		.cfi_restore 6
 167              		.cfi_restore 5
 168              		.cfi_restore 4
 169              		.cfi_restore 3
 170              		.cfi_def_cfa_offset 0
 171              	.LVL15:
 138:source\asw/blinker.c ****         SEVEN_Set(seven, 14); //E
 172              		.loc 1 138 0
 173 0056 0E21     		movs	r1, #14
 174 0058 FFF7FEBF 		b	SEVEN_Set
 175              	.LVL16:
 176              	.L10:
 177              		.cfi_restore_state
 178              		.loc 1 140 0
 179 005c F8BD     		pop	{r3, r4, r5, r6, r7, pc}
 180              		.cfi_endproc
 181              	.LFE112:
 182              		.size	BLINKER_Blink, .-BLINKER_Blink
 183              		.section	.text.BLINKER_Emergency,"ax",%progbits
 184              		.align	1
 185              		.global	BLINKER_Emergency
 186              		.thumb
 187              		.thumb_func
 188              		.type	BLINKER_Emergency, %function
 189              	BLINKER_Emergency:
 190              	.LFB113:
 141:source\asw/blinker.c ****     
 142:source\asw/blinker.c **** /**
 143:source\asw/blinker.c ****  * Perform a blink and decrement blink counter
 144:source\asw/blinker.c ****  * @param BLINKER_t *const me   - blinker object
 145:source\asw/blinker.c ****  * @return RC_SUCCESS
 146:source\asw/blinker.c ****  */
 147:source\asw/blinker.c **** RC_t BLINKER_Emergency(BLINKER_t *const left, BLINKER_t *const right)
 148:source\asw/blinker.c **** {
ARM GAS  C:\Users\Reza\AppData\Local\Temp\ccq3WVFj.s 			page 7


 191              		.loc 1 148 0
 192              		.cfi_startproc
 193              		@ args = 0, pretend = 0, frame = 0
 194              		@ frame_needed = 0, uses_anonymous_args = 0
 195              		@ link register save eliminated.
 196              	.LVL17:
 149:source\asw/blinker.c ****     left->emergency = TRUE;
 197              		.loc 1 149 0
 198 0000 0123     		movs	r3, #1
 199 0002 8370     		strb	r3, [r0, #2]
 150:source\asw/blinker.c ****     right->emergency = TRUE;
 200              		.loc 1 150 0
 201 0004 8B70     		strb	r3, [r1, #2]
 202              	.LVL18:
 151:source\asw/blinker.c **** }
 203              		.loc 1 151 0
 204 0006 7047     		bx	lr
 205              		.cfi_endproc
 206              	.LFE113:
 207              		.size	BLINKER_Emergency, .-BLINKER_Emergency
 208              		.global	BLINKER_right
 209              		.global	BLINKER_left
 210              		.data
 211              		.type	BLINKER_left, %object
 212              		.size	BLINKER_left, 3
 213              	BLINKER_left:
 214 0000 01       		.byte	1
 215 0001 00       		.byte	0
 216 0002 00       		.space	1
 217              		.bss
 218              		.type	BLINKER_right, %object
 219              		.size	BLINKER_right, 3
 220              	BLINKER_right:
 221 0000 000000   		.space	3
 222              		.text
 223              	.Letext0:
 224              		.file 2 "c:\\program files (x86)\\cypress\\psoc creator\\4.2\\psoc creator\\import\\gnu\\arm\\5.4.
 225              		.file 3 "c:\\program files (x86)\\cypress\\psoc creator\\4.2\\psoc creator\\import\\gnu\\arm\\5.4.
 226              		.file 4 "Generated_Source\\PSoC5/ErikaOS_1_common_ee_types.inc"
 227              		.file 5 "Generated_Source\\PSoC5/ErikaOS_1_cortex_mx_ee_cpu.inc"
 228              		.file 6 ".\\source\\bsw/global.h"
 229              		.file 7 "source\\asw\\blinker.h"
 230              		.file 8 ".\\source\\bsw/seven.h"
 231              		.file 9 ".\\source\\bsw/led.h"
 232              		.file 10 "Generated_Source\\PSoC5/ErikaOS_1_ee_oo_intfunc.inc"
 233              		.file 11 "Generated_Source\\PSoC5/ErikaOS_1_cortex_mx_ee_context.inc"
 234              		.file 12 "Generated_Source\\PSoC5/ErikaOS_1_common_ee_primitives.inc"
 235              		.file 13 "Generated_Source\\PSoC5/core_cm3.h"