ARM GAS  C:\Users\Reza\AppData\Local\Temp\ccmchOfa.s 			page 1


   1              		.syntax unified
   2              		.cpu cortex-m3
   3              		.fpu softvfp
   4              		.eabi_attribute 20, 1
   5              		.eabi_attribute 21, 1
   6              		.eabi_attribute 23, 3
   7              		.eabi_attribute 24, 1
   8              		.eabi_attribute 25, 1
   9              		.eabi_attribute 26, 1
  10              		.eabi_attribute 30, 4
  11              		.eabi_attribute 34, 1
  12              		.eabi_attribute 18, 4
  13              		.thumb
  14              		.syntax unified
  15              		.file	"button.c"
  16              		.text
  17              	.Ltext0:
  18              		.cfi_sections	.debug_frame
  19              		.section	.text.BUTTON_Init,"ax",%progbits
  20              		.align	1
  21              		.global	BUTTON_Init
  22              		.thumb
  23              		.thumb_func
  24              		.type	BUTTON_Init, %function
  25              	BUTTON_Init:
  26              	.LFB110:
  27              		.file 1 "source\\bsw\\button.c"
   1:source\bsw/button.c **** /**
   2:source\bsw/button.c **** * \file button.c
   3:source\bsw/button.c **** * \author P. Fromm
   4:source\bsw/button.c **** * \date 29.7.17
   5:source\bsw/button.c **** *
   6:source\bsw/button.c **** * \brief Simple button driver
   7:source\bsw/button.c **** *
   8:source\bsw/button.c **** * \copyright Copyright ©2016
   9:source\bsw/button.c **** * Department of electrical engineering and information technology, Hochschule Darmstadt - Universit
  10:source\bsw/button.c **** * Permission to use, copy, modify, and distribute this software and its documentation for education
  11:source\bsw/button.c **** * (unless permitted by h_da) and official h_da projects, is hereby granted for enrolled students of
  12:source\bsw/button.c **** * this paragraph and the following paragraph appear in all copies, modifications, and distributions
  13:source\bsw/button.c **** * Contact Prof.Dr.-Ing. Peter Fromm, peter.fromm@h-da.de, Birkenweg 8 64295 Darmstadt - GERMANY for
  14:source\bsw/button.c **** *
  15:source\bsw/button.c **** * \warning This software is a PROTOTYPE version and is not designed or intended for use in producti
  16:source\bsw/button.c **** * The user represents and warrants that it will NOT use or redistribute the Software for such purpo
  17:source\bsw/button.c **** * This prototype is for research purposes only. This software is provided "AS IS," without a warran
  18:source\bsw/button.c **** */
  19:source\bsw/button.c **** 
  20:source\bsw/button.c **** /*****************************************************************************/
  21:source\bsw/button.c **** /* Include files                                                             */
  22:source\bsw/button.c **** /*****************************************************************************/
  23:source\bsw/button.c **** #include "project.h"
  24:source\bsw/button.c **** #include "button.h"
  25:source\bsw/button.c **** 
  26:source\bsw/button.c **** #include "button_1.h"
  27:source\bsw/button.c **** #include "button_2.h"
  28:source\bsw/button.c **** #include "button_3.h"
  29:source\bsw/button.c **** #include "button_4.h"
  30:source\bsw/button.c **** 
ARM GAS  C:\Users\Reza\AppData\Local\Temp\ccmchOfa.s 			page 2


  31:source\bsw/button.c **** 
  32:source\bsw/button.c **** /*****************************************************************************/
  33:source\bsw/button.c **** /* Local pre-processor symbols/macros ('#define')                            */
  34:source\bsw/button.c **** /*****************************************************************************/
  35:source\bsw/button.c **** 
  36:source\bsw/button.c **** /*****************************************************************************/
  37:source\bsw/button.c **** /* Global variable definitions (declared in header file with 'extern')       */
  38:source\bsw/button.c **** /*****************************************************************************/
  39:source\bsw/button.c **** 
  40:source\bsw/button.c **** /*****************************************************************************/
  41:source\bsw/button.c **** /* Local type definitions ('typedef')                                        */
  42:source\bsw/button.c **** /*****************************************************************************/
  43:source\bsw/button.c **** 
  44:source\bsw/button.c **** /*****************************************************************************/
  45:source\bsw/button.c **** /* Local variable definitions ('static')                                     */
  46:source\bsw/button.c **** /*****************************************************************************/
  47:source\bsw/button.c **** 
  48:source\bsw/button.c **** 
  49:source\bsw/button.c **** 
  50:source\bsw/button.c **** /*****************************************************************************/
  51:source\bsw/button.c **** /* Local function prototypes ('static')                                      */
  52:source\bsw/button.c **** /*****************************************************************************/
  53:source\bsw/button.c **** 
  54:source\bsw/button.c **** 
  55:source\bsw/button.c **** /*****************************************************************************/
  56:source\bsw/button.c **** /* Function implementation - global ('extern') and local ('static')          */
  57:source\bsw/button.c **** /*****************************************************************************/
  58:source\bsw/button.c **** 
  59:source\bsw/button.c **** /**
  60:source\bsw/button.c ****  * Initialize Button
  61:source\bsw/button.c ****  * @return RC_SUCCESS if ok
  62:source\bsw/button.c ****  */
  63:source\bsw/button.c **** RC_t BUTTON_Init(cyisraddress address)
  64:source\bsw/button.c **** {
  28              		.loc 1 64 0
  29              		.cfi_startproc
  30              		@ args = 0, pretend = 0, frame = 0
  31              		@ frame_needed = 0, uses_anonymous_args = 0
  32              	.LVL0:
  33 0000 08B5     		push	{r3, lr}
  34              		.cfi_def_cfa_offset 8
  35              		.cfi_offset 3, -8
  36              		.cfi_offset 14, -4
  65:source\bsw/button.c ****  
  66:source\bsw/button.c ****     if (address != 0)
  37              		.loc 1 66 0
  38 0002 08B1     		cbz	r0, .L2
  67:source\bsw/button.c ****     {
  68:source\bsw/button.c ****         isr_Button_StartEx(address);
  39              		.loc 1 68 0
  40 0004 FFF7FEFF 		bl	isr_Button_StartEx
  41              	.LVL1:
  42              	.L2:
  69:source\bsw/button.c ****     }
  70:source\bsw/button.c ****     
  71:source\bsw/button.c ****     return RC_SUCCESS;
  72:source\bsw/button.c **** }
ARM GAS  C:\Users\Reza\AppData\Local\Temp\ccmchOfa.s 			page 3


  43              		.loc 1 72 0
  44 0008 0020     		movs	r0, #0
  45 000a 08BD     		pop	{r3, pc}
  46              		.cfi_endproc
  47              	.LFE110:
  48              		.size	BUTTON_Init, .-BUTTON_Init
  49              		.section	.text.BUTTON_IsPressed,"ax",%progbits
  50              		.align	1
  51              		.global	BUTTON_IsPressed
  52              		.thumb
  53              		.thumb_func
  54              		.type	BUTTON_IsPressed, %function
  55              	BUTTON_IsPressed:
  56              	.LFB111:
  73:source\bsw/button.c **** 
  74:source\bsw/button.c **** /**
  75:source\bsw/button.c ****  * Initialize Button
  76:source\bsw/button.c ****  * @param BUTTON_id_t button - check if the corresponding button is pressed
  77:source\bsw/button.c ****  * @return TRUE if button is pressed
  78:source\bsw/button.c ****  */
  79:source\bsw/button.c **** boolean_t BUTTON_IsPressed(BUTTON_id_t button)
  80:source\bsw/button.c **** {
  57              		.loc 1 80 0
  58              		.cfi_startproc
  59              		@ args = 0, pretend = 0, frame = 0
  60              		@ frame_needed = 0, uses_anonymous_args = 0
  61              	.LVL2:
  62 0000 08B5     		push	{r3, lr}
  63              		.cfi_def_cfa_offset 8
  64              		.cfi_offset 3, -8
  65              		.cfi_offset 14, -4
  81:source\bsw/button.c ****     boolean_t result = FALSE;
  82:source\bsw/button.c ****     
  83:source\bsw/button.c ****     switch (button)
  66              		.loc 1 83 0
  67 0002 0328     		cmp	r0, #3
  68 0004 12D8     		bhi	.L14
  69 0006 DFE800F0 		tbb	[pc, r0]
  70              	.L10:
  71 000a 02       		.byte	(.L9-.L10)/2
  72 000b 05       		.byte	(.L11-.L10)/2
  73 000c 08       		.byte	(.L12-.L10)/2
  74 000d 0B       		.byte	(.L13-.L10)/2
  75              		.p2align 1
  76              	.L9:
  84:source\bsw/button.c ****     {
  85:source\bsw/button.c ****         case BUTTON_1 : if (BUTTON_1_Read() == 1) result = TRUE; break;
  77              		.loc 1 85 0
  78 000e FFF7FEFF 		bl	BUTTON_1_Read
  79              	.LVL3:
  80 0012 07E0     		b	.L15
  81              	.LVL4:
  82              	.L11:
  86:source\bsw/button.c ****         case BUTTON_2 : if (BUTTON_2_Read() == 1) result = TRUE; break;
  83              		.loc 1 86 0
  84 0014 FFF7FEFF 		bl	BUTTON_2_Read
  85              	.LVL5:
ARM GAS  C:\Users\Reza\AppData\Local\Temp\ccmchOfa.s 			page 4


  86 0018 04E0     		b	.L15
  87              	.LVL6:
  88              	.L12:
  87:source\bsw/button.c ****         case BUTTON_3 : if (BUTTON_3_Read() == 1) result = TRUE; break;
  89              		.loc 1 87 0
  90 001a FFF7FEFF 		bl	BUTTON_3_Read
  91              	.LVL7:
  92 001e 01E0     		b	.L15
  93              	.LVL8:
  94              	.L13:
  88:source\bsw/button.c ****         case BUTTON_4 : if (BUTTON_4_Read() == 1) result = TRUE; break;
  95              		.loc 1 88 0
  96 0020 FFF7FEFF 		bl	BUTTON_4_Read
  97              	.LVL9:
  98              	.L15:
  81:source\bsw/button.c ****     
  99              		.loc 1 81 0
 100 0024 431E     		subs	r3, r0, #1
 101 0026 5842     		rsbs	r0, r3, #0
 102 0028 5841     		adcs	r0, r0, r3
 103 002a 08BD     		pop	{r3, pc}
 104              	.LVL10:
 105              	.L14:
 106 002c 0020     		movs	r0, #0
 107              	.LVL11:
  89:source\bsw/button.c ****     }
  90:source\bsw/button.c ****     
  91:source\bsw/button.c ****     return result;
  92:source\bsw/button.c **** }
 108              		.loc 1 92 0
 109 002e 08BD     		pop	{r3, pc}
 110              		.cfi_endproc
 111              	.LFE111:
 112              		.size	BUTTON_IsPressed, .-BUTTON_IsPressed
 113              		.text
 114              	.Letext0:
 115              		.file 2 "c:\\program files (x86)\\cypress\\psoc creator\\4.2\\psoc creator\\import\\gnu\\arm\\5.4.
 116              		.file 3 "c:\\program files (x86)\\cypress\\psoc creator\\4.2\\psoc creator\\import\\gnu\\arm\\5.4.
 117              		.file 4 "Generated_Source\\PSoC5/cytypes.h"
 118              		.file 5 "Generated_Source\\PSoC5/ErikaOS_1_common_ee_types.inc"
 119              		.file 6 "Generated_Source\\PSoC5/ErikaOS_1_cortex_mx_ee_cpu.inc"
 120              		.file 7 "source\\bsw\\global.h"
 121              		.file 8 "source\\bsw\\button.h"
 122              		.file 9 "Generated_Source\\PSoC5/ErikaOS_1_ee_oo_intfunc.inc"
 123              		.file 10 "Generated_Source\\PSoC5/ErikaOS_1_cortex_mx_ee_context.inc"
 124              		.file 11 "Generated_Source\\PSoC5/ErikaOS_1_common_ee_primitives.inc"
 125              		.file 12 "Generated_Source\\PSoC5/core_cm3.h"
 126              		.file 13 "Generated_Source\\PSoC5/isr_Button.h"
 127              		.file 14 "Generated_Source\\PSoC5/BUTTON_1.h"
 128              		.file 15 "Generated_Source\\PSoC5/BUTTON_2.h"
 129              		.file 16 "Generated_Source\\PSoC5/BUTTON_3.h"
 130              		.file 17 "Generated_Source\\PSoC5/BUTTON_4.h"