ARM GAS  C:\Users\Reza\AppData\Local\Temp\cchq54cM.s 			page 1


   1              		.syntax unified
   2              		.cpu cortex-m3
   3              		.fpu softvfp
   4              		.eabi_attribute 20, 1
   5              		.eabi_attribute 21, 1
   6              		.eabi_attribute 23, 3
   7              		.eabi_attribute 24, 1
   8              		.eabi_attribute 25, 1
   9              		.eabi_attribute 26, 1
  10              		.eabi_attribute 30, 4
  11              		.eabi_attribute 34, 1
  12              		.eabi_attribute 18, 4
  13              		.thumb
  14              		.syntax unified
  15              		.file	"ErikaOS_1_ee_startos.c"
  16              		.text
  17              	.Ltext0:
  18              		.cfi_sections	.debug_frame
  19              		.section	.text.EE_oo_StartOS,"ax",%progbits
  20              		.align	1
  21              		.global	EE_oo_StartOS
  22              		.thumb
  23              		.thumb_func
  24              		.type	EE_oo_StartOS, %function
  25              	EE_oo_StartOS:
  26              	.LFB75:
  27              		.file 1 "Generated_Source\\PSoC5\\ErikaOS_1_ee_startos.c"
   1:Generated_Source\PSoC5/ErikaOS_1_ee_startos.c **** /* ###*B*###
   2:Generated_Source\PSoC5/ErikaOS_1_ee_startos.c ****  * ERIKA Enterprise - a tiny RTOS for small microcontrollers
   3:Generated_Source\PSoC5/ErikaOS_1_ee_startos.c ****  *
   4:Generated_Source\PSoC5/ErikaOS_1_ee_startos.c ****  * Copyright (C) 2002-2008  Evidence Srl
   5:Generated_Source\PSoC5/ErikaOS_1_ee_startos.c ****  *
   6:Generated_Source\PSoC5/ErikaOS_1_ee_startos.c ****  * This file is part of ERIKA Enterprise.
   7:Generated_Source\PSoC5/ErikaOS_1_ee_startos.c ****  *
   8:Generated_Source\PSoC5/ErikaOS_1_ee_startos.c ****  * ERIKA Enterprise is free software; you can redistribute it
   9:Generated_Source\PSoC5/ErikaOS_1_ee_startos.c ****  * and/or modify it under the terms of the GNU General Public License
  10:Generated_Source\PSoC5/ErikaOS_1_ee_startos.c ****  * version 2 as published by the Free Software Foundation, 
  11:Generated_Source\PSoC5/ErikaOS_1_ee_startos.c ****  * (with a special exception described below).
  12:Generated_Source\PSoC5/ErikaOS_1_ee_startos.c ****  *
  13:Generated_Source\PSoC5/ErikaOS_1_ee_startos.c ****  * Linking this code statically or dynamically with other modules is
  14:Generated_Source\PSoC5/ErikaOS_1_ee_startos.c ****  * making a combined work based on this code.  Thus, the terms and
  15:Generated_Source\PSoC5/ErikaOS_1_ee_startos.c ****  * conditions of the GNU General Public License cover the whole
  16:Generated_Source\PSoC5/ErikaOS_1_ee_startos.c ****  * combination.
  17:Generated_Source\PSoC5/ErikaOS_1_ee_startos.c ****  *
  18:Generated_Source\PSoC5/ErikaOS_1_ee_startos.c ****  * As a special exception, the copyright holders of this library give you
  19:Generated_Source\PSoC5/ErikaOS_1_ee_startos.c ****  * permission to link this code with independent modules to produce an
  20:Generated_Source\PSoC5/ErikaOS_1_ee_startos.c ****  * executable, regardless of the license terms of these independent
  21:Generated_Source\PSoC5/ErikaOS_1_ee_startos.c ****  * modules, and to copy and distribute the resulting executable under
  22:Generated_Source\PSoC5/ErikaOS_1_ee_startos.c ****  * terms of your choice, provided that you also meet, for each linked
  23:Generated_Source\PSoC5/ErikaOS_1_ee_startos.c ****  * independent module, the terms and conditions of the license of that
  24:Generated_Source\PSoC5/ErikaOS_1_ee_startos.c ****  * module.  An independent module is a module which is not derived from
  25:Generated_Source\PSoC5/ErikaOS_1_ee_startos.c ****  * or based on this library.  If you modify this code, you may extend
  26:Generated_Source\PSoC5/ErikaOS_1_ee_startos.c ****  * this exception to your version of the code, but you are not
  27:Generated_Source\PSoC5/ErikaOS_1_ee_startos.c ****  * obligated to do so.  If you do not wish to do so, delete this
  28:Generated_Source\PSoC5/ErikaOS_1_ee_startos.c ****  * exception statement from your version.
  29:Generated_Source\PSoC5/ErikaOS_1_ee_startos.c ****  *
  30:Generated_Source\PSoC5/ErikaOS_1_ee_startos.c ****  * ERIKA Enterprise is distributed in the hope that it will be
ARM GAS  C:\Users\Reza\AppData\Local\Temp\cchq54cM.s 			page 2


  31:Generated_Source\PSoC5/ErikaOS_1_ee_startos.c ****  * useful, but WITHOUT ANY WARRANTY; without even the implied warranty
  32:Generated_Source\PSoC5/ErikaOS_1_ee_startos.c ****  * of MERCHANTABILITY or FITNESS FOR A PARTICULAR PURPOSE.  See the
  33:Generated_Source\PSoC5/ErikaOS_1_ee_startos.c ****  * GNU General Public License version 2 for more details.
  34:Generated_Source\PSoC5/ErikaOS_1_ee_startos.c ****  *
  35:Generated_Source\PSoC5/ErikaOS_1_ee_startos.c ****  * You should have received a copy of the GNU General Public License
  36:Generated_Source\PSoC5/ErikaOS_1_ee_startos.c ****  * version 2 along with ERIKA Enterprise; if not, write to the
  37:Generated_Source\PSoC5/ErikaOS_1_ee_startos.c ****  * Free Software Foundation, Inc., 51 Franklin Street, Fifth Floor,
  38:Generated_Source\PSoC5/ErikaOS_1_ee_startos.c ****  * Boston, MA 02110-1301 USA.
  39:Generated_Source\PSoC5/ErikaOS_1_ee_startos.c ****  * ###*E*### */
  40:Generated_Source\PSoC5/ErikaOS_1_ee_startos.c **** 
  41:Generated_Source\PSoC5/ErikaOS_1_ee_startos.c **** /*
  42:Generated_Source\PSoC5/ErikaOS_1_ee_startos.c ****  * Author: 2002-2004 Paolo Gai
  43:Generated_Source\PSoC5/ErikaOS_1_ee_startos.c ****  * CVS: $Id: ee_startos.c,v 1.5 2006/12/03 22:07:50 pj Exp $
  44:Generated_Source\PSoC5/ErikaOS_1_ee_startos.c ****  */
  45:Generated_Source\PSoC5/ErikaOS_1_ee_startos.c **** 
  46:Generated_Source\PSoC5/ErikaOS_1_ee_startos.c **** /*
  47:Generated_Source\PSoC5/ErikaOS_1_ee_startos.c ****  * PSoC Port and API Generation
  48:Generated_Source\PSoC5/ErikaOS_1_ee_startos.c ****  * Carlos Fernando Meier Martinez
  49:Generated_Source\PSoC5/ErikaOS_1_ee_startos.c ****  * Hochschule Darmstadt, Germany. 2017.
  50:Generated_Source\PSoC5/ErikaOS_1_ee_startos.c ****  */
  51:Generated_Source\PSoC5/ErikaOS_1_ee_startos.c **** #include "ErikaOS_1_ee_tracing.h"
  52:Generated_Source\PSoC5/ErikaOS_1_ee_startos.c **** 
  53:Generated_Source\PSoC5/ErikaOS_1_ee_startos.c **** #include "ErikaOS_1_ee_internal.inc"
  54:Generated_Source\PSoC5/ErikaOS_1_ee_startos.c **** 
  55:Generated_Source\PSoC5/ErikaOS_1_ee_startos.c **** #if (__OO_configUSE_TRACE_FACILITY == 1)
  56:Generated_Source\PSoC5/ErikaOS_1_ee_startos.c **** #include "trcKernelPort.h" 
  57:Generated_Source\PSoC5/ErikaOS_1_ee_startos.c **** static void EE_oo_creatTaskInfo(void);
  58:Generated_Source\PSoC5/ErikaOS_1_ee_startos.c **** #endif
  59:Generated_Source\PSoC5/ErikaOS_1_ee_startos.c **** 
  60:Generated_Source\PSoC5/ErikaOS_1_ee_startos.c **** #if (__OO_configUSE_TRACE_FACILITY == 1)
  61:Generated_Source\PSoC5/ErikaOS_1_ee_startos.c **** static void EE_oo_creatTaskInfo(void)
  62:Generated_Source\PSoC5/ErikaOS_1_ee_startos.c **** {
  63:Generated_Source\PSoC5/ErikaOS_1_ee_startos.c ****     for(int i=0;i< EE_MAX_TASK; i++)
  64:Generated_Source\PSoC5/ErikaOS_1_ee_startos.c ****     {
  65:Generated_Source\PSoC5/ErikaOS_1_ee_startos.c ****         traceTASK_CREATE(i, EE_TASK_NAME[i], EE_th_ready_prio[i]);
  66:Generated_Source\PSoC5/ErikaOS_1_ee_startos.c ****     }
  67:Generated_Source\PSoC5/ErikaOS_1_ee_startos.c ****     for(int i=0;i< EE_MAX_ALARM; i++)
  68:Generated_Source\PSoC5/ErikaOS_1_ee_startos.c ****     {
  69:Generated_Source\PSoC5/ErikaOS_1_ee_startos.c ****         traceALARM_CREATE(EE_ALARM_ID[i], EE_ALARM_NAME[i], 0x55);
  70:Generated_Source\PSoC5/ErikaOS_1_ee_startos.c ****     }
  71:Generated_Source\PSoC5/ErikaOS_1_ee_startos.c **** #ifdef EE_MAX_RESOURCE
  72:Generated_Source\PSoC5/ErikaOS_1_ee_startos.c ****     for(int i=0;i< EE_MAX_RESOURCE; i++)
  73:Generated_Source\PSoC5/ErikaOS_1_ee_startos.c ****     {
  74:Generated_Source\PSoC5/ErikaOS_1_ee_startos.c ****         traceRESOURCE_CREATE(EE_RESOURCE_ID[i], EE_RESOURCE_NAME[i], 0x55);
  75:Generated_Source\PSoC5/ErikaOS_1_ee_startos.c ****     }
  76:Generated_Source\PSoC5/ErikaOS_1_ee_startos.c **** #if (RES1 == 1)
  77:Generated_Source\PSoC5/ErikaOS_1_ee_startos.c ****     traceRESOURCE_CREATE(RES_SCHEDULER, "Scheduler", 0x55);
  78:Generated_Source\PSoC5/ErikaOS_1_ee_startos.c **** #endif
  79:Generated_Source\PSoC5/ErikaOS_1_ee_startos.c **** #endif
  80:Generated_Source\PSoC5/ErikaOS_1_ee_startos.c **** }
  81:Generated_Source\PSoC5/ErikaOS_1_ee_startos.c **** #endif
  82:Generated_Source\PSoC5/ErikaOS_1_ee_startos.c **** 
  83:Generated_Source\PSoC5/ErikaOS_1_ee_startos.c **** /*
  84:Generated_Source\PSoC5/ErikaOS_1_ee_startos.c ****  * ORTI variables
  85:Generated_Source\PSoC5/ErikaOS_1_ee_startos.c ****  */
  86:Generated_Source\PSoC5/ErikaOS_1_ee_startos.c **** #if (defined(RTDRUID_CONFIGURATOR_NUMBER))				\
  87:Generated_Source\PSoC5/ErikaOS_1_ee_startos.c ****  && (RTDRUID_CONFIGURATOR_NUMBER >= RTDRUID_CONFNUM_NO_ORTI_VARS)
ARM GAS  C:\Users\Reza\AppData\Local\Temp\cchq54cM.s 			page 3


  88:Generated_Source\PSoC5/ErikaOS_1_ee_startos.c **** 
  89:Generated_Source\PSoC5/ErikaOS_1_ee_startos.c **** #ifdef __OO_ORTI_SERVICETRACE__
  90:Generated_Source\PSoC5/ErikaOS_1_ee_startos.c **** /* This shall belong to ee_api_bss the section mapping is done inside header
  91:Generated_Source\PSoC5/ErikaOS_1_ee_startos.c ****    file to be portable to DIAB compiler */
  92:Generated_Source\PSoC5/ErikaOS_1_ee_startos.c **** volatile EE_UINT8 EE_ORTI_servicetrace;
  93:Generated_Source\PSoC5/ErikaOS_1_ee_startos.c **** #endif /* __OO_ORTI_SERVICETRACE__ */
  94:Generated_Source\PSoC5/ErikaOS_1_ee_startos.c **** 
  95:Generated_Source\PSoC5/ErikaOS_1_ee_startos.c **** #ifdef __OO_ORTI_LASTERROR__
  96:Generated_Source\PSoC5/ErikaOS_1_ee_startos.c **** StatusType EE_ORTI_lasterror;
  97:Generated_Source\PSoC5/ErikaOS_1_ee_startos.c **** #endif /* __OO_ORTI_LASTERROR__ */
  98:Generated_Source\PSoC5/ErikaOS_1_ee_startos.c **** 
  99:Generated_Source\PSoC5/ErikaOS_1_ee_startos.c **** /* If MemMap.inc support is enabled (i.e. because memory protection): use it */
 100:Generated_Source\PSoC5/ErikaOS_1_ee_startos.c **** #ifdef EE_SUPPORT_MEMMAP_H
 101:Generated_Source\PSoC5/ErikaOS_1_ee_startos.c **** /* Put the following code in ee_kernel_text */
 102:Generated_Source\PSoC5/ErikaOS_1_ee_startos.c **** #define OS_START_SEC_CODE
 103:Generated_Source\PSoC5/ErikaOS_1_ee_startos.c **** /* Put the following variables in ee_kernel_bss, needed for EE_oo_start_os */
 104:Generated_Source\PSoC5/ErikaOS_1_ee_startos.c **** #define OS_START_SEC_VAR_NOINIT
 105:Generated_Source\PSoC5/ErikaOS_1_ee_startos.c **** #include "MemMap.inc"
 106:Generated_Source\PSoC5/ErikaOS_1_ee_startos.c **** #endif /* EE_SUPPORT_MEMMAP_H */
 107:Generated_Source\PSoC5/ErikaOS_1_ee_startos.c **** 
 108:Generated_Source\PSoC5/ErikaOS_1_ee_startos.c **** #ifdef __OO_ORTI_PRIORITY__
 109:Generated_Source\PSoC5/ErikaOS_1_ee_startos.c **** EE_TYPEPRIO EE_ORTI_th_priority[EE_MAX_TASK];
 110:Generated_Source\PSoC5/ErikaOS_1_ee_startos.c **** #endif /* __OO_ORTI_PRIORITY__ */
 111:Generated_Source\PSoC5/ErikaOS_1_ee_startos.c **** 
 112:Generated_Source\PSoC5/ErikaOS_1_ee_startos.c **** #endif /* RTDRUID_CONFIGURATOR_NUMBER */
 113:Generated_Source\PSoC5/ErikaOS_1_ee_startos.c **** 
 114:Generated_Source\PSoC5/ErikaOS_1_ee_startos.c **** #ifdef __OO_ORTI_RUNNINGISR2__
 115:Generated_Source\PSoC5/ErikaOS_1_ee_startos.c **** volatile EE_ORTI_runningisr2_type EE_ORTI_runningisr2;
 116:Generated_Source\PSoC5/ErikaOS_1_ee_startos.c **** #endif /* __OO_ORTI_RUNNINGISR2__ */
 117:Generated_Source\PSoC5/ErikaOS_1_ee_startos.c **** 
 118:Generated_Source\PSoC5/ErikaOS_1_ee_startos.c **** 
 119:Generated_Source\PSoC5/ErikaOS_1_ee_startos.c **** 
 120:Generated_Source\PSoC5/ErikaOS_1_ee_startos.c **** 
 121:Generated_Source\PSoC5/ErikaOS_1_ee_startos.c **** 
 122:Generated_Source\PSoC5/ErikaOS_1_ee_startos.c **** /* StartOS
 123:Generated_Source\PSoC5/ErikaOS_1_ee_startos.c **** 
 124:Generated_Source\PSoC5/ErikaOS_1_ee_startos.c ****   - called to start the operating system in a specific Application
 125:Generated_Source\PSoC5/ErikaOS_1_ee_startos.c ****     mode
 126:Generated_Source\PSoC5/ErikaOS_1_ee_startos.c ****   - it does not need to return to the caller
 127:Generated_Source\PSoC5/ErikaOS_1_ee_startos.c **** */
 128:Generated_Source\PSoC5/ErikaOS_1_ee_startos.c **** #ifndef __PRIVATE_STARTOS__
 129:Generated_Source\PSoC5/ErikaOS_1_ee_startos.c **** 
 130:Generated_Source\PSoC5/ErikaOS_1_ee_startos.c **** #ifdef __OO_AUTOSTART_TASK__
 131:Generated_Source\PSoC5/ErikaOS_1_ee_startos.c **** 
 132:Generated_Source\PSoC5/ErikaOS_1_ee_startos.c **** static EE_TID compute_task_tid(const EE_TID task_id_vec[], EE_UREG t);
 133:Generated_Source\PSoC5/ErikaOS_1_ee_startos.c **** static void EE_oo_autostart_tasks(AppModeType Mode);
 134:Generated_Source\PSoC5/ErikaOS_1_ee_startos.c **** 
 135:Generated_Source\PSoC5/ErikaOS_1_ee_startos.c ****   
 136:Generated_Source\PSoC5/ErikaOS_1_ee_startos.c **** static EE_TID compute_task_tid(const EE_TID task_id_vec[], EE_UREG t)
 137:Generated_Source\PSoC5/ErikaOS_1_ee_startos.c **** {
 138:Generated_Source\PSoC5/ErikaOS_1_ee_startos.c ****   EE_TID res = EE_NIL;
 139:Generated_Source\PSoC5/ErikaOS_1_ee_startos.c **** 
 140:Generated_Source\PSoC5/ErikaOS_1_ee_startos.c ****   if ( task_id_vec != NULL ) {
 141:Generated_Source\PSoC5/ErikaOS_1_ee_startos.c ****     res = task_id_vec[t];
 142:Generated_Source\PSoC5/ErikaOS_1_ee_startos.c ****   }
 143:Generated_Source\PSoC5/ErikaOS_1_ee_startos.c **** 
 144:Generated_Source\PSoC5/ErikaOS_1_ee_startos.c ****   return res;
ARM GAS  C:\Users\Reza\AppData\Local\Temp\cchq54cM.s 			page 4


 145:Generated_Source\PSoC5/ErikaOS_1_ee_startos.c **** }
 146:Generated_Source\PSoC5/ErikaOS_1_ee_startos.c **** 
 147:Generated_Source\PSoC5/ErikaOS_1_ee_startos.c **** static void EE_oo_autostart_tasks(AppModeType Mode)
 148:Generated_Source\PSoC5/ErikaOS_1_ee_startos.c **** {
 149:Generated_Source\PSoC5/ErikaOS_1_ee_startos.c ****   register EE_UREG ntask, t;
 150:Generated_Source\PSoC5/ErikaOS_1_ee_startos.c ****   ntask = EE_oo_autostart_task_data[Mode].nt;
 151:Generated_Source\PSoC5/ErikaOS_1_ee_startos.c ****   for ( t = 0U; t < ntask; t++ ) {
 152:Generated_Source\PSoC5/ErikaOS_1_ee_startos.c ****     /* Insert the TID in Ready Queue */
 153:Generated_Source\PSoC5/ErikaOS_1_ee_startos.c ****     EE_TID tid = compute_task_tid(*EE_oo_autostart_task_data[Mode].task, t);
 154:Generated_Source\PSoC5/ErikaOS_1_ee_startos.c ****     EE_oo_task_in_ready_queue(tid);
 155:Generated_Source\PSoC5/ErikaOS_1_ee_startos.c ****   }
 156:Generated_Source\PSoC5/ErikaOS_1_ee_startos.c **** }
 157:Generated_Source\PSoC5/ErikaOS_1_ee_startos.c **** #else /* __OO_AUTOSTART_TASK__ */
 158:Generated_Source\PSoC5/ErikaOS_1_ee_startos.c **** #define EE_oo_autostart_tasks(Mode)     ((void)0)
 159:Generated_Source\PSoC5/ErikaOS_1_ee_startos.c **** #endif /* __OO_AUTOSTART_TASK__ */
 160:Generated_Source\PSoC5/ErikaOS_1_ee_startos.c **** 
 161:Generated_Source\PSoC5/ErikaOS_1_ee_startos.c **** #ifdef __OO_AUTOSTART_ALARM__
 162:Generated_Source\PSoC5/ErikaOS_1_ee_startos.c **** 
 163:Generated_Source\PSoC5/ErikaOS_1_ee_startos.c **** static EE_TYPEALARM compute_alarm_id(const EE_TYPEALARM alarm_id_vec[],
 164:Generated_Source\PSoC5/ErikaOS_1_ee_startos.c **** 				     EE_UREG t);
 165:Generated_Source\PSoC5/ErikaOS_1_ee_startos.c **** 
 166:Generated_Source\PSoC5/ErikaOS_1_ee_startos.c **** static void  EE_oo_autostart_alarms(AppModeType Mode);
 167:Generated_Source\PSoC5/ErikaOS_1_ee_startos.c **** 
 168:Generated_Source\PSoC5/ErikaOS_1_ee_startos.c **** static EE_TYPEALARM compute_alarm_id(const EE_TYPEALARM alarm_id_vec[],
 169:Generated_Source\PSoC5/ErikaOS_1_ee_startos.c ****   EE_UREG t)
 170:Generated_Source\PSoC5/ErikaOS_1_ee_startos.c **** {
 171:Generated_Source\PSoC5/ErikaOS_1_ee_startos.c ****   EE_TYPEALARM res = (EE_TYPEALARM)EE_NIL;
 172:Generated_Source\PSoC5/ErikaOS_1_ee_startos.c **** 
 173:Generated_Source\PSoC5/ErikaOS_1_ee_startos.c ****   if ( alarm_id_vec != NULL ) {
 174:Generated_Source\PSoC5/ErikaOS_1_ee_startos.c ****     res = alarm_id_vec[t];
 175:Generated_Source\PSoC5/ErikaOS_1_ee_startos.c ****   }
 176:Generated_Source\PSoC5/ErikaOS_1_ee_startos.c **** 
 177:Generated_Source\PSoC5/ErikaOS_1_ee_startos.c ****   return res;
 178:Generated_Source\PSoC5/ErikaOS_1_ee_startos.c **** }
 179:Generated_Source\PSoC5/ErikaOS_1_ee_startos.c **** 
 180:Generated_Source\PSoC5/ErikaOS_1_ee_startos.c **** static void  EE_oo_autostart_alarms(AppModeType Mode)
 181:Generated_Source\PSoC5/ErikaOS_1_ee_startos.c **** {
 182:Generated_Source\PSoC5/ErikaOS_1_ee_startos.c ****   register EE_UREG nalarm, t;
 183:Generated_Source\PSoC5/ErikaOS_1_ee_startos.c ****   nalarm = EE_oo_autostart_alarm_data[Mode].na;
 184:Generated_Source\PSoC5/ErikaOS_1_ee_startos.c ****   for ( t = 0U; t < nalarm; t++ ) {
 185:Generated_Source\PSoC5/ErikaOS_1_ee_startos.c ****     EE_TYPEALARM alarm_temp = compute_alarm_id(
 186:Generated_Source\PSoC5/ErikaOS_1_ee_startos.c ****       *EE_oo_autostart_alarm_data[Mode].alarm, t);
 187:Generated_Source\PSoC5/ErikaOS_1_ee_startos.c ****     EE_oo_handle_rel_counter_object_insertion(alarm_temp,
 188:Generated_Source\PSoC5/ErikaOS_1_ee_startos.c ****       EE_oo_autostart_alarm_increment[alarm_temp],
 189:Generated_Source\PSoC5/ErikaOS_1_ee_startos.c ****       EE_oo_autostart_alarm_cycle[alarm_temp]);
 190:Generated_Source\PSoC5/ErikaOS_1_ee_startos.c ****   }
 191:Generated_Source\PSoC5/ErikaOS_1_ee_startos.c **** }
 192:Generated_Source\PSoC5/ErikaOS_1_ee_startos.c **** #else   /* __OO_AUTOSTART_ALARM__ */
 193:Generated_Source\PSoC5/ErikaOS_1_ee_startos.c **** #define EE_oo_autostart_alarms(Mode)    ((void)0)
 194:Generated_Source\PSoC5/ErikaOS_1_ee_startos.c **** #endif  /* __OO_AUTOSTART_ALARM__ */
 195:Generated_Source\PSoC5/ErikaOS_1_ee_startos.c **** 
 196:Generated_Source\PSoC5/ErikaOS_1_ee_startos.c **** #ifdef EE_AS_AUTOSTART_SCHEDULETABLE__
 197:Generated_Source\PSoC5/ErikaOS_1_ee_startos.c **** 
 198:Generated_Source\PSoC5/ErikaOS_1_ee_startos.c **** static const EE_as_schedule_table_autostart_data *
 199:Generated_Source\PSoC5/ErikaOS_1_ee_startos.c ****   get_schedule_table_autostart_data ( const EE_as_schedule_table_autostart_data
 200:Generated_Source\PSoC5/ErikaOS_1_ee_startos.c ****     scheduletable_data[], EE_UREG t )
 201:Generated_Source\PSoC5/ErikaOS_1_ee_startos.c **** {
ARM GAS  C:\Users\Reza\AppData\Local\Temp\cchq54cM.s 			page 5


 202:Generated_Source\PSoC5/ErikaOS_1_ee_startos.c ****   const EE_as_schedule_table_autostart_data * res = NULL;
 203:Generated_Source\PSoC5/ErikaOS_1_ee_startos.c **** 
 204:Generated_Source\PSoC5/ErikaOS_1_ee_startos.c ****   if ( scheduletable_data != NULL ) {
 205:Generated_Source\PSoC5/ErikaOS_1_ee_startos.c ****     res = &scheduletable_data[t];
 206:Generated_Source\PSoC5/ErikaOS_1_ee_startos.c ****   }
 207:Generated_Source\PSoC5/ErikaOS_1_ee_startos.c **** 
 208:Generated_Source\PSoC5/ErikaOS_1_ee_startos.c ****   return res;
 209:Generated_Source\PSoC5/ErikaOS_1_ee_startos.c **** }
 210:Generated_Source\PSoC5/ErikaOS_1_ee_startos.c **** 
 211:Generated_Source\PSoC5/ErikaOS_1_ee_startos.c **** static void  EE_oo_autostart_schedule_tables ( AppModeType Mode )
 212:Generated_Source\PSoC5/ErikaOS_1_ee_startos.c **** {
 213:Generated_Source\PSoC5/ErikaOS_1_ee_startos.c ****   register EE_UREG n, t;
 214:Generated_Source\PSoC5/ErikaOS_1_ee_startos.c ****   n = EE_as_schedule_table_autostart[Mode].n;
 215:Generated_Source\PSoC5/ErikaOS_1_ee_startos.c ****   for ( t = 0U; t<n; t++ ) {
 216:Generated_Source\PSoC5/ErikaOS_1_ee_startos.c ****     const EE_as_schedule_table_autostart_data * sched_data_ref =
 217:Generated_Source\PSoC5/ErikaOS_1_ee_startos.c ****       get_schedule_table_autostart_data(EE_as_schedule_table_autostart[Mode].
 218:Generated_Source\PSoC5/ErikaOS_1_ee_startos.c ****         autostart_schedule_tables, t);
 219:Generated_Source\PSoC5/ErikaOS_1_ee_startos.c ****     if ( sched_data_ref != NULL ) {
 220:Generated_Source\PSoC5/ErikaOS_1_ee_startos.c ****       switch ( sched_data_ref->start_kind ) {
 221:Generated_Source\PSoC5/ErikaOS_1_ee_startos.c ****         case EE_ST_START_ABSOLUTE:
 222:Generated_Source\PSoC5/ErikaOS_1_ee_startos.c ****           EE_as_StartScheduleTableAbs(sched_data_ref->scheduletable_id,
 223:Generated_Source\PSoC5/ErikaOS_1_ee_startos.c ****             sched_data_ref->start_value);
 224:Generated_Source\PSoC5/ErikaOS_1_ee_startos.c ****           break;
 225:Generated_Source\PSoC5/ErikaOS_1_ee_startos.c ****         case EE_ST_START_RELATIVE:
 226:Generated_Source\PSoC5/ErikaOS_1_ee_startos.c ****           EE_as_StartScheduleTableRel(sched_data_ref->scheduletable_id,
 227:Generated_Source\PSoC5/ErikaOS_1_ee_startos.c ****             sched_data_ref->start_value);
 228:Generated_Source\PSoC5/ErikaOS_1_ee_startos.c ****           break;
 229:Generated_Source\PSoC5/ErikaOS_1_ee_startos.c ****         case EE_ST_START_SYNCHRON:
 230:Generated_Source\PSoC5/ErikaOS_1_ee_startos.c ****           /* XXX: Not implement yet */
 231:Generated_Source\PSoC5/ErikaOS_1_ee_startos.c ****           /* EE_as_StatusType StartScheduleTableSynchron(sched_data_ref->
 232:Generated_Source\PSoC5/ErikaOS_1_ee_startos.c ****               scheduletable_id) */
 233:Generated_Source\PSoC5/ErikaOS_1_ee_startos.c ****           break;
 234:Generated_Source\PSoC5/ErikaOS_1_ee_startos.c ****         default:
 235:Generated_Source\PSoC5/ErikaOS_1_ee_startos.c ****           /* THIS CANNOT HAPPENS, CONFIGURATION ERROR */
 236:Generated_Source\PSoC5/ErikaOS_1_ee_startos.c ****           break;
 237:Generated_Source\PSoC5/ErikaOS_1_ee_startos.c ****       }
 238:Generated_Source\PSoC5/ErikaOS_1_ee_startos.c ****     }
 239:Generated_Source\PSoC5/ErikaOS_1_ee_startos.c ****   }
 240:Generated_Source\PSoC5/ErikaOS_1_ee_startos.c **** }
 241:Generated_Source\PSoC5/ErikaOS_1_ee_startos.c **** #else /* EE_AS_AUTOSTART_SCHEDULETABLE__ */
 242:Generated_Source\PSoC5/ErikaOS_1_ee_startos.c **** #define EE_oo_autostart_schedule_tables(Mode)   ((void)0)
 243:Generated_Source\PSoC5/ErikaOS_1_ee_startos.c **** #endif /* EE_AS_AUTOSTART_SCHEDULETABLE__ */
 244:Generated_Source\PSoC5/ErikaOS_1_ee_startos.c **** 
 245:Generated_Source\PSoC5/ErikaOS_1_ee_startos.c **** #if (defined(__OO_AUTOSTART_TASK__)) || (defined(__OO_AUTOSTART_ALARM__)) \
 246:Generated_Source\PSoC5/ErikaOS_1_ee_startos.c ****   || (defined(EE_AS_AUTOSTART_SCHEDULETABLE__))
 247:Generated_Source\PSoC5/ErikaOS_1_ee_startos.c **** 
 248:Generated_Source\PSoC5/ErikaOS_1_ee_startos.c **** static void EE_oo_autostart_os ( AppModeType Mode );
 249:Generated_Source\PSoC5/ErikaOS_1_ee_startos.c **** 
 250:Generated_Source\PSoC5/ErikaOS_1_ee_startos.c **** static void EE_oo_autostart_os ( AppModeType Mode )
 251:Generated_Source\PSoC5/ErikaOS_1_ee_startos.c **** {
 252:Generated_Source\PSoC5/ErikaOS_1_ee_startos.c ****   if ( Mode < EE_MAX_APPMODE ) {
 253:Generated_Source\PSoC5/ErikaOS_1_ee_startos.c ****     EE_oo_autostart_tasks(Mode);
 254:Generated_Source\PSoC5/ErikaOS_1_ee_startos.c ****     EE_oo_autostart_alarms(Mode);
 255:Generated_Source\PSoC5/ErikaOS_1_ee_startos.c ****     EE_oo_autostart_schedule_tables(Mode);
 256:Generated_Source\PSoC5/ErikaOS_1_ee_startos.c ****   }
 257:Generated_Source\PSoC5/ErikaOS_1_ee_startos.c **** }
 258:Generated_Source\PSoC5/ErikaOS_1_ee_startos.c **** #else /* __OO_AUTOSTART_TASK__ || __OO_AUTOSTART_ALARM__ ||\
ARM GAS  C:\Users\Reza\AppData\Local\Temp\cchq54cM.s 			page 6


 259:Generated_Source\PSoC5/ErikaOS_1_ee_startos.c ****   EE_AS_AUTOSTART_SCHEDULETABLE__ */
 260:Generated_Source\PSoC5/ErikaOS_1_ee_startos.c **** #define EE_oo_autostart_os(Mode)    ((void)0);
 261:Generated_Source\PSoC5/ErikaOS_1_ee_startos.c **** #endif /* __OO_AUTOSTART_TASK__ || __OO_AUTOSTART_ALARM__ ||\
 262:Generated_Source\PSoC5/ErikaOS_1_ee_startos.c ****   EE_AS_AUTOSTART_SCHEDULETABLE__ */
 263:Generated_Source\PSoC5/ErikaOS_1_ee_startos.c **** 
 264:Generated_Source\PSoC5/ErikaOS_1_ee_startos.c **** #ifdef __OO_HAS_STARTUPHOOK__
 265:Generated_Source\PSoC5/ErikaOS_1_ee_startos.c **** static void EE_oo_call_StartupHook(void);
 266:Generated_Source\PSoC5/ErikaOS_1_ee_startos.c **** static void EE_oo_call_StartupHook(void)
 267:Generated_Source\PSoC5/ErikaOS_1_ee_startos.c **** {
 268:Generated_Source\PSoC5/ErikaOS_1_ee_startos.c **** }
 269:Generated_Source\PSoC5/ErikaOS_1_ee_startos.c **** #else /*  __OO_HAS_STARTUPHOOK__ */
 270:Generated_Source\PSoC5/ErikaOS_1_ee_startos.c **** __INLINE__ void   EE_oo_call_StartupHook(void);
 271:Generated_Source\PSoC5/ErikaOS_1_ee_startos.c **** __INLINE__ void   EE_oo_call_StartupHook(void) {}
 272:Generated_Source\PSoC5/ErikaOS_1_ee_startos.c **** #endif /* __OO_HAS_STARTUPHOOK__ */
 273:Generated_Source\PSoC5/ErikaOS_1_ee_startos.c **** 
 274:Generated_Source\PSoC5/ErikaOS_1_ee_startos.c **** /** @brief Flag that the OS is started */
 275:Generated_Source\PSoC5/ErikaOS_1_ee_startos.c **** EE_UREG volatile EE_oo_started;
 276:Generated_Source\PSoC5/ErikaOS_1_ee_startos.c **** 
 277:Generated_Source\PSoC5/ErikaOS_1_ee_startos.c **** #if defined(__OO_STARTOS_OLD__)
 278:Generated_Source\PSoC5/ErikaOS_1_ee_startos.c **** __INLINE__ void  EE_oo_start_os(void);
 279:Generated_Source\PSoC5/ErikaOS_1_ee_startos.c **** 
 280:Generated_Source\PSoC5/ErikaOS_1_ee_startos.c **** /*
 281:Generated_Source\PSoC5/ErikaOS_1_ee_startos.c ****  * If __OO_STARTOS_OLD__ is defined, the StartOS() returns,
 282:Generated_Source\PSoC5/ErikaOS_1_ee_startos.c ****  * (this is the old behaviour before the Autosar compliance).
 283:Generated_Source\PSoC5/ErikaOS_1_ee_startos.c ****  */
 284:Generated_Source\PSoC5/ErikaOS_1_ee_startos.c **** __INLINE__ void  EE_oo_start_os(void) {}
 285:Generated_Source\PSoC5/ErikaOS_1_ee_startos.c **** #else /* __OO_STARTOS_OLD__ */
 286:Generated_Source\PSoC5/ErikaOS_1_ee_startos.c **** static void EE_oo_start_os(void);
 287:Generated_Source\PSoC5/ErikaOS_1_ee_startos.c **** 
 288:Generated_Source\PSoC5/ErikaOS_1_ee_startos.c **** 
 289:Generated_Source\PSoC5/ErikaOS_1_ee_startos.c **** /*
 290:Generated_Source\PSoC5/ErikaOS_1_ee_startos.c ****  * If __OO_STARTOS_OLD__ is not defined the system behaves 
 291:Generated_Source\PSoC5/ErikaOS_1_ee_startos.c ****  * like Autosar requires: infinite loop (do not return).
 292:Generated_Source\PSoC5/ErikaOS_1_ee_startos.c ****  * This is the standard solution.
 293:Generated_Source\PSoC5/ErikaOS_1_ee_startos.c ****  */
 294:Generated_Source\PSoC5/ErikaOS_1_ee_startos.c **** static void EE_oo_start_os(void)
 295:Generated_Source\PSoC5/ErikaOS_1_ee_startos.c **** {
 296:Generated_Source\PSoC5/ErikaOS_1_ee_startos.c ****   /*
 297:Generated_Source\PSoC5/ErikaOS_1_ee_startos.c ****    * This assignment prevents from MISRA 14.2/FlexeLint 522:
 298:Generated_Source\PSoC5/ErikaOS_1_ee_startos.c ****    * lacks side-effects
 299:Generated_Source\PSoC5/ErikaOS_1_ee_startos.c ****    */
 300:Generated_Source\PSoC5/ErikaOS_1_ee_startos.c ****   EE_oo_started = 1U;
 301:Generated_Source\PSoC5/ErikaOS_1_ee_startos.c **** 
 302:Generated_Source\PSoC5/ErikaOS_1_ee_startos.c ****   for(;;) {
 303:Generated_Source\PSoC5/ErikaOS_1_ee_startos.c ****     ;
 304:Generated_Source\PSoC5/ErikaOS_1_ee_startos.c ****   }
 305:Generated_Source\PSoC5/ErikaOS_1_ee_startos.c **** }
 306:Generated_Source\PSoC5/ErikaOS_1_ee_startos.c **** #endif /* __OO_STARTOS_OLD__ && !__MSRP__ */
 307:Generated_Source\PSoC5/ErikaOS_1_ee_startos.c **** 
 308:Generated_Source\PSoC5/ErikaOS_1_ee_startos.c **** #if (!defined(EE_MASTER_CPU))
 309:Generated_Source\PSoC5/ErikaOS_1_ee_startos.c **** #if (!defined(EE_CURRENTCPU)) || (EE_CURRENTCPU == 0)
 310:Generated_Source\PSoC5/ErikaOS_1_ee_startos.c **** /* Used as short-cut for previous condition */
 311:Generated_Source\PSoC5/ErikaOS_1_ee_startos.c **** #define EE_MASTER_CPU
 312:Generated_Source\PSoC5/ErikaOS_1_ee_startos.c **** #endif /* EE_CURRENTCPU == 0 */
 313:Generated_Source\PSoC5/ErikaOS_1_ee_startos.c **** #endif /* !EE_MASTER_CPU */
 314:Generated_Source\PSoC5/ErikaOS_1_ee_startos.c **** 
 315:Generated_Source\PSoC5/ErikaOS_1_ee_startos.c **** StatusType EE_oo_StartOS(AppModeType Mode)
ARM GAS  C:\Users\Reza\AppData\Local\Temp\cchq54cM.s 			page 7


 316:Generated_Source\PSoC5/ErikaOS_1_ee_startos.c **** {
  28              		.loc 1 316 0
  29              		.cfi_startproc
  30              		@ args = 0, pretend = 0, frame = 8
  31              		@ frame_needed = 0, uses_anonymous_args = 0
  32              	.LVL0:
  33 0000 2DE9F746 		push	{r0, r1, r2, r4, r5, r6, r7, r9, r10, lr}
  34              		.cfi_def_cfa_offset 40
  35              		.cfi_offset 4, -28
  36              		.cfi_offset 5, -24
  37              		.cfi_offset 6, -20
  38              		.cfi_offset 7, -16
  39              		.cfi_offset 9, -12
  40              		.cfi_offset 10, -8
  41              		.cfi_offset 14, -4
  42              	.LBB78:
 317:Generated_Source\PSoC5/ErikaOS_1_ee_startos.c **** #if (defined(__MSRP__)) && (!defined(EE_AS_MULTICORE_NO_SYNC))
 318:Generated_Source\PSoC5/ErikaOS_1_ee_startos.c ****   /* The following contains cores application modes */
 319:Generated_Source\PSoC5/ErikaOS_1_ee_startos.c ****   extern AppModeType volatile EE_as_os_application_mode[];
 320:Generated_Source\PSoC5/ErikaOS_1_ee_startos.c ****   /* Mask for Autosar cores started */
 321:Generated_Source\PSoC5/ErikaOS_1_ee_startos.c ****   extern EE_UREG volatile EE_as_core_mask;
 322:Generated_Source\PSoC5/ErikaOS_1_ee_startos.c ****   /* Index used to cycle on cores an OS-Applications */
 323:Generated_Source\PSoC5/ErikaOS_1_ee_startos.c ****   register  EE_UREG i;
 324:Generated_Source\PSoC5/ErikaOS_1_ee_startos.c ****   /* Hold the value of application mode to be checked */
 325:Generated_Source\PSoC5/ErikaOS_1_ee_startos.c ****   register  AppModeType mode_to_check = DONOTCARE;
 326:Generated_Source\PSoC5/ErikaOS_1_ee_startos.c **** #endif /* __MSRP__ && !EE_AS_MULTICORE_NO_SYNC */
 327:Generated_Source\PSoC5/ErikaOS_1_ee_startos.c ****   /* Ready Queue Head Index */
 328:Generated_Source\PSoC5/ErikaOS_1_ee_startos.c ****   register EE_TID     rq;
 329:Generated_Source\PSoC5/ErikaOS_1_ee_startos.c ****   /* Error Value */
 330:Generated_Source\PSoC5/ErikaOS_1_ee_startos.c ****   register StatusType ev = E_OK;
 331:Generated_Source\PSoC5/ErikaOS_1_ee_startos.c ****   {
 332:Generated_Source\PSoC5/ErikaOS_1_ee_startos.c ****   #include "CyLib.h"
 333:Generated_Source\PSoC5/ErikaOS_1_ee_startos.c ****   #if (CY_PSOC5)
 334:Generated_Source\PSoC5/ErikaOS_1_ee_startos.c ****     //Set up OS ISRs
 335:Generated_Source\PSoC5/ErikaOS_1_ee_startos.c ****   extern cyisraddress CyRamVectors[];
 336:Generated_Source\PSoC5/ErikaOS_1_ee_startos.c ****   extern void EE_cortex_mx_pendsv_ISR(void);
 337:Generated_Source\PSoC5/ErikaOS_1_ee_startos.c ****   extern void EE_cortex_mx_svc_ISR(void);
 338:Generated_Source\PSoC5/ErikaOS_1_ee_startos.c ****   CyRamVectors[ CY_INT_SVCALL_IRQN ]      = EE_cortex_mx_svc_ISR;       /* SV Call Interrupt       
  43              		.loc 1 338 0
  44 0004 2C4B     		ldr	r3, .L14
  45 0006 2D4A     		ldr	r2, .L14+4
  46              	.LBE78:
 316:Generated_Source\PSoC5/ErikaOS_1_ee_startos.c **** #if (defined(__MSRP__)) && (!defined(EE_AS_MULTICORE_NO_SYNC))
  47              		.loc 1 316 0
  48 0008 0446     		mov	r4, r0
  49              	.LBB79:
  50              		.loc 1 338 0
  51 000a DA62     		str	r2, [r3, #44]
 339:Generated_Source\PSoC5/ErikaOS_1_ee_startos.c ****   CyRamVectors[ CY_INT_PEND_SV_IRQN ]     = EE_cortex_mx_pendsv_ISR;    /* PenSV Interrupt         
  52              		.loc 1 339 0
  53 000c 2C4A     		ldr	r2, .L14+8
  54 000e 9A63     		str	r2, [r3, #56]
 340:Generated_Source\PSoC5/ErikaOS_1_ee_startos.c ****   #ifdef __USE_SYSTICK__
 341:Generated_Source\PSoC5/ErikaOS_1_ee_startos.c ****   CyRamVectors[ CY_INT_SYSTICK_IRQN ]     = EE_CORTEX_MX_SYSTICK_ISR;   /* Systick Interrupt       
  55              		.loc 1 341 0
  56 0010 2C4A     		ldr	r2, .L14+12
  57 0012 DA63     		str	r2, [r3, #60]
ARM GAS  C:\Users\Reza\AppData\Local\Temp\cchq54cM.s 			page 8


  58              	.LBE79:
  59              	.LBB80:
  60              	.LBB81:
  61              	.LBB82:
  62              		.file 2 "Generated_Source\\PSoC5\\ErikaOS_1_cortex_mx_ee_cpu.inc"
   1:Generated_Source\PSoC5/ErikaOS_1_cortex_mx_ee_cpu.inc **** /* ###*B*###
   2:Generated_Source\PSoC5/ErikaOS_1_cortex_mx_ee_cpu.inc ****  * ERIKA Enterprise - a tiny RTOS for small microcontrollers
   3:Generated_Source\PSoC5/ErikaOS_1_cortex_mx_ee_cpu.inc ****  *
   4:Generated_Source\PSoC5/ErikaOS_1_cortex_mx_ee_cpu.inc ****  * Copyright (C) 2002-2011  Evidence Srl
   5:Generated_Source\PSoC5/ErikaOS_1_cortex_mx_ee_cpu.inc ****  *
   6:Generated_Source\PSoC5/ErikaOS_1_cortex_mx_ee_cpu.inc ****  * This file is part of ERIKA Enterprise.
   7:Generated_Source\PSoC5/ErikaOS_1_cortex_mx_ee_cpu.inc ****  *
   8:Generated_Source\PSoC5/ErikaOS_1_cortex_mx_ee_cpu.inc ****  * ERIKA Enterprise is free software; you can redistribute it
   9:Generated_Source\PSoC5/ErikaOS_1_cortex_mx_ee_cpu.inc ****  * and/or modify it under the terms of the GNU General Public License
  10:Generated_Source\PSoC5/ErikaOS_1_cortex_mx_ee_cpu.inc ****  * version 2 as published by the Free Software Foundation, 
  11:Generated_Source\PSoC5/ErikaOS_1_cortex_mx_ee_cpu.inc ****  * (with a special exception described below).
  12:Generated_Source\PSoC5/ErikaOS_1_cortex_mx_ee_cpu.inc ****  *
  13:Generated_Source\PSoC5/ErikaOS_1_cortex_mx_ee_cpu.inc ****  * Linking this code statically or dynamically with other modules is
  14:Generated_Source\PSoC5/ErikaOS_1_cortex_mx_ee_cpu.inc ****  * making a combined work based on this code.  Thus, the terms and
  15:Generated_Source\PSoC5/ErikaOS_1_cortex_mx_ee_cpu.inc ****  * conditions of the GNU General Public License cover the whole
  16:Generated_Source\PSoC5/ErikaOS_1_cortex_mx_ee_cpu.inc ****  * combination.
  17:Generated_Source\PSoC5/ErikaOS_1_cortex_mx_ee_cpu.inc ****  *
  18:Generated_Source\PSoC5/ErikaOS_1_cortex_mx_ee_cpu.inc ****  * As a special exception, the copyright holders of this library give you
  19:Generated_Source\PSoC5/ErikaOS_1_cortex_mx_ee_cpu.inc ****  * permission to link this code with independent modules to produce an
  20:Generated_Source\PSoC5/ErikaOS_1_cortex_mx_ee_cpu.inc ****  * executable, regardless of the license terms of these independent
  21:Generated_Source\PSoC5/ErikaOS_1_cortex_mx_ee_cpu.inc ****  * modules, and to copy and distribute the resulting executable under
  22:Generated_Source\PSoC5/ErikaOS_1_cortex_mx_ee_cpu.inc ****  * terms of your choice, provided that you also meet, for each linked
  23:Generated_Source\PSoC5/ErikaOS_1_cortex_mx_ee_cpu.inc ****  * independent module, the terms and conditions of the license of that
  24:Generated_Source\PSoC5/ErikaOS_1_cortex_mx_ee_cpu.inc ****  * module.  An independent module is a module which is not derived from
  25:Generated_Source\PSoC5/ErikaOS_1_cortex_mx_ee_cpu.inc ****  * or based on this library.  If you modify this code, you may extend
  26:Generated_Source\PSoC5/ErikaOS_1_cortex_mx_ee_cpu.inc ****  * this exception to your version of the code, but you are not
  27:Generated_Source\PSoC5/ErikaOS_1_cortex_mx_ee_cpu.inc ****  * obligated to do so.  If you do not wish to do so, delete this
  28:Generated_Source\PSoC5/ErikaOS_1_cortex_mx_ee_cpu.inc ****  * exception statement from your version.
  29:Generated_Source\PSoC5/ErikaOS_1_cortex_mx_ee_cpu.inc ****  *
  30:Generated_Source\PSoC5/ErikaOS_1_cortex_mx_ee_cpu.inc ****  * ERIKA Enterprise is distributed in the hope that it will be
  31:Generated_Source\PSoC5/ErikaOS_1_cortex_mx_ee_cpu.inc ****  * useful, but WITHOUT ANY WARRANTY; without even the implied warranty
  32:Generated_Source\PSoC5/ErikaOS_1_cortex_mx_ee_cpu.inc ****  * of MERCHANTABILITY or FITNESS FOR A PARTICULAR PURPOSE.  See the
  33:Generated_Source\PSoC5/ErikaOS_1_cortex_mx_ee_cpu.inc ****  * GNU General Public License version 2 for more details.
  34:Generated_Source\PSoC5/ErikaOS_1_cortex_mx_ee_cpu.inc ****  *
  35:Generated_Source\PSoC5/ErikaOS_1_cortex_mx_ee_cpu.inc ****  * You should have received a copy of the GNU General Public License
  36:Generated_Source\PSoC5/ErikaOS_1_cortex_mx_ee_cpu.inc ****  * version 2 along with ERIKA Enterprise; if not, write to the
  37:Generated_Source\PSoC5/ErikaOS_1_cortex_mx_ee_cpu.inc ****  * Free Software Foundation, Inc., 51 Franklin Street, Fifth Floor,
  38:Generated_Source\PSoC5/ErikaOS_1_cortex_mx_ee_cpu.inc ****  * Boston, MA 02110-1301 USA.
  39:Generated_Source\PSoC5/ErikaOS_1_cortex_mx_ee_cpu.inc ****  * ###*E*### */
  40:Generated_Source\PSoC5/ErikaOS_1_cortex_mx_ee_cpu.inc **** 
  41:Generated_Source\PSoC5/ErikaOS_1_cortex_mx_ee_cpu.inc **** /** 
  42:Generated_Source\PSoC5/ErikaOS_1_cortex_mx_ee_cpu.inc **** 	@file ee_cpu.h
  43:Generated_Source\PSoC5/ErikaOS_1_cortex_mx_ee_cpu.inc **** 	@brief CPU-dependent part of HAL. Derived from pkg/cpu/pic30/inc/ee_cpu.h
  44:Generated_Source\PSoC5/ErikaOS_1_cortex_mx_ee_cpu.inc **** 	@author Gianluca Franchino
  45:Generated_Source\PSoC5/ErikaOS_1_cortex_mx_ee_cpu.inc **** 	@author Giuseppe Serano
  46:Generated_Source\PSoC5/ErikaOS_1_cortex_mx_ee_cpu.inc **** 	@date 2011
  47:Generated_Source\PSoC5/ErikaOS_1_cortex_mx_ee_cpu.inc **** */ 
  48:Generated_Source\PSoC5/ErikaOS_1_cortex_mx_ee_cpu.inc ****     
  49:Generated_Source\PSoC5/ErikaOS_1_cortex_mx_ee_cpu.inc **** /*
  50:Generated_Source\PSoC5/ErikaOS_1_cortex_mx_ee_cpu.inc ****  * PSoC Port and API Generation
  51:Generated_Source\PSoC5/ErikaOS_1_cortex_mx_ee_cpu.inc ****  * Carlos Fernando Meier Martinez
  52:Generated_Source\PSoC5/ErikaOS_1_cortex_mx_ee_cpu.inc ****  * Hochschule Darmstadt, Germany. 2017.
ARM GAS  C:\Users\Reza\AppData\Local\Temp\cchq54cM.s 			page 9


  53:Generated_Source\PSoC5/ErikaOS_1_cortex_mx_ee_cpu.inc ****  */
  54:Generated_Source\PSoC5/ErikaOS_1_cortex_mx_ee_cpu.inc **** 
  55:Generated_Source\PSoC5/ErikaOS_1_cortex_mx_ee_cpu.inc **** #ifndef __INCLUDE_CORTEX_MX_EE_CPU_H__
  56:Generated_Source\PSoC5/ErikaOS_1_cortex_mx_ee_cpu.inc **** #define __INCLUDE_CORTEX_MX_EE_CPU_H__
  57:Generated_Source\PSoC5/ErikaOS_1_cortex_mx_ee_cpu.inc **** 
  58:Generated_Source\PSoC5/ErikaOS_1_cortex_mx_ee_cpu.inc **** #include "ErikaOS_1_eecfg.inc"
  59:Generated_Source\PSoC5/ErikaOS_1_cortex_mx_ee_cpu.inc **** 
  60:Generated_Source\PSoC5/ErikaOS_1_cortex_mx_ee_cpu.inc **** 
  61:Generated_Source\PSoC5/ErikaOS_1_cortex_mx_ee_cpu.inc **** #ifdef __GNU__
  62:Generated_Source\PSoC5/ErikaOS_1_cortex_mx_ee_cpu.inc **** #include "ErikaOS_1_common_ee_compiler_gcc.inc"
  63:Generated_Source\PSoC5/ErikaOS_1_cortex_mx_ee_cpu.inc **** #endif
  64:Generated_Source\PSoC5/ErikaOS_1_cortex_mx_ee_cpu.inc **** 
  65:Generated_Source\PSoC5/ErikaOS_1_cortex_mx_ee_cpu.inc **** /* Initial stack offset (in words): Used in multistack. */
  66:Generated_Source\PSoC5/ErikaOS_1_cortex_mx_ee_cpu.inc **** #ifndef CORTEX_MX_INIT_TOS_OFFSET
  67:Generated_Source\PSoC5/ErikaOS_1_cortex_mx_ee_cpu.inc **** #define CORTEX_MX_INIT_TOS_OFFSET 10
  68:Generated_Source\PSoC5/ErikaOS_1_cortex_mx_ee_cpu.inc **** #endif
  69:Generated_Source\PSoC5/ErikaOS_1_cortex_mx_ee_cpu.inc **** 
  70:Generated_Source\PSoC5/ErikaOS_1_cortex_mx_ee_cpu.inc **** /*************************************************************************
  71:Generated_Source\PSoC5/ErikaOS_1_cortex_mx_ee_cpu.inc ****  HAL Types and structures
  72:Generated_Source\PSoC5/ErikaOS_1_cortex_mx_ee_cpu.inc ****  *************************************************************************/
  73:Generated_Source\PSoC5/ErikaOS_1_cortex_mx_ee_cpu.inc **** 
  74:Generated_Source\PSoC5/ErikaOS_1_cortex_mx_ee_cpu.inc **** /* Primitive data types */
  75:Generated_Source\PSoC5/ErikaOS_1_cortex_mx_ee_cpu.inc **** #include "ErikaOS_1_common_ee_types.inc"
  76:Generated_Source\PSoC5/ErikaOS_1_cortex_mx_ee_cpu.inc **** 
  77:Generated_Source\PSoC5/ErikaOS_1_cortex_mx_ee_cpu.inc **** typedef EE_UINT32 EE_UREG;
  78:Generated_Source\PSoC5/ErikaOS_1_cortex_mx_ee_cpu.inc **** typedef EE_INT32  EE_SREG;
  79:Generated_Source\PSoC5/ErikaOS_1_cortex_mx_ee_cpu.inc **** typedef EE_UINT32 EE_FREG;
  80:Generated_Source\PSoC5/ErikaOS_1_cortex_mx_ee_cpu.inc **** #define EE_UREG_SIZE 4
  81:Generated_Source\PSoC5/ErikaOS_1_cortex_mx_ee_cpu.inc **** 
  82:Generated_Source\PSoC5/ErikaOS_1_cortex_mx_ee_cpu.inc **** /* boolean type */
  83:Generated_Source\PSoC5/ErikaOS_1_cortex_mx_ee_cpu.inc **** #ifndef EE_TYPEBOOL
  84:Generated_Source\PSoC5/ErikaOS_1_cortex_mx_ee_cpu.inc **** typedef EE_UREG EE_TYPEBOOL;
  85:Generated_Source\PSoC5/ErikaOS_1_cortex_mx_ee_cpu.inc **** #endif
  86:Generated_Source\PSoC5/ErikaOS_1_cortex_mx_ee_cpu.inc **** 
  87:Generated_Source\PSoC5/ErikaOS_1_cortex_mx_ee_cpu.inc **** /* boolean true define */
  88:Generated_Source\PSoC5/ErikaOS_1_cortex_mx_ee_cpu.inc **** #ifndef EE_TRUE
  89:Generated_Source\PSoC5/ErikaOS_1_cortex_mx_ee_cpu.inc **** #define EE_TRUE ((EE_TYPEBOOL)1U)
  90:Generated_Source\PSoC5/ErikaOS_1_cortex_mx_ee_cpu.inc **** #endif
  91:Generated_Source\PSoC5/ErikaOS_1_cortex_mx_ee_cpu.inc **** 
  92:Generated_Source\PSoC5/ErikaOS_1_cortex_mx_ee_cpu.inc **** /* boolean false define */
  93:Generated_Source\PSoC5/ErikaOS_1_cortex_mx_ee_cpu.inc **** #ifndef EE_FALSE
  94:Generated_Source\PSoC5/ErikaOS_1_cortex_mx_ee_cpu.inc **** #define EE_FALSE ((EE_TYPEBOOL)0U)
  95:Generated_Source\PSoC5/ErikaOS_1_cortex_mx_ee_cpu.inc **** #endif
  96:Generated_Source\PSoC5/ErikaOS_1_cortex_mx_ee_cpu.inc **** 
  97:Generated_Source\PSoC5/ErikaOS_1_cortex_mx_ee_cpu.inc **** #define	EE_HWREG_PTR		volatile EE_UREG *
  98:Generated_Source\PSoC5/ErikaOS_1_cortex_mx_ee_cpu.inc **** #define	EE_HWREG_ADDR(x)	((EE_HWREG_PTR)(x))
  99:Generated_Source\PSoC5/ErikaOS_1_cortex_mx_ee_cpu.inc **** #define	EE_HWREG(x)		(*EE_HWREG_ADDR(x))
 100:Generated_Source\PSoC5/ErikaOS_1_cortex_mx_ee_cpu.inc **** 
 101:Generated_Source\PSoC5/ErikaOS_1_cortex_mx_ee_cpu.inc **** #ifdef __GNU__
 102:Generated_Source\PSoC5/ErikaOS_1_cortex_mx_ee_cpu.inc **** 
 103:Generated_Source\PSoC5/ErikaOS_1_cortex_mx_ee_cpu.inc **** /* Get current SP */
 104:Generated_Source\PSoC5/ErikaOS_1_cortex_mx_ee_cpu.inc **** __INLINE__ EE_UINT32  __current_sp(void)
 105:Generated_Source\PSoC5/ErikaOS_1_cortex_mx_ee_cpu.inc **** {
 106:Generated_Source\PSoC5/ErikaOS_1_cortex_mx_ee_cpu.inc **** EE_UINT32 temp;
 107:Generated_Source\PSoC5/ErikaOS_1_cortex_mx_ee_cpu.inc **** __ASM ("mov %0, sp" : "=r" (temp) : );
 108:Generated_Source\PSoC5/ErikaOS_1_cortex_mx_ee_cpu.inc **** return temp;
 109:Generated_Source\PSoC5/ErikaOS_1_cortex_mx_ee_cpu.inc **** }
ARM GAS  C:\Users\Reza\AppData\Local\Temp\cchq54cM.s 			page 10


 110:Generated_Source\PSoC5/ErikaOS_1_cortex_mx_ee_cpu.inc **** 
 111:Generated_Source\PSoC5/ErikaOS_1_cortex_mx_ee_cpu.inc **** /* Set a breakpoint */
 112:Generated_Source\PSoC5/ErikaOS_1_cortex_mx_ee_cpu.inc **** #define __breakpoint(value)	__ASM ("bkpt "#value)
 113:Generated_Source\PSoC5/ErikaOS_1_cortex_mx_ee_cpu.inc **** 
 114:Generated_Source\PSoC5/ErikaOS_1_cortex_mx_ee_cpu.inc **** #endif
 115:Generated_Source\PSoC5/ErikaOS_1_cortex_mx_ee_cpu.inc **** 
 116:Generated_Source\PSoC5/ErikaOS_1_cortex_mx_ee_cpu.inc **** /* ISR Priority representation type */
 117:Generated_Source\PSoC5/ErikaOS_1_cortex_mx_ee_cpu.inc **** typedef EE_UREG EE_TYPEISR2PRIO;
 118:Generated_Source\PSoC5/ErikaOS_1_cortex_mx_ee_cpu.inc **** 
 119:Generated_Source\PSoC5/ErikaOS_1_cortex_mx_ee_cpu.inc **** /* Thread IDs */
 120:Generated_Source\PSoC5/ErikaOS_1_cortex_mx_ee_cpu.inc **** typedef EE_INT32 EE_TID;
 121:Generated_Source\PSoC5/ErikaOS_1_cortex_mx_ee_cpu.inc **** 
 122:Generated_Source\PSoC5/ErikaOS_1_cortex_mx_ee_cpu.inc **** /* Thread IDs - unsigned version*/
 123:Generated_Source\PSoC5/ErikaOS_1_cortex_mx_ee_cpu.inc **** typedef EE_UINT32 EE_UTID;
 124:Generated_Source\PSoC5/ErikaOS_1_cortex_mx_ee_cpu.inc **** 
 125:Generated_Source\PSoC5/ErikaOS_1_cortex_mx_ee_cpu.inc **** /* Used by the common layer to decide whether to start a new thread */
 126:Generated_Source\PSoC5/ErikaOS_1_cortex_mx_ee_cpu.inc **** #define TID_IS_STACKED_MARK 0x80000000
 127:Generated_Source\PSoC5/ErikaOS_1_cortex_mx_ee_cpu.inc **** 
 128:Generated_Source\PSoC5/ErikaOS_1_cortex_mx_ee_cpu.inc **** /* EE_TYPEIRQ is currently unused */
 129:Generated_Source\PSoC5/ErikaOS_1_cortex_mx_ee_cpu.inc **** 
 130:Generated_Source\PSoC5/ErikaOS_1_cortex_mx_ee_cpu.inc **** /* XXX: define EE_TIME? */
 131:Generated_Source\PSoC5/ErikaOS_1_cortex_mx_ee_cpu.inc **** 
 132:Generated_Source\PSoC5/ErikaOS_1_cortex_mx_ee_cpu.inc **** /* Use the "standard" implementation */
 133:Generated_Source\PSoC5/ErikaOS_1_cortex_mx_ee_cpu.inc **** #include "ErikaOS_1_common_ee_hal_structs.inc"
 134:Generated_Source\PSoC5/ErikaOS_1_cortex_mx_ee_cpu.inc **** 
 135:Generated_Source\PSoC5/ErikaOS_1_cortex_mx_ee_cpu.inc **** /******************************************************************************
 136:Generated_Source\PSoC5/ErikaOS_1_cortex_mx_ee_cpu.inc ****  Application dependent data types
 137:Generated_Source\PSoC5/ErikaOS_1_cortex_mx_ee_cpu.inc ****  ******************************************************************************/
 138:Generated_Source\PSoC5/ErikaOS_1_cortex_mx_ee_cpu.inc **** 
 139:Generated_Source\PSoC5/ErikaOS_1_cortex_mx_ee_cpu.inc **** #ifdef	__HAS_TYPES_H__
 140:Generated_Source\PSoC5/ErikaOS_1_cortex_mx_ee_cpu.inc **** #include	"types.h"
 141:Generated_Source\PSoC5/ErikaOS_1_cortex_mx_ee_cpu.inc **** #endif
 142:Generated_Source\PSoC5/ErikaOS_1_cortex_mx_ee_cpu.inc **** 
 143:Generated_Source\PSoC5/ErikaOS_1_cortex_mx_ee_cpu.inc **** /******************************************************************************
 144:Generated_Source\PSoC5/ErikaOS_1_cortex_mx_ee_cpu.inc ****  CPU Peripherals
 145:Generated_Source\PSoC5/ErikaOS_1_cortex_mx_ee_cpu.inc ****  ******************************************************************************/
 146:Generated_Source\PSoC5/ErikaOS_1_cortex_mx_ee_cpu.inc **** 
 147:Generated_Source\PSoC5/ErikaOS_1_cortex_mx_ee_cpu.inc **** #ifdef __CORTEX_MX__
 148:Generated_Source\PSoC5/ErikaOS_1_cortex_mx_ee_cpu.inc **** #include "ErikaOS_1_cortex_mx_ee_nvic.inc"
 149:Generated_Source\PSoC5/ErikaOS_1_cortex_mx_ee_cpu.inc **** #include "ErikaOS_1_cortex_mx_ee_systick.inc"
 150:Generated_Source\PSoC5/ErikaOS_1_cortex_mx_ee_cpu.inc **** #endif
 151:Generated_Source\PSoC5/ErikaOS_1_cortex_mx_ee_cpu.inc **** 
 152:Generated_Source\PSoC5/ErikaOS_1_cortex_mx_ee_cpu.inc **** /******************************************************************************
 153:Generated_Source\PSoC5/ErikaOS_1_cortex_mx_ee_cpu.inc ****  HAL Variables
 154:Generated_Source\PSoC5/ErikaOS_1_cortex_mx_ee_cpu.inc ****  ******************************************************************************/
 155:Generated_Source\PSoC5/ErikaOS_1_cortex_mx_ee_cpu.inc **** 
 156:Generated_Source\PSoC5/ErikaOS_1_cortex_mx_ee_cpu.inc **** #ifdef __MULTI__
 157:Generated_Source\PSoC5/ErikaOS_1_cortex_mx_ee_cpu.inc **** 
 158:Generated_Source\PSoC5/ErikaOS_1_cortex_mx_ee_cpu.inc **** /* Top-of-stack of each private stack */
 159:Generated_Source\PSoC5/ErikaOS_1_cortex_mx_ee_cpu.inc **** extern struct EE_TOS EE_cortex_mx_system_tos[];
 160:Generated_Source\PSoC5/ErikaOS_1_cortex_mx_ee_cpu.inc **** //#define	EE_std_system_tos EE_cortex_mx_system_tos
 161:Generated_Source\PSoC5/ErikaOS_1_cortex_mx_ee_cpu.inc **** 
 162:Generated_Source\PSoC5/ErikaOS_1_cortex_mx_ee_cpu.inc **** /* Index of the current stack */
 163:Generated_Source\PSoC5/ErikaOS_1_cortex_mx_ee_cpu.inc **** extern EE_UREG EE_cortex_mx_active_tos;
 164:Generated_Source\PSoC5/ErikaOS_1_cortex_mx_ee_cpu.inc **** #define	EE_hal_active_tos EE_cortex_mx_active_tos
 165:Generated_Source\PSoC5/ErikaOS_1_cortex_mx_ee_cpu.inc **** 
 166:Generated_Source\PSoC5/ErikaOS_1_cortex_mx_ee_cpu.inc **** /*extern	EE_UREG EE_pic30_thread_tos[];
ARM GAS  C:\Users\Reza\AppData\Local\Temp\cchq54cM.s 			page 11


 167:Generated_Source\PSoC5/ErikaOS_1_cortex_mx_ee_cpu.inc **** #define	EE_std_thread_tos EE_pic30_thread_tos */
 168:Generated_Source\PSoC5/ErikaOS_1_cortex_mx_ee_cpu.inc **** #endif /* __MULTI__ */
 169:Generated_Source\PSoC5/ErikaOS_1_cortex_mx_ee_cpu.inc **** 
 170:Generated_Source\PSoC5/ErikaOS_1_cortex_mx_ee_cpu.inc **** /*********************************************************************
 171:Generated_Source\PSoC5/ErikaOS_1_cortex_mx_ee_cpu.inc ****  Cortex M0 interrupt disabling/enabling
 172:Generated_Source\PSoC5/ErikaOS_1_cortex_mx_ee_cpu.inc ****  *********************************************************************/
 173:Generated_Source\PSoC5/ErikaOS_1_cortex_mx_ee_cpu.inc **** 
 174:Generated_Source\PSoC5/ErikaOS_1_cortex_mx_ee_cpu.inc **** /* Used to check the value returned by EE_cortex_mx_disableIRQ */
 175:Generated_Source\PSoC5/ErikaOS_1_cortex_mx_ee_cpu.inc **** #define EE_cortex_mx_are_IRQs_enabled(ie) ((ie) ^ 1)
 176:Generated_Source\PSoC5/ErikaOS_1_cortex_mx_ee_cpu.inc **** 
 177:Generated_Source\PSoC5/ErikaOS_1_cortex_mx_ee_cpu.inc **** /**
 178:Generated_Source\PSoC5/ErikaOS_1_cortex_mx_ee_cpu.inc ****  * Enable interrupts
 179:Generated_Source\PSoC5/ErikaOS_1_cortex_mx_ee_cpu.inc ****  */
 180:Generated_Source\PSoC5/ErikaOS_1_cortex_mx_ee_cpu.inc **** __INLINE__ void  EE_cortex_mx_enableIRQ(void)
 181:Generated_Source\PSoC5/ErikaOS_1_cortex_mx_ee_cpu.inc **** {
 182:Generated_Source\PSoC5/ErikaOS_1_cortex_mx_ee_cpu.inc **** #ifdef __IAR__
 183:Generated_Source\PSoC5/ErikaOS_1_cortex_mx_ee_cpu.inc **** 	__ASM ("cpsie i");
 184:Generated_Source\PSoC5/ErikaOS_1_cortex_mx_ee_cpu.inc **** #else	/* __IAR__ */
 185:Generated_Source\PSoC5/ErikaOS_1_cortex_mx_ee_cpu.inc **** #ifdef __CCS__
 186:Generated_Source\PSoC5/ErikaOS_1_cortex_mx_ee_cpu.inc **** 	__ASM ("    cpsie    i\n");
 187:Generated_Source\PSoC5/ErikaOS_1_cortex_mx_ee_cpu.inc **** #else	/* __CCS__ */
 188:Generated_Source\PSoC5/ErikaOS_1_cortex_mx_ee_cpu.inc **** #ifdef __KEIL__
 189:Generated_Source\PSoC5/ErikaOS_1_cortex_mx_ee_cpu.inc **** 	__enable_irq();
 190:Generated_Source\PSoC5/ErikaOS_1_cortex_mx_ee_cpu.inc **** #else	/* __KEIL__ */
 191:Generated_Source\PSoC5/ErikaOS_1_cortex_mx_ee_cpu.inc **** 	__ASM volatile("cpsie i");
 192:Generated_Source\PSoC5/ErikaOS_1_cortex_mx_ee_cpu.inc **** #endif	/* !__KEIL__ */
 193:Generated_Source\PSoC5/ErikaOS_1_cortex_mx_ee_cpu.inc **** #endif	/* !__CCS__ */
 194:Generated_Source\PSoC5/ErikaOS_1_cortex_mx_ee_cpu.inc **** #endif	/* !__IAR__ */
 195:Generated_Source\PSoC5/ErikaOS_1_cortex_mx_ee_cpu.inc **** }
 196:Generated_Source\PSoC5/ErikaOS_1_cortex_mx_ee_cpu.inc **** 
 197:Generated_Source\PSoC5/ErikaOS_1_cortex_mx_ee_cpu.inc **** /**
 198:Generated_Source\PSoC5/ErikaOS_1_cortex_mx_ee_cpu.inc ****  * Disable interrupts
 199:Generated_Source\PSoC5/ErikaOS_1_cortex_mx_ee_cpu.inc ****  */
 200:Generated_Source\PSoC5/ErikaOS_1_cortex_mx_ee_cpu.inc **** __INLINE__ void  EE_cortex_mx_disableIRQ(void)
 201:Generated_Source\PSoC5/ErikaOS_1_cortex_mx_ee_cpu.inc **** {
 202:Generated_Source\PSoC5/ErikaOS_1_cortex_mx_ee_cpu.inc **** #ifdef __IAR__
 203:Generated_Source\PSoC5/ErikaOS_1_cortex_mx_ee_cpu.inc **** 	__ASM ("cpsid i");
 204:Generated_Source\PSoC5/ErikaOS_1_cortex_mx_ee_cpu.inc **** #else	/* __IAR__ */
 205:Generated_Source\PSoC5/ErikaOS_1_cortex_mx_ee_cpu.inc **** #ifdef __CCS__
 206:Generated_Source\PSoC5/ErikaOS_1_cortex_mx_ee_cpu.inc **** 	__ASM ("    cpsid    i\n");
 207:Generated_Source\PSoC5/ErikaOS_1_cortex_mx_ee_cpu.inc **** #else	/* __CCS__ */
 208:Generated_Source\PSoC5/ErikaOS_1_cortex_mx_ee_cpu.inc **** #ifdef __KEIL__
 209:Generated_Source\PSoC5/ErikaOS_1_cortex_mx_ee_cpu.inc **** 	__disable_irq();
 210:Generated_Source\PSoC5/ErikaOS_1_cortex_mx_ee_cpu.inc **** #else	/* __KEIL__ */
 211:Generated_Source\PSoC5/ErikaOS_1_cortex_mx_ee_cpu.inc **** 	__ASM volatile("cpsid i");
 212:Generated_Source\PSoC5/ErikaOS_1_cortex_mx_ee_cpu.inc **** #endif	/* !__KEIL__ */
 213:Generated_Source\PSoC5/ErikaOS_1_cortex_mx_ee_cpu.inc **** #endif	/* !__CCS__ */
 214:Generated_Source\PSoC5/ErikaOS_1_cortex_mx_ee_cpu.inc **** #endif	/* !__IAR__ */
 215:Generated_Source\PSoC5/ErikaOS_1_cortex_mx_ee_cpu.inc **** }
 216:Generated_Source\PSoC5/ErikaOS_1_cortex_mx_ee_cpu.inc **** 
 217:Generated_Source\PSoC5/ErikaOS_1_cortex_mx_ee_cpu.inc **** /**
 218:Generated_Source\PSoC5/ErikaOS_1_cortex_mx_ee_cpu.inc ****  * Resume interrupts
 219:Generated_Source\PSoC5/ErikaOS_1_cortex_mx_ee_cpu.inc ****  */
 220:Generated_Source\PSoC5/ErikaOS_1_cortex_mx_ee_cpu.inc **** __INLINE__ void  EE_cortex_mx_resumeIRQ(EE_FREG f)
 221:Generated_Source\PSoC5/ErikaOS_1_cortex_mx_ee_cpu.inc **** {
 222:Generated_Source\PSoC5/ErikaOS_1_cortex_mx_ee_cpu.inc **** #ifdef __IAR__
 223:Generated_Source\PSoC5/ErikaOS_1_cortex_mx_ee_cpu.inc **** 	__set_PRIMASK(f);
ARM GAS  C:\Users\Reza\AppData\Local\Temp\cchq54cM.s 			page 12


 224:Generated_Source\PSoC5/ErikaOS_1_cortex_mx_ee_cpu.inc **** #else	/* __IAR__ */
 225:Generated_Source\PSoC5/ErikaOS_1_cortex_mx_ee_cpu.inc **** #ifdef __CCS__
 226:Generated_Source\PSoC5/ErikaOS_1_cortex_mx_ee_cpu.inc **** 	__ASM ("    msr    primask, r0\n");
 227:Generated_Source\PSoC5/ErikaOS_1_cortex_mx_ee_cpu.inc **** #else	/* __CCS__ */
 228:Generated_Source\PSoC5/ErikaOS_1_cortex_mx_ee_cpu.inc **** #ifdef __KEIL__
 229:Generated_Source\PSoC5/ErikaOS_1_cortex_mx_ee_cpu.inc **** 	register EE_FREG PRIMASK __ASM("primask");
 230:Generated_Source\PSoC5/ErikaOS_1_cortex_mx_ee_cpu.inc **** 	PRIMASK = f;
 231:Generated_Source\PSoC5/ErikaOS_1_cortex_mx_ee_cpu.inc **** #else	/* __KEIL__ */
 232:Generated_Source\PSoC5/ErikaOS_1_cortex_mx_ee_cpu.inc **** 	__ASM volatile("msr primask, %0" :: "r" (f));
 233:Generated_Source\PSoC5/ErikaOS_1_cortex_mx_ee_cpu.inc **** #endif	/* !__KEIL__ */
 234:Generated_Source\PSoC5/ErikaOS_1_cortex_mx_ee_cpu.inc **** #endif	/* !__CCS__ */
 235:Generated_Source\PSoC5/ErikaOS_1_cortex_mx_ee_cpu.inc **** #endif	/* !__IAR__ */
 236:Generated_Source\PSoC5/ErikaOS_1_cortex_mx_ee_cpu.inc **** }
 237:Generated_Source\PSoC5/ErikaOS_1_cortex_mx_ee_cpu.inc **** 
 238:Generated_Source\PSoC5/ErikaOS_1_cortex_mx_ee_cpu.inc **** /**
 239:Generated_Source\PSoC5/ErikaOS_1_cortex_mx_ee_cpu.inc ****  * Suspend interrupts
 240:Generated_Source\PSoC5/ErikaOS_1_cortex_mx_ee_cpu.inc ****  */
 241:Generated_Source\PSoC5/ErikaOS_1_cortex_mx_ee_cpu.inc **** __INLINE__ EE_FREG  EE_cortex_mx_suspendIRQ(void)
 242:Generated_Source\PSoC5/ErikaOS_1_cortex_mx_ee_cpu.inc **** {
 243:Generated_Source\PSoC5/ErikaOS_1_cortex_mx_ee_cpu.inc **** #ifndef __CCS__
 244:Generated_Source\PSoC5/ErikaOS_1_cortex_mx_ee_cpu.inc **** 	EE_FREG istat;
 245:Generated_Source\PSoC5/ErikaOS_1_cortex_mx_ee_cpu.inc **** #endif
 246:Generated_Source\PSoC5/ErikaOS_1_cortex_mx_ee_cpu.inc **** #ifdef __IAR__
 247:Generated_Source\PSoC5/ErikaOS_1_cortex_mx_ee_cpu.inc **** 	 istat = __get_PRIMASK();
 248:Generated_Source\PSoC5/ErikaOS_1_cortex_mx_ee_cpu.inc **** 	__ASM ("cpsid i");
 249:Generated_Source\PSoC5/ErikaOS_1_cortex_mx_ee_cpu.inc **** #else	/* __IAR__ */
 250:Generated_Source\PSoC5/ErikaOS_1_cortex_mx_ee_cpu.inc **** #ifdef __CCS__
 251:Generated_Source\PSoC5/ErikaOS_1_cortex_mx_ee_cpu.inc **** 	__ASM ("    mrs     r0, primask\n"
 252:Generated_Source\PSoC5/ErikaOS_1_cortex_mx_ee_cpu.inc **** 	       "    cpsid   i\n"
 253:Generated_Source\PSoC5/ErikaOS_1_cortex_mx_ee_cpu.inc **** 	       "    bx      lr\n");
 254:Generated_Source\PSoC5/ErikaOS_1_cortex_mx_ee_cpu.inc **** #else	/* __CCS__ */
 255:Generated_Source\PSoC5/ErikaOS_1_cortex_mx_ee_cpu.inc **** #ifdef __KEIL__
 256:Generated_Source\PSoC5/ErikaOS_1_cortex_mx_ee_cpu.inc **** 	register EE_FREG PRIMASK __ASM("primask");
 257:Generated_Source\PSoC5/ErikaOS_1_cortex_mx_ee_cpu.inc **** 	istat = PRIMASK;
 258:Generated_Source\PSoC5/ErikaOS_1_cortex_mx_ee_cpu.inc **** 	__disable_irq();
 259:Generated_Source\PSoC5/ErikaOS_1_cortex_mx_ee_cpu.inc **** #else	/* __KEIL__ */
 260:Generated_Source\PSoC5/ErikaOS_1_cortex_mx_ee_cpu.inc **** 	__ASM volatile ("mrs %0, primask" : "=r" (istat) );
  63              		.loc 2 260 0
  64              		.syntax unified
  65              	@ 260 "Generated_Source\PSoC5\ErikaOS_1_cortex_mx_ee_cpu.inc" 1
  66 0014 EFF31083 		mrs r3, primask
  67              	@ 0 "" 2
  68              	.LVL1:
 261:Generated_Source\PSoC5/ErikaOS_1_cortex_mx_ee_cpu.inc **** 	__ASM volatile ("cpsid i");
  69              		.loc 2 261 0
  70              	@ 261 "Generated_Source\PSoC5\ErikaOS_1_cortex_mx_ee_cpu.inc" 1
  71 0018 72B6     		cpsid i
  72              	@ 0 "" 2
  73              	.LVL2:
  74              		.thumb
  75              		.syntax unified
  76              	.LBE82:
  77              	.LBE81:
  78              	.LBE80:
 342:Generated_Source\PSoC5/ErikaOS_1_ee_startos.c ****   #endif
 343:Generated_Source\PSoC5/ErikaOS_1_ee_startos.c ****   #endif
 344:Generated_Source\PSoC5/ErikaOS_1_ee_startos.c ****   }
ARM GAS  C:\Users\Reza\AppData\Local\Temp\cchq54cM.s 			page 13


 345:Generated_Source\PSoC5/ErikaOS_1_ee_startos.c ****   /* Primitive Lock Procedure */
 346:Generated_Source\PSoC5/ErikaOS_1_ee_startos.c ****   register EE_FREG const flag = EE_hal_begin_nested_primitive();
 347:Generated_Source\PSoC5/ErikaOS_1_ee_startos.c **** 
 348:Generated_Source\PSoC5/ErikaOS_1_ee_startos.c ****   EE_ORTI_set_service_in(EE_SERVICETRACE_STARTOS);
 349:Generated_Source\PSoC5/ErikaOS_1_ee_startos.c **** 
 350:Generated_Source\PSoC5/ErikaOS_1_ee_startos.c ****   /* Check if this is the first time that I call StartOS */
 351:Generated_Source\PSoC5/ErikaOS_1_ee_startos.c ****   if ( EE_oo_started != 0U ) {
  79              		.loc 1 351 0
  80 001a 2B4D     		ldr	r5, .L14+16
  81 001c 2A68     		ldr	r2, [r5]
  82 001e 002A     		cmp	r2, #0
  83 0020 43D1     		bne	.L2
  84              	.LBB83:
  85              	.LBB84:
  86              		.file 3 "Generated_Source\\PSoC5\\ErikaOS_1_cortex_mx_ee_internal.inc"
   1:Generated_Source\PSoC5/ErikaOS_1_cortex_mx_ee_internal.inc **** /* ###*B*###
   2:Generated_Source\PSoC5/ErikaOS_1_cortex_mx_ee_internal.inc ****  * ERIKA Enterprise - a tiny RTOS for small microcontrollers
   3:Generated_Source\PSoC5/ErikaOS_1_cortex_mx_ee_internal.inc ****  *
   4:Generated_Source\PSoC5/ErikaOS_1_cortex_mx_ee_internal.inc ****  * Copyright (C) 2002-2011  Evidence Srl
   5:Generated_Source\PSoC5/ErikaOS_1_cortex_mx_ee_internal.inc ****  *
   6:Generated_Source\PSoC5/ErikaOS_1_cortex_mx_ee_internal.inc ****  * This file is part of ERIKA Enterprise.
   7:Generated_Source\PSoC5/ErikaOS_1_cortex_mx_ee_internal.inc ****  *
   8:Generated_Source\PSoC5/ErikaOS_1_cortex_mx_ee_internal.inc ****  * ERIKA Enterprise is free software; you can redistribute it
   9:Generated_Source\PSoC5/ErikaOS_1_cortex_mx_ee_internal.inc ****  * and/or modify it under the terms of the GNU General Public License
  10:Generated_Source\PSoC5/ErikaOS_1_cortex_mx_ee_internal.inc ****  * version 2 as published by the Free Software Foundation, 
  11:Generated_Source\PSoC5/ErikaOS_1_cortex_mx_ee_internal.inc ****  * (with a special exception described below).
  12:Generated_Source\PSoC5/ErikaOS_1_cortex_mx_ee_internal.inc ****  *
  13:Generated_Source\PSoC5/ErikaOS_1_cortex_mx_ee_internal.inc ****  * Linking this code statically or dynamically with other modules is
  14:Generated_Source\PSoC5/ErikaOS_1_cortex_mx_ee_internal.inc ****  * making a combined work based on this code.  Thus, the terms and
  15:Generated_Source\PSoC5/ErikaOS_1_cortex_mx_ee_internal.inc ****  * conditions of the GNU General Public License cover the whole
  16:Generated_Source\PSoC5/ErikaOS_1_cortex_mx_ee_internal.inc ****  * combination.
  17:Generated_Source\PSoC5/ErikaOS_1_cortex_mx_ee_internal.inc ****  *
  18:Generated_Source\PSoC5/ErikaOS_1_cortex_mx_ee_internal.inc ****  * As a special exception, the copyright holders of this library give you
  19:Generated_Source\PSoC5/ErikaOS_1_cortex_mx_ee_internal.inc ****  * permission to link this code with independent modules to produce an
  20:Generated_Source\PSoC5/ErikaOS_1_cortex_mx_ee_internal.inc ****  * executable, regardless of the license terms of these independent
  21:Generated_Source\PSoC5/ErikaOS_1_cortex_mx_ee_internal.inc ****  * modules, and to copy and distribute the resulting executable under
  22:Generated_Source\PSoC5/ErikaOS_1_cortex_mx_ee_internal.inc ****  * terms of your choice, provided that you also meet, for each linked
  23:Generated_Source\PSoC5/ErikaOS_1_cortex_mx_ee_internal.inc ****  * independent module, the terms and conditions of the license of that
  24:Generated_Source\PSoC5/ErikaOS_1_cortex_mx_ee_internal.inc ****  * module.  An independent module is a module which is not derived from
  25:Generated_Source\PSoC5/ErikaOS_1_cortex_mx_ee_internal.inc ****  * or based on this library.  If you modify this code, you may extend
  26:Generated_Source\PSoC5/ErikaOS_1_cortex_mx_ee_internal.inc ****  * this exception to your version of the code, but you are not
  27:Generated_Source\PSoC5/ErikaOS_1_cortex_mx_ee_internal.inc ****  * obligated to do so.  If you do not wish to do so, delete this
  28:Generated_Source\PSoC5/ErikaOS_1_cortex_mx_ee_internal.inc ****  * exception statement from your version.
  29:Generated_Source\PSoC5/ErikaOS_1_cortex_mx_ee_internal.inc ****  *
  30:Generated_Source\PSoC5/ErikaOS_1_cortex_mx_ee_internal.inc ****  * ERIKA Enterprise is distributed in the hope that it will be
  31:Generated_Source\PSoC5/ErikaOS_1_cortex_mx_ee_internal.inc ****  * useful, but WITHOUT ANY WARRANTY; without even the implied warranty
  32:Generated_Source\PSoC5/ErikaOS_1_cortex_mx_ee_internal.inc ****  * of MERCHANTABILITY or FITNESS FOR A PARTICULAR PURPOSE.  See the
  33:Generated_Source\PSoC5/ErikaOS_1_cortex_mx_ee_internal.inc ****  * GNU General Public License version 2 for more details.
  34:Generated_Source\PSoC5/ErikaOS_1_cortex_mx_ee_internal.inc ****  *
  35:Generated_Source\PSoC5/ErikaOS_1_cortex_mx_ee_internal.inc ****  * You should have received a copy of the GNU General Public License
  36:Generated_Source\PSoC5/ErikaOS_1_cortex_mx_ee_internal.inc ****  * version 2 along with ERIKA Enterprise; if not, write to the
  37:Generated_Source\PSoC5/ErikaOS_1_cortex_mx_ee_internal.inc ****  * Free Software Foundation, Inc., 51 Franklin Street, Fifth Floor,
  38:Generated_Source\PSoC5/ErikaOS_1_cortex_mx_ee_internal.inc ****  * Boston, MA 02110-1301 USA.
  39:Generated_Source\PSoC5/ErikaOS_1_cortex_mx_ee_internal.inc ****  * ###*E*### */
  40:Generated_Source\PSoC5/ErikaOS_1_cortex_mx_ee_internal.inc **** 
  41:Generated_Source\PSoC5/ErikaOS_1_cortex_mx_ee_internal.inc **** /** 
  42:Generated_Source\PSoC5/ErikaOS_1_cortex_mx_ee_internal.inc **** 	@file	ee_internal.h
ARM GAS  C:\Users\Reza\AppData\Local\Temp\cchq54cM.s 			page 14


  43:Generated_Source\PSoC5/ErikaOS_1_cortex_mx_ee_internal.inc **** 	@brief	Derived from cpu/pic30/inc/ee_internal.h
  44:Generated_Source\PSoC5/ErikaOS_1_cortex_mx_ee_internal.inc **** 	@author	Gianluca Franchino
  45:Generated_Source\PSoC5/ErikaOS_1_cortex_mx_ee_internal.inc **** 	@author	Giuseppe Serano
  46:Generated_Source\PSoC5/ErikaOS_1_cortex_mx_ee_internal.inc **** 	@date	2012
  47:Generated_Source\PSoC5/ErikaOS_1_cortex_mx_ee_internal.inc **** */  
  48:Generated_Source\PSoC5/ErikaOS_1_cortex_mx_ee_internal.inc ****     
  49:Generated_Source\PSoC5/ErikaOS_1_cortex_mx_ee_internal.inc **** /*
  50:Generated_Source\PSoC5/ErikaOS_1_cortex_mx_ee_internal.inc ****  * PSoC Port and API Generation
  51:Generated_Source\PSoC5/ErikaOS_1_cortex_mx_ee_internal.inc ****  * Carlos Fernando Meier Martinez
  52:Generated_Source\PSoC5/ErikaOS_1_cortex_mx_ee_internal.inc ****  * Hochschule Darmstadt, Germany. 2017.
  53:Generated_Source\PSoC5/ErikaOS_1_cortex_mx_ee_internal.inc ****  */
  54:Generated_Source\PSoC5/ErikaOS_1_cortex_mx_ee_internal.inc **** 
  55:Generated_Source\PSoC5/ErikaOS_1_cortex_mx_ee_internal.inc **** #ifndef __INCLUDE_CORTEX_MX_INTERNAL_H__
  56:Generated_Source\PSoC5/ErikaOS_1_cortex_mx_ee_internal.inc **** #define __INCLUDE_CORTEX_MX_INTERNAL_H__
  57:Generated_Source\PSoC5/ErikaOS_1_cortex_mx_ee_internal.inc **** 
  58:Generated_Source\PSoC5/ErikaOS_1_cortex_mx_ee_internal.inc **** 
  59:Generated_Source\PSoC5/ErikaOS_1_cortex_mx_ee_internal.inc **** #include "ErikaOS_1_cortex_mx_ee_cpu.inc"
  60:Generated_Source\PSoC5/ErikaOS_1_cortex_mx_ee_internal.inc **** 
  61:Generated_Source\PSoC5/ErikaOS_1_cortex_mx_ee_internal.inc **** 
  62:Generated_Source\PSoC5/ErikaOS_1_cortex_mx_ee_internal.inc **** /*************************************************************************
  63:Generated_Source\PSoC5/ErikaOS_1_cortex_mx_ee_internal.inc ****  Functions
  64:Generated_Source\PSoC5/ErikaOS_1_cortex_mx_ee_internal.inc ****  *************************************************************************/
  65:Generated_Source\PSoC5/ErikaOS_1_cortex_mx_ee_internal.inc **** 
  66:Generated_Source\PSoC5/ErikaOS_1_cortex_mx_ee_internal.inc **** /*
  67:Generated_Source\PSoC5/ErikaOS_1_cortex_mx_ee_internal.inc ****  * Generic Primitives
  68:Generated_Source\PSoC5/ErikaOS_1_cortex_mx_ee_internal.inc ****  */
  69:Generated_Source\PSoC5/ErikaOS_1_cortex_mx_ee_internal.inc **** 
  70:Generated_Source\PSoC5/ErikaOS_1_cortex_mx_ee_internal.inc **** #include "ErikaOS_1_common_ee_primitives.inc"
  71:Generated_Source\PSoC5/ErikaOS_1_cortex_mx_ee_internal.inc **** 
  72:Generated_Source\PSoC5/ErikaOS_1_cortex_mx_ee_internal.inc **** /*************************************************************************
  73:Generated_Source\PSoC5/ErikaOS_1_cortex_mx_ee_internal.inc ****                             System startup
  74:Generated_Source\PSoC5/ErikaOS_1_cortex_mx_ee_internal.inc ****  *************************************************************************/
  75:Generated_Source\PSoC5/ErikaOS_1_cortex_mx_ee_internal.inc **** 
  76:Generated_Source\PSoC5/ErikaOS_1_cortex_mx_ee_internal.inc **** #define OO_CPU_HAS_STARTOS_ROUTINE
  77:Generated_Source\PSoC5/ErikaOS_1_cortex_mx_ee_internal.inc **** 
  78:Generated_Source\PSoC5/ErikaOS_1_cortex_mx_ee_internal.inc **** /* If system is defined I have to initialize it*/
  79:Generated_Source\PSoC5/ErikaOS_1_cortex_mx_ee_internal.inc **** #if	( defined(ENABLE_SYSTEM_TIMER) && defined(EE_SYSTEM_TIMER_DEVICE) )
  80:Generated_Source\PSoC5/ErikaOS_1_cortex_mx_ee_internal.inc **** void EE_cortex_mx_initialize_system_timer(void);
  81:Generated_Source\PSoC5/ErikaOS_1_cortex_mx_ee_internal.inc **** #else /* ENABLE_SYSTEM_TIMER */
  82:Generated_Source\PSoC5/ErikaOS_1_cortex_mx_ee_internal.inc **** #define EE_cortex_mx_initialize_system_timer() ((void) 0)
  83:Generated_Source\PSoC5/ErikaOS_1_cortex_mx_ee_internal.inc **** #endif /* ENABLE_SYSTEM_TIMER */
  84:Generated_Source\PSoC5/ErikaOS_1_cortex_mx_ee_internal.inc **** 
  85:Generated_Source\PSoC5/ErikaOS_1_cortex_mx_ee_internal.inc **** __INLINE__ EE_TYPEBOOL  EE_cpu_startos(void);
  86:Generated_Source\PSoC5/ErikaOS_1_cortex_mx_ee_internal.inc **** __INLINE__ EE_TYPEBOOL  EE_cpu_startos(void)
  87:Generated_Source\PSoC5/ErikaOS_1_cortex_mx_ee_internal.inc **** {
  88:Generated_Source\PSoC5/ErikaOS_1_cortex_mx_ee_internal.inc ****   EE_system_init();
  87              		.loc 3 88 0
  88 0022 FFF7FEFF 		bl	EE_system_init
  89              	.LVL3:
  90              	.LBE84:
  91              	.LBE83:
 352:Generated_Source\PSoC5/ErikaOS_1_ee_startos.c ****     ev = E_OS_STATE;
 353:Generated_Source\PSoC5/ErikaOS_1_ee_startos.c ****   } else {
 354:Generated_Source\PSoC5/ErikaOS_1_ee_startos.c **** #if (defined(OO_CPU_HAS_STARTOS_ROUTINE)) && (defined(EE_MASTER_CPU))
 355:Generated_Source\PSoC5/ErikaOS_1_ee_startos.c ****     /* the CPU initialization can return an error; 0 if all ok */
 356:Generated_Source\PSoC5/ErikaOS_1_ee_startos.c ****     if ( EE_cpu_startos() != EE_FALSE ) {
 357:Generated_Source\PSoC5/ErikaOS_1_ee_startos.c ****       ev = E_OS_SYS_INIT;
ARM GAS  C:\Users\Reza\AppData\Local\Temp\cchq54cM.s 			page 15


 358:Generated_Source\PSoC5/ErikaOS_1_ee_startos.c ****     } else
 359:Generated_Source\PSoC5/ErikaOS_1_ee_startos.c **** #endif /* OO_CPU_HAS_STARTOS_ROUTINE && EE_MASTER_CPU */
 360:Generated_Source\PSoC5/ErikaOS_1_ee_startos.c ****     {
 361:Generated_Source\PSoC5/ErikaOS_1_ee_startos.c ****       /* Initialize ORTI variables, so the debugger can see their
 362:Generated_Source\PSoC5/ErikaOS_1_ee_startos.c ****          initial value */
 363:Generated_Source\PSoC5/ErikaOS_1_ee_startos.c ****       EE_ORTI_set_runningisr2((EE_ORTI_runningisr2_type)NULL);
 364:Generated_Source\PSoC5/ErikaOS_1_ee_startos.c **** 
 365:Generated_Source\PSoC5/ErikaOS_1_ee_startos.c ****       /* Multicore Startup */
 366:Generated_Source\PSoC5/ErikaOS_1_ee_startos.c **** #if (defined(__MSRP__)) && (!defined(EE_AS_MULTICORE_NO_SYNC))
 367:Generated_Source\PSoC5/ErikaOS_1_ee_startos.c ****       /* [OS609]: If StartOS is called with the AppMode "DONOTCARE" the
 368:Generated_Source\PSoC5/ErikaOS_1_ee_startos.c ****           application mode of the other core(s) (differing from "DONOTCARE")
 369:Generated_Source\PSoC5/ErikaOS_1_ee_startos.c ****           shall be used. (BSW4080006) */
 370:Generated_Source\PSoC5/ErikaOS_1_ee_startos.c ****       /* [OS610]: At least one core shall define an AppMode other than
 371:Generated_Source\PSoC5/ErikaOS_1_ee_startos.c ****           "DONOTCARE". (BSW4080006) */
 372:Generated_Source\PSoC5/ErikaOS_1_ee_startos.c **** 
 373:Generated_Source\PSoC5/ErikaOS_1_ee_startos.c ****       /* It is not allowed to call StartOS on Cores that are not started by
 374:Generated_Source\PSoC5/ErikaOS_1_ee_startos.c ****           StartCore AUTOSAR API.
 375:Generated_Source\PSoC5/ErikaOS_1_ee_startos.c ****           "In Multi-Core configurations, each slave core that is used by AUTOSAR
 376:Generated_Source\PSoC5/ErikaOS_1_ee_startos.c ****           MUST be activated before StartOS is entered on the core".
 377:Generated_Source\PSoC5/ErikaOS_1_ee_startos.c ****         XXX: The condition that a core enter in StartOS even if the core has not
 378:Generated_Source\PSoC5/ErikaOS_1_ee_startos.c ****           been started by a call to StartCore AUTOSAR API is
 379:Generated_Source\PSoC5/ErikaOS_1_ee_startos.c ****           "unspecified behavior" (See Paragraph 7.9.6 Cores which are not
 380:Generated_Source\PSoC5/ErikaOS_1_ee_startos.c ****           controlled by the AUTOSAR OS on AUSTOSAR specification
 381:Generated_Source\PSoC5/ErikaOS_1_ee_startos.c ****           (v 4.0 rev 3.0)).
 382:Generated_Source\PSoC5/ErikaOS_1_ee_startos.c ****           So I decide to handle it jumping in an endless loop. */
 383:Generated_Source\PSoC5/ErikaOS_1_ee_startos.c **** /* TODO: maybe we need a special macro to identify the master core */
 384:Generated_Source\PSoC5/ErikaOS_1_ee_startos.c **** #if (defined(EE_CURRENTCPU)) && (EE_CURRENTCPU != 0)
 385:Generated_Source\PSoC5/ErikaOS_1_ee_startos.c ****       if( ((EE_as_core_mask & ((EE_UREG)1U << EE_CURRENTCPU)) == 0U) )
 386:Generated_Source\PSoC5/ErikaOS_1_ee_startos.c ****       {
 387:Generated_Source\PSoC5/ErikaOS_1_ee_startos.c ****         /* Enter in an endless loop if it happened */
 388:Generated_Source\PSoC5/ErikaOS_1_ee_startos.c ****         EE_oo_start_os();
 389:Generated_Source\PSoC5/ErikaOS_1_ee_startos.c ****       }
 390:Generated_Source\PSoC5/ErikaOS_1_ee_startos.c **** #endif /* EE_CURRENTCPU != 0 */
 391:Generated_Source\PSoC5/ErikaOS_1_ee_startos.c **** 
 392:Generated_Source\PSoC5/ErikaOS_1_ee_startos.c ****       /* Set on current CPU position the actual application mode */
 393:Generated_Source\PSoC5/ErikaOS_1_ee_startos.c ****       EE_as_os_application_mode[EE_CURRENTCPU] = Mode;
 394:Generated_Source\PSoC5/ErikaOS_1_ee_startos.c **** 
 395:Generated_Source\PSoC5/ErikaOS_1_ee_startos.c ****       /* [OS580]: All cores that belong to the AUTOSAR system shall be
 396:Generated_Source\PSoC5/ErikaOS_1_ee_startos.c ****           synchronized within the StartOS before the global StartupHook is
 397:Generated_Source\PSoC5/ErikaOS_1_ee_startos.c ****           called. (BSW4080006) */
 398:Generated_Source\PSoC5/ErikaOS_1_ee_startos.c ****       /* [OS581]: The global StartupHook shall be called on all cores
 399:Generated_Source\PSoC5/ErikaOS_1_ee_startos.c ****           immediately after the first synchronization point. (BSW4080006) */
 400:Generated_Source\PSoC5/ErikaOS_1_ee_startos.c **** 
 401:Generated_Source\PSoC5/ErikaOS_1_ee_startos.c ****       /* Synchronize Cores in Startup. Extracted from AUSTOSAR 4.0 rev 3
 402:Generated_Source\PSoC5/ErikaOS_1_ee_startos.c ****           Specification paragraph 7.9.4 Multi-Core start-up concept:
 403:Generated_Source\PSoC5/ErikaOS_1_ee_startos.c ****           "This release of the AUTOSAR specification does not support timeouts
 404:Generated_Source\PSoC5/ErikaOS_1_ee_startos.c ****           during the synchronization phase. Cores that are activated with
 405:Generated_Source\PSoC5/ErikaOS_1_ee_startos.c ****           StartCore but do not call StartOS may cause the system to hang.
 406:Generated_Source\PSoC5/ErikaOS_1_ee_startos.c ****           It is in the responsibility of the integrator to avoid such
 407:Generated_Source\PSoC5/ErikaOS_1_ee_startos.c ****           behavior." */
 408:Generated_Source\PSoC5/ErikaOS_1_ee_startos.c ****       EE_hal_sync_barrier(&EE_startos_before_hook_barrier, &EE_as_core_mask);
 409:Generated_Source\PSoC5/ErikaOS_1_ee_startos.c **** 
 410:Generated_Source\PSoC5/ErikaOS_1_ee_startos.c ****       /* Initialize Slaves Hardware after First syncronization point:
 411:Generated_Source\PSoC5/ErikaOS_1_ee_startos.c ****          This assure that all the Master Initializations have been done. */
 412:Generated_Source\PSoC5/ErikaOS_1_ee_startos.c **** #if defined(EE_CURRENTCPU) && (EE_CURRENTCPU != 0)
 413:Generated_Source\PSoC5/ErikaOS_1_ee_startos.c **** #if defined(OO_CPU_HAS_STARTOS_ROUTINE)
 414:Generated_Source\PSoC5/ErikaOS_1_ee_startos.c ****       /* the CPU initialization can return an error; 0 if all ok */
ARM GAS  C:\Users\Reza\AppData\Local\Temp\cchq54cM.s 			page 16


 415:Generated_Source\PSoC5/ErikaOS_1_ee_startos.c ****       if ( EE_cpu_startos() ) {
 416:Generated_Source\PSoC5/ErikaOS_1_ee_startos.c ****         /* Enter in an endless loop if it happened */
 417:Generated_Source\PSoC5/ErikaOS_1_ee_startos.c ****         EE_oo_start_os();
 418:Generated_Source\PSoC5/ErikaOS_1_ee_startos.c ****       }
 419:Generated_Source\PSoC5/ErikaOS_1_ee_startos.c **** #endif /* OO_CPU_HAS_STARTOS_ROUTINE */
 420:Generated_Source\PSoC5/ErikaOS_1_ee_startos.c **** #endif /* EE_CURRENTCPU != 0 */
 421:Generated_Source\PSoC5/ErikaOS_1_ee_startos.c ****       /* [OS608]: If more than one core calls StartOS with an AppMode other than
 422:Generated_Source\PSoC5/ErikaOS_1_ee_startos.c ****           "DONOTCARE", the AppModes shall be the same. StartOS shall check this
 423:Generated_Source\PSoC5/ErikaOS_1_ee_startos.c ****           at the first synchronization point. In case of violation, StartOS
 424:Generated_Source\PSoC5/ErikaOS_1_ee_startos.c ****           shall not start the scheduling, shall not call any StartupHooks,
 425:Generated_Source\PSoC5/ErikaOS_1_ee_startos.c ****           and shall enter an endless loop on every core. (BSW4080006) */
 426:Generated_Source\PSoC5/ErikaOS_1_ee_startos.c **** 
 427:Generated_Source\PSoC5/ErikaOS_1_ee_startos.c ****       for ( i = 0U; i < (EE_UREG)EE_MAX_CPU; ++i )
 428:Generated_Source\PSoC5/ErikaOS_1_ee_startos.c ****       {
 429:Generated_Source\PSoC5/ErikaOS_1_ee_startos.c ****         register AppModeType current_mode = EE_as_os_application_mode[i];
 430:Generated_Source\PSoC5/ErikaOS_1_ee_startos.c ****         if ( current_mode != DONOTCARE )
 431:Generated_Source\PSoC5/ErikaOS_1_ee_startos.c ****         {
 432:Generated_Source\PSoC5/ErikaOS_1_ee_startos.c ****           if ( mode_to_check == DONOTCARE ) {
 433:Generated_Source\PSoC5/ErikaOS_1_ee_startos.c ****               mode_to_check = current_mode;
 434:Generated_Source\PSoC5/ErikaOS_1_ee_startos.c ****           } else if ( mode_to_check != current_mode ) {
 435:Generated_Source\PSoC5/ErikaOS_1_ee_startos.c ****             /* Error condition specified by OS608 requirement: enter in an
 436:Generated_Source\PSoC5/ErikaOS_1_ee_startos.c ****                 endless loop */
 437:Generated_Source\PSoC5/ErikaOS_1_ee_startos.c ****             EE_oo_start_os();
 438:Generated_Source\PSoC5/ErikaOS_1_ee_startos.c ****           } else {
 439:Generated_Source\PSoC5/ErikaOS_1_ee_startos.c ****             /* Empty else statement to comply with MISRA 14.10 */
 440:Generated_Source\PSoC5/ErikaOS_1_ee_startos.c ****           }
 441:Generated_Source\PSoC5/ErikaOS_1_ee_startos.c ****         }
 442:Generated_Source\PSoC5/ErikaOS_1_ee_startos.c ****       }
 443:Generated_Source\PSoC5/ErikaOS_1_ee_startos.c **** 
 444:Generated_Source\PSoC5/ErikaOS_1_ee_startos.c ****       if ( mode_to_check != DONOTCARE ) {
 445:Generated_Source\PSoC5/ErikaOS_1_ee_startos.c ****         /* Set mode for this core as mode_to_check */
 446:Generated_Source\PSoC5/ErikaOS_1_ee_startos.c ****         Mode = mode_to_check;
 447:Generated_Source\PSoC5/ErikaOS_1_ee_startos.c ****       } else {
 448:Generated_Source\PSoC5/ErikaOS_1_ee_startos.c ****         /* XXX: It is not specified how to handle the condition that no cores
 449:Generated_Source\PSoC5/ErikaOS_1_ee_startos.c ****            defines an AppMode different from DONOTCARE. I choose to handle it
 450:Generated_Source\PSoC5/ErikaOS_1_ee_startos.c ****            using OSDEFAULTAPPMODE */
 451:Generated_Source\PSoC5/ErikaOS_1_ee_startos.c ****         Mode = OSDEFAULTAPPMODE;
 452:Generated_Source\PSoC5/ErikaOS_1_ee_startos.c ****       }
 453:Generated_Source\PSoC5/ErikaOS_1_ee_startos.c **** #endif /* __MSRP__ && !EE_AS_MULTICORE_NO_SYNC */
 454:Generated_Source\PSoC5/ErikaOS_1_ee_startos.c **** 
 455:Generated_Source\PSoC5/ErikaOS_1_ee_startos.c ****       /* Set EE_ApplicationMode for this core */
 456:Generated_Source\PSoC5/ErikaOS_1_ee_startos.c ****       EE_ApplicationMode = Mode;
  92              		.loc 1 456 0
  93 0026 294B     		ldr	r3, .L14+20
  94 0028 1C60     		str	r4, [r3]
 457:Generated_Source\PSoC5/ErikaOS_1_ee_startos.c **** 
 458:Generated_Source\PSoC5/ErikaOS_1_ee_startos.c ****       /* Set the StartOS flag after all error checks and before return to user
 459:Generated_Source\PSoC5/ErikaOS_1_ee_startos.c ****          code in StartupHook */
 460:Generated_Source\PSoC5/ErikaOS_1_ee_startos.c ****       EE_oo_started = 1U;
  95              		.loc 1 460 0
  96 002a 0123     		movs	r3, #1
  97 002c 2B60     		str	r3, [r5]
  98              	.LVL4:
  99              	.LBB85:
 100              	.LBB86:
 252:Generated_Source\PSoC5/ErikaOS_1_ee_startos.c ****     EE_oo_autostart_tasks(Mode);
 101              		.loc 1 252 0
ARM GAS  C:\Users\Reza\AppData\Local\Temp\cchq54cM.s 			page 17


 102 002e 9CB1     		cbz	r4, .L3
 103              	.LVL5:
 104              	.L10:
 105              	.LBE86:
 106              	.LBE85:
 461:Generated_Source\PSoC5/ErikaOS_1_ee_startos.c **** 
 462:Generated_Source\PSoC5/ErikaOS_1_ee_startos.c **** #if (defined(__OO_HAS_STARTUPHOOK__)) || (defined(__OO_AUTOSTART_TASK__)) \
 463:Generated_Source\PSoC5/ErikaOS_1_ee_startos.c ****   || (defined(__OO_AUTOSTART_ALARM__)) || (defined(EE_AS_AUTOSTART_SCHEDULETABLE__))
 464:Generated_Source\PSoC5/ErikaOS_1_ee_startos.c **** 
 465:Generated_Source\PSoC5/ErikaOS_1_ee_startos.c **** #if (__OO_configUSE_TRACE_FACILITY == 1)
 466:Generated_Source\PSoC5/ErikaOS_1_ee_startos.c ****     EE_oo_creatTaskInfo();
 467:Generated_Source\PSoC5/ErikaOS_1_ee_startos.c **** #endif
 468:Generated_Source\PSoC5/ErikaOS_1_ee_startos.c ****       /* Set the context execution at StartupHook */
 469:Generated_Source\PSoC5/ErikaOS_1_ee_startos.c ****       EE_as_set_execution_context( StartupHook_Context );
 470:Generated_Source\PSoC5/ErikaOS_1_ee_startos.c ****       EE_oo_call_StartupHook();
 471:Generated_Source\PSoC5/ErikaOS_1_ee_startos.c ****       /* Set the context execution at Kernel */
 472:Generated_Source\PSoC5/ErikaOS_1_ee_startos.c ****       EE_as_set_execution_context( Kernel_Context );
 473:Generated_Source\PSoC5/ErikaOS_1_ee_startos.c **** 
 474:Generated_Source\PSoC5/ErikaOS_1_ee_startos.c ****       EE_oo_autostart_os(Mode);
 475:Generated_Source\PSoC5/ErikaOS_1_ee_startos.c **** #endif /* __OO_HAS_STARTUPHOOK__ || __OO_AUTOSTART_TASK__ ||
 476:Generated_Source\PSoC5/ErikaOS_1_ee_startos.c ****           __OO_AUTOSTART_ALARM__ || EE_AS_AUTOSTART_SCHEDULETABLE__ */
 477:Generated_Source\PSoC5/ErikaOS_1_ee_startos.c **** 
 478:Generated_Source\PSoC5/ErikaOS_1_ee_startos.c **** #ifdef EE_AS_OSAPPLICATIONS__
 479:Generated_Source\PSoC5/ErikaOS_1_ee_startos.c ****       /* [OS582]: The OS-Application-specific StartupHooks shall be called
 480:Generated_Source\PSoC5/ErikaOS_1_ee_startos.c ****           after the global StartupHook but only on the cores to which the
 481:Generated_Source\PSoC5/ErikaOS_1_ee_startos.c ****           OS-Application is bound. (BSW4080006, BSW4080008) */
 482:Generated_Source\PSoC5/ErikaOS_1_ee_startos.c ****       {
 483:Generated_Source\PSoC5/ErikaOS_1_ee_startos.c ****         register  ApplicationType i;
 484:Generated_Source\PSoC5/ErikaOS_1_ee_startos.c ****         /* Set the context execution at StartupHook Context */
 485:Generated_Source\PSoC5/ErikaOS_1_ee_startos.c ****         EE_as_set_execution_context( StartupHook_Context );
 486:Generated_Source\PSoC5/ErikaOS_1_ee_startos.c ****         /* ApplID 0 is always reserved by the Kernel */
 487:Generated_Source\PSoC5/ErikaOS_1_ee_startos.c ****         for ( i = 1U; i < EE_MAX_APP; ++i ) {
 488:Generated_Source\PSoC5/ErikaOS_1_ee_startos.c ****           register EE_HOOKTYPE startup_hook = EE_as_Application_startuphook[i];
 489:Generated_Source\PSoC5/ErikaOS_1_ee_startos.c ****           if ( startup_hook != 0U ) {
 490:Generated_Source\PSoC5/ErikaOS_1_ee_startos.c ****             /* [OS226] The Operating System module shall execute an
 491:Generated_Source\PSoC5/ErikaOS_1_ee_startos.c ****                application-specific startup hook with the access rights of the
 492:Generated_Source\PSoC5/ErikaOS_1_ee_startos.c ****                associated OS-Application. */
 493:Generated_Source\PSoC5/ErikaOS_1_ee_startos.c ****             EE_hal_call_app_hook(startup_hook, i);
 494:Generated_Source\PSoC5/ErikaOS_1_ee_startos.c ****           }
 495:Generated_Source\PSoC5/ErikaOS_1_ee_startos.c ****         }
 496:Generated_Source\PSoC5/ErikaOS_1_ee_startos.c ****         /* Set the context execution at Kernel */
 497:Generated_Source\PSoC5/ErikaOS_1_ee_startos.c ****         EE_as_set_execution_context( Kernel_Context );
 498:Generated_Source\PSoC5/ErikaOS_1_ee_startos.c ****       }
 499:Generated_Source\PSoC5/ErikaOS_1_ee_startos.c **** #endif /* EE_AS_OSAPPLICATIONS__ */
 500:Generated_Source\PSoC5/ErikaOS_1_ee_startos.c **** 
 501:Generated_Source\PSoC5/ErikaOS_1_ee_startos.c **** #if (defined(__MSRP__)) && (!defined(EE_AS_MULTICORE_NO_SYNC))
 502:Generated_Source\PSoC5/ErikaOS_1_ee_startos.c ****       /* [OS579]: All cores that belong to the AUTOSAR system shall be
 503:Generated_Source\PSoC5/ErikaOS_1_ee_startos.c ****           synchronized within the StartOS function before the scheduling is
 504:Generated_Source\PSoC5/ErikaOS_1_ee_startos.c ****           started and after the global StartupHook is called.
 505:Generated_Source\PSoC5/ErikaOS_1_ee_startos.c ****           (BSW4080001, BSW4080006) */
 506:Generated_Source\PSoC5/ErikaOS_1_ee_startos.c ****       EE_hal_sync_barrier(&EE_startos_before_scheduling_barrier,
 507:Generated_Source\PSoC5/ErikaOS_1_ee_startos.c ****         &EE_as_core_mask);
 508:Generated_Source\PSoC5/ErikaOS_1_ee_startos.c **** #endif /* __MSRP__ && !EE_AS_MULTICORE_NO_SYNC */
 509:Generated_Source\PSoC5/ErikaOS_1_ee_startos.c **** 
 510:Generated_Source\PSoC5/ErikaOS_1_ee_startos.c ****       /* Check if there is a preemption.
 511:Generated_Source\PSoC5/ErikaOS_1_ee_startos.c ****           This code is optimized for this case, but for code readability we
 512:Generated_Source\PSoC5/ErikaOS_1_ee_startos.c ****           could have been used EE_oo_preemption_point too. */
ARM GAS  C:\Users\Reza\AppData\Local\Temp\cchq54cM.s 			page 18


 513:Generated_Source\PSoC5/ErikaOS_1_ee_startos.c ****       rq = EE_rq_queryfirst();
 107              		.loc 1 513 0
 108 0030 FFF7FEFF 		bl	EE_rq_queryfirst
 109              	.LVL6:
 514:Generated_Source\PSoC5/ErikaOS_1_ee_startos.c ****       if ( rq != EE_NIL ) {
 110              		.loc 1 514 0
 111 0034 431C     		adds	r3, r0, #1
 112 0036 34D0     		beq	.L5
 515:Generated_Source\PSoC5/ErikaOS_1_ee_startos.c ****         /* Get the internal resource */
 516:Generated_Source\PSoC5/ErikaOS_1_ee_startos.c ****         EE_sys_ceiling |= EE_th_dispatch_prio[rq];
 113              		.loc 1 516 0
 114 0038 254A     		ldr	r2, .L14+24
 115 003a 264B     		ldr	r3, .L14+28
 116 003c 53F82010 		ldr	r1, [r3, r0, lsl #2]
 117 0040 1368     		ldr	r3, [r2]
 118 0042 0B43     		orrs	r3, r3, r1
 119 0044 1360     		str	r3, [r2]
 517:Generated_Source\PSoC5/ErikaOS_1_ee_startos.c ****         /* Put the task in running state */
 518:Generated_Source\PSoC5/ErikaOS_1_ee_startos.c ****         EE_th_status[rq] = RUNNING;
 120              		.loc 1 518 0
 121 0046 244B     		ldr	r3, .L14+32
 122 0048 0022     		movs	r2, #0
 123 004a 43F82020 		str	r2, [r3, r0, lsl #2]
 124              	.LVL7:
 519:Generated_Source\PSoC5/ErikaOS_1_ee_startos.c **** 
 520:Generated_Source\PSoC5/ErikaOS_1_ee_startos.c ****         EE_ORTI_set_th_eq_dispatch_prio(rq);
 521:Generated_Source\PSoC5/ErikaOS_1_ee_startos.c **** 
 522:Generated_Source\PSoC5/ErikaOS_1_ee_startos.c ****         /* [SWS_Os_00469]: The Operating System module shall start an
 523:Generated_Source\PSoC5/ErikaOS_1_ee_startos.c ****             OsTaskTimeFrame when a task is activated successfully.
 524:Generated_Source\PSoC5/ErikaOS_1_ee_startos.c ****             (SRS_Os_11008) */
 525:Generated_Source\PSoC5/ErikaOS_1_ee_startos.c ****         /* Enable the inter-arrival for the stacking TASK */
 526:Generated_Source\PSoC5/ErikaOS_1_ee_startos.c ****         (void)EE_as_tp_handle_interarrival(EE_AS_TP_ID_FROM_TASK(rq));
 527:Generated_Source\PSoC5/ErikaOS_1_ee_startos.c **** 
 528:Generated_Source\PSoC5/ErikaOS_1_ee_startos.c ****         /* "Press TP start for the first time" for this new activation of the
 529:Generated_Source\PSoC5/ErikaOS_1_ee_startos.c ****             TASK */
 530:Generated_Source\PSoC5/ErikaOS_1_ee_startos.c ****         EE_as_tp_active_start_on_TASK_stacking(rq);
 531:Generated_Source\PSoC5/ErikaOS_1_ee_startos.c **** 
 532:Generated_Source\PSoC5/ErikaOS_1_ee_startos.c ****         /* Since we are into the StartOS, the task was NOT previously on
 533:Generated_Source\PSoC5/ErikaOS_1_ee_startos.c ****           the stack... (we do not have to check the was stacked field)
 534:Generated_Source\PSoC5/ErikaOS_1_ee_startos.c ****           So the code is equal for basic and extended task
 535:Generated_Source\PSoC5/ErikaOS_1_ee_startos.c ****           (all classes: BCC1, BCC2, ECC1, ECC2 are equal here)
 536:Generated_Source\PSoC5/ErikaOS_1_ee_startos.c ****           Look at EE_oo_run_next_task in ee_internal.inc to see the usual
 537:Generated_Source\PSoC5/ErikaOS_1_ee_startos.c ****           differences. */
 538:Generated_Source\PSoC5/ErikaOS_1_ee_startos.c ****         EE_hal_ready2stacked(EE_rq2stk_exchange());
 125              		.loc 1 538 0
 126 004e FFF7FEFF 		bl	EE_rq2stk_exchange
 127              	.LVL8:
 128              	.LBB112:
 129              	.LBB113:
 130              		.file 4 "Generated_Source\\PSoC5\\ErikaOS_1_cortex_mx_ee_context.inc"
   1:Generated_Source\PSoC5/ErikaOS_1_cortex_mx_ee_context.inc **** /* ###*B*###
   2:Generated_Source\PSoC5/ErikaOS_1_cortex_mx_ee_context.inc ****  * ERIKA Enterprise - a tiny RTOS for small microcontrollers
   3:Generated_Source\PSoC5/ErikaOS_1_cortex_mx_ee_context.inc ****  *
   4:Generated_Source\PSoC5/ErikaOS_1_cortex_mx_ee_context.inc ****  * Copyright (C) 2002-2011  Evidence Srl
   5:Generated_Source\PSoC5/ErikaOS_1_cortex_mx_ee_context.inc ****  *
   6:Generated_Source\PSoC5/ErikaOS_1_cortex_mx_ee_context.inc ****  * This file is part of ERIKA Enterprise.
   7:Generated_Source\PSoC5/ErikaOS_1_cortex_mx_ee_context.inc ****  *
ARM GAS  C:\Users\Reza\AppData\Local\Temp\cchq54cM.s 			page 19


   8:Generated_Source\PSoC5/ErikaOS_1_cortex_mx_ee_context.inc ****  * ERIKA Enterprise is free software; you can redistribute it
   9:Generated_Source\PSoC5/ErikaOS_1_cortex_mx_ee_context.inc ****  * and/or modify it under the terms of the GNU General Public License
  10:Generated_Source\PSoC5/ErikaOS_1_cortex_mx_ee_context.inc ****  * version 2 as published by the Free Software Foundation, 
  11:Generated_Source\PSoC5/ErikaOS_1_cortex_mx_ee_context.inc ****  * (with a special exception described below).
  12:Generated_Source\PSoC5/ErikaOS_1_cortex_mx_ee_context.inc ****  *
  13:Generated_Source\PSoC5/ErikaOS_1_cortex_mx_ee_context.inc ****  * Linking this code statically or dynamically with other modules is
  14:Generated_Source\PSoC5/ErikaOS_1_cortex_mx_ee_context.inc ****  * making a combined work based on this code.  Thus, the terms and
  15:Generated_Source\PSoC5/ErikaOS_1_cortex_mx_ee_context.inc ****  * conditions of the GNU General Public License cover the whole
  16:Generated_Source\PSoC5/ErikaOS_1_cortex_mx_ee_context.inc ****  * combination.
  17:Generated_Source\PSoC5/ErikaOS_1_cortex_mx_ee_context.inc ****  *
  18:Generated_Source\PSoC5/ErikaOS_1_cortex_mx_ee_context.inc ****  * As a special exception, the copyright holders of this library give you
  19:Generated_Source\PSoC5/ErikaOS_1_cortex_mx_ee_context.inc ****  * permission to link this code with independent modules to produce an
  20:Generated_Source\PSoC5/ErikaOS_1_cortex_mx_ee_context.inc ****  * executable, regardless of the license terms of these independent
  21:Generated_Source\PSoC5/ErikaOS_1_cortex_mx_ee_context.inc ****  * modules, and to copy and distribute the resulting executable under
  22:Generated_Source\PSoC5/ErikaOS_1_cortex_mx_ee_context.inc ****  * terms of your choice, provided that you also meet, for each linked
  23:Generated_Source\PSoC5/ErikaOS_1_cortex_mx_ee_context.inc ****  * independent module, the terms and conditions of the license of that
  24:Generated_Source\PSoC5/ErikaOS_1_cortex_mx_ee_context.inc ****  * module.  An independent module is a module which is not derived from
  25:Generated_Source\PSoC5/ErikaOS_1_cortex_mx_ee_context.inc ****  * or based on this library.  If you modify this code, you may extend
  26:Generated_Source\PSoC5/ErikaOS_1_cortex_mx_ee_context.inc ****  * this exception to your version of the code, but you are not
  27:Generated_Source\PSoC5/ErikaOS_1_cortex_mx_ee_context.inc ****  * obligated to do so.  If you do not wish to do so, delete this
  28:Generated_Source\PSoC5/ErikaOS_1_cortex_mx_ee_context.inc ****  * exception statement from your version.
  29:Generated_Source\PSoC5/ErikaOS_1_cortex_mx_ee_context.inc ****  *
  30:Generated_Source\PSoC5/ErikaOS_1_cortex_mx_ee_context.inc ****  * ERIKA Enterprise is distributed in the hope that it will be
  31:Generated_Source\PSoC5/ErikaOS_1_cortex_mx_ee_context.inc ****  * useful, but WITHOUT ANY WARRANTY; without even the implied warranty
  32:Generated_Source\PSoC5/ErikaOS_1_cortex_mx_ee_context.inc ****  * of MERCHANTABILITY or FITNESS FOR A PARTICULAR PURPOSE.  See the
  33:Generated_Source\PSoC5/ErikaOS_1_cortex_mx_ee_context.inc ****  * GNU General Public License version 2 for more details.
  34:Generated_Source\PSoC5/ErikaOS_1_cortex_mx_ee_context.inc ****  *
  35:Generated_Source\PSoC5/ErikaOS_1_cortex_mx_ee_context.inc ****  * You should have received a copy of the GNU General Public License
  36:Generated_Source\PSoC5/ErikaOS_1_cortex_mx_ee_context.inc ****  * version 2 along with ERIKA Enterprise; if not, write to the
  37:Generated_Source\PSoC5/ErikaOS_1_cortex_mx_ee_context.inc ****  * Free Software Foundation, Inc., 51 Franklin Street, Fifth Floor,
  38:Generated_Source\PSoC5/ErikaOS_1_cortex_mx_ee_context.inc ****  * Boston, MA 02110-1301 USA.
  39:Generated_Source\PSoC5/ErikaOS_1_cortex_mx_ee_context.inc ****  * ###*E*### */
  40:Generated_Source\PSoC5/ErikaOS_1_cortex_mx_ee_context.inc **** 
  41:Generated_Source\PSoC5/ErikaOS_1_cortex_mx_ee_context.inc **** /** 
  42:Generated_Source\PSoC5/ErikaOS_1_cortex_mx_ee_context.inc **** 	@file ee_internal.h
  43:Generated_Source\PSoC5/ErikaOS_1_cortex_mx_ee_context.inc **** 	@brief Derived from cpu/common/inc/ee_internal.h
  44:Generated_Source\PSoC5/ErikaOS_1_cortex_mx_ee_context.inc **** 	@author Gianluca Franchino
  45:Generated_Source\PSoC5/ErikaOS_1_cortex_mx_ee_context.inc **** 	@author Giuseppe Serano
  46:Generated_Source\PSoC5/ErikaOS_1_cortex_mx_ee_context.inc **** 	@date 2011
  47:Generated_Source\PSoC5/ErikaOS_1_cortex_mx_ee_context.inc **** */  
  48:Generated_Source\PSoC5/ErikaOS_1_cortex_mx_ee_context.inc ****     
  49:Generated_Source\PSoC5/ErikaOS_1_cortex_mx_ee_context.inc **** /*
  50:Generated_Source\PSoC5/ErikaOS_1_cortex_mx_ee_context.inc ****  * PSoC Port and API Generation
  51:Generated_Source\PSoC5/ErikaOS_1_cortex_mx_ee_context.inc ****  * Carlos Fernando Meier Martinez
  52:Generated_Source\PSoC5/ErikaOS_1_cortex_mx_ee_context.inc ****  * Hochschule Darmstadt, Germany. 2017.
  53:Generated_Source\PSoC5/ErikaOS_1_cortex_mx_ee_context.inc ****  */
  54:Generated_Source\PSoC5/ErikaOS_1_cortex_mx_ee_context.inc **** 
  55:Generated_Source\PSoC5/ErikaOS_1_cortex_mx_ee_context.inc **** #ifndef __INCLUDE_CPU_CORTEX_MX_EE_CONTEXT__
  56:Generated_Source\PSoC5/ErikaOS_1_cortex_mx_ee_context.inc **** #define __INCLUDE_CPU_CORTEX_MX_EE_CONTEXT__
  57:Generated_Source\PSoC5/ErikaOS_1_cortex_mx_ee_context.inc **** 
  58:Generated_Source\PSoC5/ErikaOS_1_cortex_mx_ee_context.inc **** /*
  59:Generated_Source\PSoC5/ErikaOS_1_cortex_mx_ee_context.inc ****  * Instructions
  60:Generated_Source\PSoC5/ErikaOS_1_cortex_mx_ee_context.inc ****  *
  61:Generated_Source\PSoC5/ErikaOS_1_cortex_mx_ee_context.inc ****  * The monostack part is complete (obviously, the functions to disable/enable
  62:Generated_Source\PSoC5/ErikaOS_1_cortex_mx_ee_context.inc ****  *  interrupts are not included here).  For the multistack part you have to
  63:Generated_Source\PSoC5/ErikaOS_1_cortex_mx_ee_context.inc ****  *  provide two additional things:
  64:Generated_Source\PSoC5/ErikaOS_1_cortex_mx_ee_context.inc ****  *  1. An assembly implementation of EE_std_change_context_multi(); see below.
ARM GAS  C:\Users\Reza\AppData\Local\Temp\cchq54cM.s 			page 20


  65:Generated_Source\PSoC5/ErikaOS_1_cortex_mx_ee_context.inc ****  *  2. A #define directive for EE_hal_active_tos, which is just an alias for the
  66:Generated_Source\PSoC5/ErikaOS_1_cortex_mx_ee_context.inc ****  *  actual architecture-dependent variable.  This variable contains the index of
  67:Generated_Source\PSoC5/ErikaOS_1_cortex_mx_ee_context.inc ****  *  the current stack.
  68:Generated_Source\PSoC5/ErikaOS_1_cortex_mx_ee_context.inc ****  */
  69:Generated_Source\PSoC5/ErikaOS_1_cortex_mx_ee_context.inc **** 
  70:Generated_Source\PSoC5/ErikaOS_1_cortex_mx_ee_context.inc **** /* After a task terminates, the scheduler puts the id of the new task to launch
  71:Generated_Source\PSoC5/ErikaOS_1_cortex_mx_ee_context.inc ****  * or switch to in this variable.  If the is stacked, its id is marked so. */
  72:Generated_Source\PSoC5/ErikaOS_1_cortex_mx_ee_context.inc **** extern EE_TID EE_std_endcycle_next_tid;
  73:Generated_Source\PSoC5/ErikaOS_1_cortex_mx_ee_context.inc **** 
  74:Generated_Source\PSoC5/ErikaOS_1_cortex_mx_ee_context.inc **** /* The multistack version must be implemented in ASM; no standard
  75:Generated_Source\PSoC5/ErikaOS_1_cortex_mx_ee_context.inc ****  * implementation, sorry.  This is the only function that performs context
  76:Generated_Source\PSoC5/ErikaOS_1_cortex_mx_ee_context.inc ****  * switching.  The multistack version doesn't jump to the task body if its TID
  77:Generated_Source\PSoC5/ErikaOS_1_cortex_mx_ee_context.inc ****  * has been maked as stacked.  This is used to switch to a task that has been
  78:Generated_Source\PSoC5/ErikaOS_1_cortex_mx_ee_context.inc ****  * suspend by a previous call to EE_std_change_contex(). */
  79:Generated_Source\PSoC5/ErikaOS_1_cortex_mx_ee_context.inc **** void EE_cortex_mx_change_context(EE_TID tid);
  80:Generated_Source\PSoC5/ErikaOS_1_cortex_mx_ee_context.inc **** /* Pseudo code for EE_std_change_context_multi():
  81:Generated_Source\PSoC5/ErikaOS_1_cortex_mx_ee_context.inc ****      begin:
  82:Generated_Source\PSoC5/ErikaOS_1_cortex_mx_ee_context.inc ****       tos_index = EE_std_thread_tos[tid+1];
  83:Generated_Source\PSoC5/ErikaOS_1_cortex_mx_ee_context.inc ****       if is_not_the_current_stack(tos_index) {
  84:Generated_Source\PSoC5/ErikaOS_1_cortex_mx_ee_context.inc ****           save_caller_saved_registers();
  85:Generated_Source\PSoC5/ErikaOS_1_cortex_mx_ee_context.inc ****           switch_stacks(tos_index);
  86:Generated_Source\PSoC5/ErikaOS_1_cortex_mx_ee_context.inc ****           restore_caller_saved_registers();
  87:Generated_Source\PSoC5/ErikaOS_1_cortex_mx_ee_context.inc ****       }
  88:Generated_Source\PSoC5/ErikaOS_1_cortex_mx_ee_context.inc ****       if (is_not_marked_stacked(tid)) {
  89:Generated_Source\PSoC5/ErikaOS_1_cortex_mx_ee_context.inc ****           tid = EE_std_run_task_code(tid);
  90:Generated_Source\PSoC5/ErikaOS_1_cortex_mx_ee_context.inc ****           goto begin;
  91:Generated_Source\PSoC5/ErikaOS_1_cortex_mx_ee_context.inc ****       }
  92:Generated_Source\PSoC5/ErikaOS_1_cortex_mx_ee_context.inc **** 
  93:Generated_Source\PSoC5/ErikaOS_1_cortex_mx_ee_context.inc ****       Please notice that the "goto begin" is actually a recursive call to
  94:Generated_Source\PSoC5/ErikaOS_1_cortex_mx_ee_context.inc ****       EE_std_change_context_multi(), but in this way there is no stack growing.
  95:Generated_Source\PSoC5/ErikaOS_1_cortex_mx_ee_context.inc ****       
  96:Generated_Source\PSoC5/ErikaOS_1_cortex_mx_ee_context.inc ****       Please notice also that 'tid' must NOT be saved onto the stack before
  97:Generated_Source\PSoC5/ErikaOS_1_cortex_mx_ee_context.inc ****       switching stacks, otherwise when switching from another stack back to the
  98:Generated_Source\PSoC5/ErikaOS_1_cortex_mx_ee_context.inc ****       current one, you would overwrite its value.
  99:Generated_Source\PSoC5/ErikaOS_1_cortex_mx_ee_context.inc **** 
 100:Generated_Source\PSoC5/ErikaOS_1_cortex_mx_ee_context.inc ****       For processors where the return address is saved in a register, that
 101:Generated_Source\PSoC5/ErikaOS_1_cortex_mx_ee_context.inc ****       register must be saved in the stack too.
 102:Generated_Source\PSoC5/ErikaOS_1_cortex_mx_ee_context.inc **** 
 103:Generated_Source\PSoC5/ErikaOS_1_cortex_mx_ee_context.inc ****       switch_stacks() should also update EE_hal_active_tos.
 104:Generated_Source\PSoC5/ErikaOS_1_cortex_mx_ee_context.inc **** */
 105:Generated_Source\PSoC5/ErikaOS_1_cortex_mx_ee_context.inc **** 
 106:Generated_Source\PSoC5/ErikaOS_1_cortex_mx_ee_context.inc **** /* Call a the body of a task */
 107:Generated_Source\PSoC5/ErikaOS_1_cortex_mx_ee_context.inc **** #if defined(__OO_BCC1__) || defined(__OO_BCC2__) || \
 108:Generated_Source\PSoC5/ErikaOS_1_cortex_mx_ee_context.inc ****  defined(__OO_ECC1__) || defined(__OO_ECC2__)
 109:Generated_Source\PSoC5/ErikaOS_1_cortex_mx_ee_context.inc **** #define EE_call_task_body(tid)  EE_oo_thread_stub()
 110:Generated_Source\PSoC5/ErikaOS_1_cortex_mx_ee_context.inc **** #else
 111:Generated_Source\PSoC5/ErikaOS_1_cortex_mx_ee_context.inc **** #define EE_call_task_body(tid)  (((void (*)(void))EE_hal_thread_body[tid])())
 112:Generated_Source\PSoC5/ErikaOS_1_cortex_mx_ee_context.inc **** #endif
 113:Generated_Source\PSoC5/ErikaOS_1_cortex_mx_ee_context.inc **** 
 114:Generated_Source\PSoC5/ErikaOS_1_cortex_mx_ee_context.inc **** 
 115:Generated_Source\PSoC5/ErikaOS_1_cortex_mx_ee_context.inc **** /* Launch a new task, possibly switching to a different stack, clean up the task
 116:Generated_Source\PSoC5/ErikaOS_1_cortex_mx_ee_context.inc ****  * after it ends, and call the scheduler (and switch to other tasks/stacks)
 117:Generated_Source\PSoC5/ErikaOS_1_cortex_mx_ee_context.inc ****  * until there are no more tasks to switch to.  In the multistack version, also
 118:Generated_Source\PSoC5/ErikaOS_1_cortex_mx_ee_context.inc ****  * change the current stack before returning if the scheduler asks for it. */
 119:Generated_Source\PSoC5/ErikaOS_1_cortex_mx_ee_context.inc **** __DECLARE_INLINE__ void EE_hal_ready2stacked(EE_TID tid);
 120:Generated_Source\PSoC5/ErikaOS_1_cortex_mx_ee_context.inc **** 
 121:Generated_Source\PSoC5/ErikaOS_1_cortex_mx_ee_context.inc **** 
ARM GAS  C:\Users\Reza\AppData\Local\Temp\cchq54cM.s 			page 21


 122:Generated_Source\PSoC5/ErikaOS_1_cortex_mx_ee_context.inc **** /* Launch a new task on the current stack, clean up the task after it ends, and
 123:Generated_Source\PSoC5/ErikaOS_1_cortex_mx_ee_context.inc ****  * call the scheduler.  Return the next task to launch, which is "marked as
 124:Generated_Source\PSoC5/ErikaOS_1_cortex_mx_ee_context.inc ****  * stacked" if there is no new task to launch. */
 125:Generated_Source\PSoC5/ErikaOS_1_cortex_mx_ee_context.inc **** EE_TID EE_std_run_task_code(EE_TID tid);
 126:Generated_Source\PSoC5/ErikaOS_1_cortex_mx_ee_context.inc **** 
 127:Generated_Source\PSoC5/ErikaOS_1_cortex_mx_ee_context.inc **** 
 128:Generated_Source\PSoC5/ErikaOS_1_cortex_mx_ee_context.inc **** /*
 129:Generated_Source\PSoC5/ErikaOS_1_cortex_mx_ee_context.inc ****  * Inline implementations
 130:Generated_Source\PSoC5/ErikaOS_1_cortex_mx_ee_context.inc ****  */
 131:Generated_Source\PSoC5/ErikaOS_1_cortex_mx_ee_context.inc **** 
 132:Generated_Source\PSoC5/ErikaOS_1_cortex_mx_ee_context.inc **** 
 133:Generated_Source\PSoC5/ErikaOS_1_cortex_mx_ee_context.inc **** #ifdef __MONO__
 134:Generated_Source\PSoC5/ErikaOS_1_cortex_mx_ee_context.inc **** 
 135:Generated_Source\PSoC5/ErikaOS_1_cortex_mx_ee_context.inc **** /* With monostack, we need only the information that the task is stacked.  We
 136:Generated_Source\PSoC5/ErikaOS_1_cortex_mx_ee_context.inc ****  * don't need to know which task it is, as there is no new stack to switch
 137:Generated_Source\PSoC5/ErikaOS_1_cortex_mx_ee_context.inc ****  * to. */
 138:Generated_Source\PSoC5/ErikaOS_1_cortex_mx_ee_context.inc **** #define EE_std_mark_tid_stacked(tid) ((EE_TID)-1)
 139:Generated_Source\PSoC5/ErikaOS_1_cortex_mx_ee_context.inc **** 
 140:Generated_Source\PSoC5/ErikaOS_1_cortex_mx_ee_context.inc **** #define EE_std_need_context_change(tid) ((tid) >= 0)
 141:Generated_Source\PSoC5/ErikaOS_1_cortex_mx_ee_context.inc **** 
 142:Generated_Source\PSoC5/ErikaOS_1_cortex_mx_ee_context.inc **** #endif /* __MONO__ */
 143:Generated_Source\PSoC5/ErikaOS_1_cortex_mx_ee_context.inc **** 
 144:Generated_Source\PSoC5/ErikaOS_1_cortex_mx_ee_context.inc **** 
 145:Generated_Source\PSoC5/ErikaOS_1_cortex_mx_ee_context.inc **** #ifdef __MULTI__
 146:Generated_Source\PSoC5/ErikaOS_1_cortex_mx_ee_context.inc **** 
 147:Generated_Source\PSoC5/ErikaOS_1_cortex_mx_ee_context.inc **** /* TID_IS_STACKED_MARK must set the most significative bit */
 148:Generated_Source\PSoC5/ErikaOS_1_cortex_mx_ee_context.inc **** #define EE_std_mark_tid_stacked(tid) ((tid) | (EE_TID)TID_IS_STACKED_MARK)
 149:Generated_Source\PSoC5/ErikaOS_1_cortex_mx_ee_context.inc **** 
 150:Generated_Source\PSoC5/ErikaOS_1_cortex_mx_ee_context.inc **** extern int EE_std_need_context_change(EE_TID tid);
 151:Generated_Source\PSoC5/ErikaOS_1_cortex_mx_ee_context.inc **** 
 152:Generated_Source\PSoC5/ErikaOS_1_cortex_mx_ee_context.inc **** __INLINE__ void  EE_hal_stkchange(EE_TID tid)
 153:Generated_Source\PSoC5/ErikaOS_1_cortex_mx_ee_context.inc **** {
 154:Generated_Source\PSoC5/ErikaOS_1_cortex_mx_ee_context.inc ****     EE_cortex_mx_change_context(EE_std_mark_tid_stacked(tid));
 155:Generated_Source\PSoC5/ErikaOS_1_cortex_mx_ee_context.inc **** }
 156:Generated_Source\PSoC5/ErikaOS_1_cortex_mx_ee_context.inc **** 
 157:Generated_Source\PSoC5/ErikaOS_1_cortex_mx_ee_context.inc **** #endif /* __MULTI__ */
 158:Generated_Source\PSoC5/ErikaOS_1_cortex_mx_ee_context.inc **** 
 159:Generated_Source\PSoC5/ErikaOS_1_cortex_mx_ee_context.inc **** 
 160:Generated_Source\PSoC5/ErikaOS_1_cortex_mx_ee_context.inc **** /* The functions below should work for both the monostack and multistack
 161:Generated_Source\PSoC5/ErikaOS_1_cortex_mx_ee_context.inc ****  * versions of the kernel, thanks to the macros defined above.  In the mono
 162:Generated_Source\PSoC5/ErikaOS_1_cortex_mx_ee_context.inc ****  * version, all the stack-related stuff is ignored. */
 163:Generated_Source\PSoC5/ErikaOS_1_cortex_mx_ee_context.inc **** 
 164:Generated_Source\PSoC5/ErikaOS_1_cortex_mx_ee_context.inc **** 
 165:Generated_Source\PSoC5/ErikaOS_1_cortex_mx_ee_context.inc **** __INLINE__ void  EE_hal_ready2stacked(EE_TID tid)
 166:Generated_Source\PSoC5/ErikaOS_1_cortex_mx_ee_context.inc **** {
 167:Generated_Source\PSoC5/ErikaOS_1_cortex_mx_ee_context.inc ****     EE_cortex_mx_change_context(tid);
 131              		.loc 4 167 0
 132 0052 FFF7FEFF 		bl	EE_cortex_mx_change_context
 133              	.LVL9:
 134 0056 24E0     		b	.L5
 135              	.LVL10:
 136              	.L3:
 137              	.LBE113:
 138              	.LBE112:
 139              	.LBB114:
 140              	.LBB111:
 141              	.LBB87:
ARM GAS  C:\Users\Reza\AppData\Local\Temp\cchq54cM.s 			page 22


 142              	.LBB88:
 150:Generated_Source\PSoC5/ErikaOS_1_ee_startos.c ****   for ( t = 0U; t < ntask; t++ ) {
 143              		.loc 1 150 0
 144 0058 204F     		ldr	r7, .L14+36
 145              	.LBB89:
 146              	.LBB90:
 147              	.LBB91:
 148              		.file 5 "Generated_Source\\PSoC5\\ErikaOS_1_ee_oo_internal.inc"
   1:Generated_Source\PSoC5/ErikaOS_1_ee_oo_internal.inc **** /* ###*B*###
   2:Generated_Source\PSoC5/ErikaOS_1_ee_oo_internal.inc ****  * ERIKA Enterprise - a tiny RTOS for small microcontrollers
   3:Generated_Source\PSoC5/ErikaOS_1_ee_oo_internal.inc ****  *
   4:Generated_Source\PSoC5/ErikaOS_1_ee_oo_internal.inc ****  * Copyright (C) 2002-2008  Evidence Srl
   5:Generated_Source\PSoC5/ErikaOS_1_ee_oo_internal.inc ****  *
   6:Generated_Source\PSoC5/ErikaOS_1_ee_oo_internal.inc ****  * This file is part of ERIKA Enterprise.
   7:Generated_Source\PSoC5/ErikaOS_1_ee_oo_internal.inc ****  *
   8:Generated_Source\PSoC5/ErikaOS_1_ee_oo_internal.inc ****  * ERIKA Enterprise is free software; you can redistribute it
   9:Generated_Source\PSoC5/ErikaOS_1_ee_oo_internal.inc ****  * and/or modify it under the terms of the GNU General Public License
  10:Generated_Source\PSoC5/ErikaOS_1_ee_oo_internal.inc ****  * version 2 as published by the Free Software Foundation, 
  11:Generated_Source\PSoC5/ErikaOS_1_ee_oo_internal.inc ****  * (with a special exception described below).
  12:Generated_Source\PSoC5/ErikaOS_1_ee_oo_internal.inc ****  *
  13:Generated_Source\PSoC5/ErikaOS_1_ee_oo_internal.inc ****  * Linking this code statically or dynamically with other modules is
  14:Generated_Source\PSoC5/ErikaOS_1_ee_oo_internal.inc ****  * making a combined work based on this code.  Thus, the terms and
  15:Generated_Source\PSoC5/ErikaOS_1_ee_oo_internal.inc ****  * conditions of the GNU General Public License cover the whole
  16:Generated_Source\PSoC5/ErikaOS_1_ee_oo_internal.inc ****  * combination.
  17:Generated_Source\PSoC5/ErikaOS_1_ee_oo_internal.inc ****  *
  18:Generated_Source\PSoC5/ErikaOS_1_ee_oo_internal.inc ****  * As a special exception, the copyright holders of this library give you
  19:Generated_Source\PSoC5/ErikaOS_1_ee_oo_internal.inc ****  * permission to link this code with independent modules to produce an
  20:Generated_Source\PSoC5/ErikaOS_1_ee_oo_internal.inc ****  * executable, regardless of the license terms of these independent
  21:Generated_Source\PSoC5/ErikaOS_1_ee_oo_internal.inc ****  * modules, and to copy and distribute the resulting executable under
  22:Generated_Source\PSoC5/ErikaOS_1_ee_oo_internal.inc ****  * terms of your choice, provided that you also meet, for each linked
  23:Generated_Source\PSoC5/ErikaOS_1_ee_oo_internal.inc ****  * independent module, the terms and conditions of the license of that
  24:Generated_Source\PSoC5/ErikaOS_1_ee_oo_internal.inc ****  * module.  An independent module is a module which is not derived from
  25:Generated_Source\PSoC5/ErikaOS_1_ee_oo_internal.inc ****  * or based on this library.  If you modify this code, you may extend
  26:Generated_Source\PSoC5/ErikaOS_1_ee_oo_internal.inc ****  * this exception to your version of the code, but you are not
  27:Generated_Source\PSoC5/ErikaOS_1_ee_oo_internal.inc ****  * obligated to do so.  If you do not wish to do so, delete this
  28:Generated_Source\PSoC5/ErikaOS_1_ee_oo_internal.inc ****  * exception statement from your version.
  29:Generated_Source\PSoC5/ErikaOS_1_ee_oo_internal.inc ****  *
  30:Generated_Source\PSoC5/ErikaOS_1_ee_oo_internal.inc ****  * ERIKA Enterprise is distributed in the hope that it will be
  31:Generated_Source\PSoC5/ErikaOS_1_ee_oo_internal.inc ****  * useful, but WITHOUT ANY WARRANTY; without even the implied warranty
  32:Generated_Source\PSoC5/ErikaOS_1_ee_oo_internal.inc ****  * of MERCHANTABILITY or FITNESS FOR A PARTICULAR PURPOSE.  See the
  33:Generated_Source\PSoC5/ErikaOS_1_ee_oo_internal.inc ****  * GNU General Public License version 2 for more details.
  34:Generated_Source\PSoC5/ErikaOS_1_ee_oo_internal.inc ****  *
  35:Generated_Source\PSoC5/ErikaOS_1_ee_oo_internal.inc ****  * You should have received a copy of the GNU General Public License
  36:Generated_Source\PSoC5/ErikaOS_1_ee_oo_internal.inc ****  * version 2 along with ERIKA Enterprise; if not, write to the
  37:Generated_Source\PSoC5/ErikaOS_1_ee_oo_internal.inc ****  * Free Software Foundation, Inc., 51 Franklin Street, Fifth Floor,
  38:Generated_Source\PSoC5/ErikaOS_1_ee_oo_internal.inc ****  * Boston, MA 02110-1301 USA.
  39:Generated_Source\PSoC5/ErikaOS_1_ee_oo_internal.inc ****  * ###*E*### */
  40:Generated_Source\PSoC5/ErikaOS_1_ee_oo_internal.inc **** 
  41:Generated_Source\PSoC5/ErikaOS_1_ee_oo_internal.inc **** /*
  42:Generated_Source\PSoC5/ErikaOS_1_ee_oo_internal.inc ****  * Author: 2002 Paolo Gai
  43:Generated_Source\PSoC5/ErikaOS_1_ee_oo_internal.inc ****  * CVS: $Id: ee_internal.h,v 1.6 2006/12/03 22:07:50 pj Exp $
  44:Generated_Source\PSoC5/ErikaOS_1_ee_oo_internal.inc ****  */
  45:Generated_Source\PSoC5/ErikaOS_1_ee_oo_internal.inc **** 
  46:Generated_Source\PSoC5/ErikaOS_1_ee_oo_internal.inc **** /*
  47:Generated_Source\PSoC5/ErikaOS_1_ee_oo_internal.inc ****  * PSoC Port and API Generation
  48:Generated_Source\PSoC5/ErikaOS_1_ee_oo_internal.inc ****  * Carlos Fernando Meier Martinez
  49:Generated_Source\PSoC5/ErikaOS_1_ee_oo_internal.inc ****  * Hochschule Darmstadt, Germany. 2017.
ARM GAS  C:\Users\Reza\AppData\Local\Temp\cchq54cM.s 			page 23


  50:Generated_Source\PSoC5/ErikaOS_1_ee_oo_internal.inc ****  */
  51:Generated_Source\PSoC5/ErikaOS_1_ee_oo_internal.inc **** 
  52:Generated_Source\PSoC5/ErikaOS_1_ee_oo_internal.inc **** #ifndef PKG_KERNEL_OO_INC_EE_OO_INTERNAL_H
  53:Generated_Source\PSoC5/ErikaOS_1_ee_oo_internal.inc **** #define PKG_KERNEL_OO_INC_EE_OO_INTERNAL_H
  54:Generated_Source\PSoC5/ErikaOS_1_ee_oo_internal.inc **** 
  55:Generated_Source\PSoC5/ErikaOS_1_ee_oo_internal.inc **** #include "ErikaOS_1_ee_oo_common.inc"
  56:Generated_Source\PSoC5/ErikaOS_1_ee_oo_internal.inc **** #include "ErikaOS_1_ee_oo_intfunc.inc"
  57:Generated_Source\PSoC5/ErikaOS_1_ee_oo_internal.inc **** #include "ErikaOS_1_ee_oo_irq.inc"
  58:Generated_Source\PSoC5/ErikaOS_1_ee_oo_internal.inc **** #if (__OO_configUSE_TRACE_FACILITY == 1)
  59:Generated_Source\PSoC5/ErikaOS_1_ee_oo_internal.inc **** #include "trcKernelPort.h" 
  60:Generated_Source\PSoC5/ErikaOS_1_ee_oo_internal.inc **** #endif
  61:Generated_Source\PSoC5/ErikaOS_1_ee_oo_internal.inc **** /*******************************************************************************
  62:Generated_Source\PSoC5/ErikaOS_1_ee_oo_internal.inc ****  *                    New Error Handling Internal Utilities
  63:Generated_Source\PSoC5/ErikaOS_1_ee_oo_internal.inc ****  ******************************************************************************/
  64:Generated_Source\PSoC5/ErikaOS_1_ee_oo_internal.inc **** 
  65:Generated_Source\PSoC5/ErikaOS_1_ee_oo_internal.inc **** /* Error Parameters Utilities Macros */
  66:Generated_Source\PSoC5/ErikaOS_1_ee_oo_internal.inc **** #define EE_OS_PARAM(param_name)   EE_os_param param_name
  67:Generated_Source\PSoC5/ErikaOS_1_ee_oo_internal.inc **** #define EE_OS_PARAM_VALUE(param_name, param_value)  \
  68:Generated_Source\PSoC5/ErikaOS_1_ee_oo_internal.inc ****   ((param_name).value_param = (param_value))
  69:Generated_Source\PSoC5/ErikaOS_1_ee_oo_internal.inc **** 
  70:Generated_Source\PSoC5/ErikaOS_1_ee_oo_internal.inc **** #define EE_OS_PARAM_REF(param_name, param_field, param_ref) \
  71:Generated_Source\PSoC5/ErikaOS_1_ee_oo_internal.inc ****   ((param_name).param_field = (param_ref))
  72:Generated_Source\PSoC5/ErikaOS_1_ee_oo_internal.inc **** 
  73:Generated_Source\PSoC5/ErikaOS_1_ee_oo_internal.inc **** #ifdef __OO_HAS_ERRORHOOK__
  74:Generated_Source\PSoC5/ErikaOS_1_ee_oo_internal.inc **** /* Error Parameters Data Structure Utilities Macros from user space */
  75:Generated_Source\PSoC5/ErikaOS_1_ee_oo_internal.inc **** #define EE_OS_ERROR_PARAMETERS()  EE_oo_ErrorHook_parameters error_parameters
  76:Generated_Source\PSoC5/ErikaOS_1_ee_oo_internal.inc **** 
  77:Generated_Source\PSoC5/ErikaOS_1_ee_oo_internal.inc **** #define EE_OS_ERROR_PARAMETERS_INIT(param1_in,param2_in,param3_in)  \
  78:Generated_Source\PSoC5/ErikaOS_1_ee_oo_internal.inc ****   EE_oo_ErrorHook_parameters error_parameters = { param1_in, param2_in, \
  79:Generated_Source\PSoC5/ErikaOS_1_ee_oo_internal.inc ****     param3_in }
  80:Generated_Source\PSoC5/ErikaOS_1_ee_oo_internal.inc **** 
  81:Generated_Source\PSoC5/ErikaOS_1_ee_oo_internal.inc **** #define EE_OS_ERROR_PARAMETERS_PARAM1_VALUE(param1_value) \
  82:Generated_Source\PSoC5/ErikaOS_1_ee_oo_internal.inc ****   (error_parameters.param1.value_param = param1_value)
  83:Generated_Source\PSoC5/ErikaOS_1_ee_oo_internal.inc **** #define EE_OS_ERROR_PARAMETERS_PARAM2_VALUE(param2_value) \
  84:Generated_Source\PSoC5/ErikaOS_1_ee_oo_internal.inc ****   (error_parameters.param2.value_param = param2_value)
  85:Generated_Source\PSoC5/ErikaOS_1_ee_oo_internal.inc **** #define EE_OS_ERROR_PARAMETERS_PARAM3_VALUE(param3_value) \
  86:Generated_Source\PSoC5/ErikaOS_1_ee_oo_internal.inc ****   (error_parameters.param3.value_param = param3_value)
  87:Generated_Source\PSoC5/ErikaOS_1_ee_oo_internal.inc **** 
  88:Generated_Source\PSoC5/ErikaOS_1_ee_oo_internal.inc **** #define EE_OS_ERROR_PARAMETERS_PARAM1_REF(param_field,param_ref)  \
  89:Generated_Source\PSoC5/ErikaOS_1_ee_oo_internal.inc ****   (error_parameters.param1.param_field = (param_ref))
  90:Generated_Source\PSoC5/ErikaOS_1_ee_oo_internal.inc **** #define EE_OS_ERROR_PARAMETERS_PARAM2_REF(param_field,param_ref)  \
  91:Generated_Source\PSoC5/ErikaOS_1_ee_oo_internal.inc ****   (error_parameters.param2.param_field = (param_ref))
  92:Generated_Source\PSoC5/ErikaOS_1_ee_oo_internal.inc **** #define EE_OS_ERROR_PARAMETERS_PARAM3_REF(param_field,param_ref)  \
  93:Generated_Source\PSoC5/ErikaOS_1_ee_oo_internal.inc ****   (error_parameters.param3.param_field = (param_ref))
  94:Generated_Source\PSoC5/ErikaOS_1_ee_oo_internal.inc **** #else /* __OO_HAS_ERRORHOOK__ */
  95:Generated_Source\PSoC5/ErikaOS_1_ee_oo_internal.inc **** #define EE_OS_ERROR_PARAMETERS()                                    ((void)0)
  96:Generated_Source\PSoC5/ErikaOS_1_ee_oo_internal.inc **** 
  97:Generated_Source\PSoC5/ErikaOS_1_ee_oo_internal.inc **** #define EE_OS_ERROR_PARAMETERS_INIT(param1_in,param2_in,param3_in)  ((void)0)
  98:Generated_Source\PSoC5/ErikaOS_1_ee_oo_internal.inc **** 
  99:Generated_Source\PSoC5/ErikaOS_1_ee_oo_internal.inc **** #define EE_OS_ERROR_PARAMETERS_PARAM1_VALUE(param1_value)           ((void)0)
 100:Generated_Source\PSoC5/ErikaOS_1_ee_oo_internal.inc **** #define EE_OS_ERROR_PARAMETERS_PARAM2_VALUE(param2_value)           ((void)0)
 101:Generated_Source\PSoC5/ErikaOS_1_ee_oo_internal.inc **** #define EE_OS_ERROR_PARAMETERS_PARAM3_VALUE(param3_value)           ((void)0)
 102:Generated_Source\PSoC5/ErikaOS_1_ee_oo_internal.inc **** 
 103:Generated_Source\PSoC5/ErikaOS_1_ee_oo_internal.inc **** #define EE_OS_ERROR_PARAMETERS_PARAM1_REF(param_field,param_ref)    ((void)0)
 104:Generated_Source\PSoC5/ErikaOS_1_ee_oo_internal.inc **** #define EE_OS_ERROR_PARAMETERS_PARAM2_REF(param_field,param_ref)    ((void)0)
 105:Generated_Source\PSoC5/ErikaOS_1_ee_oo_internal.inc **** #define EE_OS_ERROR_PARAMETERS_PARAM3_REF(param_field,param_ref)    ((void)0)
 106:Generated_Source\PSoC5/ErikaOS_1_ee_oo_internal.inc **** #endif /* __OO_HAS_ERRORHOOK__ */
ARM GAS  C:\Users\Reza\AppData\Local\Temp\cchq54cM.s 			page 24


 107:Generated_Source\PSoC5/ErikaOS_1_ee_oo_internal.inc **** 
 108:Generated_Source\PSoC5/ErikaOS_1_ee_oo_internal.inc **** /* Error Handling */
 109:Generated_Source\PSoC5/ErikaOS_1_ee_oo_internal.inc **** #ifdef __OO_HAS_ERRORHOOK__
 110:Generated_Source\PSoC5/ErikaOS_1_ee_oo_internal.inc **** #ifndef  __OO_ERRORHOOK_NOMACROS__
 111:Generated_Source\PSoC5/ErikaOS_1_ee_oo_internal.inc **** 
 112:Generated_Source\PSoC5/ErikaOS_1_ee_oo_internal.inc **** __INLINE__ void  EE_os_fill_error_data( OSServiceIdType
 113:Generated_Source\PSoC5/ErikaOS_1_ee_oo_internal.inc ****   ServiceID, EE_os_param param1, EE_os_param param2, EE_os_param param3 )
 114:Generated_Source\PSoC5/ErikaOS_1_ee_oo_internal.inc **** {
 115:Generated_Source\PSoC5/ErikaOS_1_ee_oo_internal.inc ****   register EE_oo_ErrorHook_parameters * const
 116:Generated_Source\PSoC5/ErikaOS_1_ee_oo_internal.inc ****     p_errorhook_parameter = EE_oo_get_errorhook_data();
 117:Generated_Source\PSoC5/ErikaOS_1_ee_oo_internal.inc ****   (*EE_oo_get_errorhook_service_id()) = ServiceID;
 118:Generated_Source\PSoC5/ErikaOS_1_ee_oo_internal.inc ****   p_errorhook_parameter->param1 = param1;
 119:Generated_Source\PSoC5/ErikaOS_1_ee_oo_internal.inc ****   p_errorhook_parameter->param2 = param2;
 120:Generated_Source\PSoC5/ErikaOS_1_ee_oo_internal.inc ****   p_errorhook_parameter->param3 = param3;
 121:Generated_Source\PSoC5/ErikaOS_1_ee_oo_internal.inc **** }
 122:Generated_Source\PSoC5/ErikaOS_1_ee_oo_internal.inc **** #else /* !__OO_ERRORHOOK_NOMACROS__ */
 123:Generated_Source\PSoC5/ErikaOS_1_ee_oo_internal.inc **** 
 124:Generated_Source\PSoC5/ErikaOS_1_ee_oo_internal.inc **** #define EE_os_fill_error_data(ServiceID,param1,param2,param3) ((void)0)
 125:Generated_Source\PSoC5/ErikaOS_1_ee_oo_internal.inc **** #endif /* !__OO_ERRORHOOK_NOMACROS__ */
 126:Generated_Source\PSoC5/ErikaOS_1_ee_oo_internal.inc **** 
 127:Generated_Source\PSoC5/ErikaOS_1_ee_oo_internal.inc **** __INLINE__ void  EE_os_notify_error( OSServiceIdType ServiceID,
 128:Generated_Source\PSoC5/ErikaOS_1_ee_oo_internal.inc ****   EE_os_param param1, EE_os_param param2, EE_os_param param3,
 129:Generated_Source\PSoC5/ErikaOS_1_ee_oo_internal.inc ****   StatusType Error )
 130:Generated_Source\PSoC5/ErikaOS_1_ee_oo_internal.inc **** {
 131:Generated_Source\PSoC5/ErikaOS_1_ee_oo_internal.inc ****   EE_ORTI_set_lasterror(Error);
 132:Generated_Source\PSoC5/ErikaOS_1_ee_oo_internal.inc ****   if ( EE_ErrorHook_nested_flag == 0U )
 133:Generated_Source\PSoC5/ErikaOS_1_ee_oo_internal.inc ****   {
 134:Generated_Source\PSoC5/ErikaOS_1_ee_oo_internal.inc ****     EE_os_fill_error_data(ServiceID, param1, param2, param3);
 135:Generated_Source\PSoC5/ErikaOS_1_ee_oo_internal.inc ****     EE_ErrorHook_nested_flag = 1U;
 136:Generated_Source\PSoC5/ErikaOS_1_ee_oo_internal.inc ****     EE_oo_call_ErrorHook(Error);
 137:Generated_Source\PSoC5/ErikaOS_1_ee_oo_internal.inc ****     EE_ErrorHook_nested_flag = 0U;
 138:Generated_Source\PSoC5/ErikaOS_1_ee_oo_internal.inc ****   }
 139:Generated_Source\PSoC5/ErikaOS_1_ee_oo_internal.inc **** }
 140:Generated_Source\PSoC5/ErikaOS_1_ee_oo_internal.inc **** 
 141:Generated_Source\PSoC5/ErikaOS_1_ee_oo_internal.inc **** #ifndef __EE_MEMORY_PROTECTION__
 142:Generated_Source\PSoC5/ErikaOS_1_ee_oo_internal.inc **** __INLINE__ void  EE_os_notify_error_from_us(
 143:Generated_Source\PSoC5/ErikaOS_1_ee_oo_internal.inc ****   OSServiceIdType ServiceID, const EE_oo_ErrorHook_parameters * const
 144:Generated_Source\PSoC5/ErikaOS_1_ee_oo_internal.inc ****     error_parameters_ref, StatusType Error )
 145:Generated_Source\PSoC5/ErikaOS_1_ee_oo_internal.inc **** {
 146:Generated_Source\PSoC5/ErikaOS_1_ee_oo_internal.inc ****   if ( error_parameters_ref != NULL ) {
 147:Generated_Source\PSoC5/ErikaOS_1_ee_oo_internal.inc ****     register EE_FREG const flag = EE_hal_begin_nested_primitive();
 148:Generated_Source\PSoC5/ErikaOS_1_ee_oo_internal.inc ****     EE_os_notify_error(ServiceID, error_parameters_ref->param1,
 149:Generated_Source\PSoC5/ErikaOS_1_ee_oo_internal.inc ****       error_parameters_ref->param2, error_parameters_ref->param3, Error);
 150:Generated_Source\PSoC5/ErikaOS_1_ee_oo_internal.inc ****     EE_hal_end_nested_primitive(flag);
 151:Generated_Source\PSoC5/ErikaOS_1_ee_oo_internal.inc ****   }
 152:Generated_Source\PSoC5/ErikaOS_1_ee_oo_internal.inc **** }
 153:Generated_Source\PSoC5/ErikaOS_1_ee_oo_internal.inc **** #else /* !__EE_MEMORY_PROTECTION__ */
 154:Generated_Source\PSoC5/ErikaOS_1_ee_oo_internal.inc **** /* If MemMap.h support is enabled (i.e. because memory protection): use it */
 155:Generated_Source\PSoC5/ErikaOS_1_ee_oo_internal.inc **** #ifdef EE_SUPPORT_MEMMAP_H
 156:Generated_Source\PSoC5/ErikaOS_1_ee_oo_internal.inc **** /* The following code belong to ERIKA API section ee_api_text */
 157:Generated_Source\PSoC5/ErikaOS_1_ee_oo_internal.inc **** #define API_START_SEC_CODE
 158:Generated_Source\PSoC5/ErikaOS_1_ee_oo_internal.inc **** #include "MemMap.inc"
 159:Generated_Source\PSoC5/ErikaOS_1_ee_oo_internal.inc **** #endif /* EE_SUPPORT_MEMMAP_H */
 160:Generated_Source\PSoC5/ErikaOS_1_ee_oo_internal.inc **** 
 161:Generated_Source\PSoC5/ErikaOS_1_ee_oo_internal.inc **** void EE_os_notify_error_from_us( OSServiceIdType ServiceID,
 162:Generated_Source\PSoC5/ErikaOS_1_ee_oo_internal.inc ****   const EE_oo_ErrorHook_parameters * const error_parameters_ref,
 163:Generated_Source\PSoC5/ErikaOS_1_ee_oo_internal.inc ****   StatusType Error );
ARM GAS  C:\Users\Reza\AppData\Local\Temp\cchq54cM.s 			page 25


 164:Generated_Source\PSoC5/ErikaOS_1_ee_oo_internal.inc **** 
 165:Generated_Source\PSoC5/ErikaOS_1_ee_oo_internal.inc **** #ifdef EE_SUPPORT_MEMMAP_H
 166:Generated_Source\PSoC5/ErikaOS_1_ee_oo_internal.inc **** #define API_STOP_SEC_CODE
 167:Generated_Source\PSoC5/ErikaOS_1_ee_oo_internal.inc **** #include "MemMap.inc"
 168:Generated_Source\PSoC5/ErikaOS_1_ee_oo_internal.inc **** #endif /* EE_SUPPORT_MEMMAP_H */
 169:Generated_Source\PSoC5/ErikaOS_1_ee_oo_internal.inc **** #endif /* !__EE_MEMORY_PROTECTION__ */
 170:Generated_Source\PSoC5/ErikaOS_1_ee_oo_internal.inc **** #else /* __OO_HAS_ERRORHOOK__ */
 171:Generated_Source\PSoC5/ErikaOS_1_ee_oo_internal.inc **** 
 172:Generated_Source\PSoC5/ErikaOS_1_ee_oo_internal.inc **** /* Macro used for remapping to prevent compiler warnings on unused parameters */
 173:Generated_Source\PSoC5/ErikaOS_1_ee_oo_internal.inc **** #define EE_os_notify_error(k,j,x,y,z) EE_os_notify_error_impl(z)
 174:Generated_Source\PSoC5/ErikaOS_1_ee_oo_internal.inc **** 
 175:Generated_Source\PSoC5/ErikaOS_1_ee_oo_internal.inc **** __INLINE__ void  EE_os_notify_error_impl(StatusType Error)
 176:Generated_Source\PSoC5/ErikaOS_1_ee_oo_internal.inc **** {
 177:Generated_Source\PSoC5/ErikaOS_1_ee_oo_internal.inc ****   EE_ORTI_set_lasterror(Error);
 178:Generated_Source\PSoC5/ErikaOS_1_ee_oo_internal.inc **** }
 179:Generated_Source\PSoC5/ErikaOS_1_ee_oo_internal.inc **** 
 180:Generated_Source\PSoC5/ErikaOS_1_ee_oo_internal.inc **** /* Macro used for remapping to prevent compiler warnings on unused parameters */
 181:Generated_Source\PSoC5/ErikaOS_1_ee_oo_internal.inc **** #define EE_os_notify_error_from_us(x,y,z) EE_os_notify_error_from_us_impl(z)
 182:Generated_Source\PSoC5/ErikaOS_1_ee_oo_internal.inc **** 
 183:Generated_Source\PSoC5/ErikaOS_1_ee_oo_internal.inc **** __INLINE__ void  EE_os_notify_error_from_us_impl(
 184:Generated_Source\PSoC5/ErikaOS_1_ee_oo_internal.inc ****   StatusType Error )
 185:Generated_Source\PSoC5/ErikaOS_1_ee_oo_internal.inc **** {
 186:Generated_Source\PSoC5/ErikaOS_1_ee_oo_internal.inc ****   EE_ORTI_set_lasterror(Error);
 187:Generated_Source\PSoC5/ErikaOS_1_ee_oo_internal.inc **** }
 188:Generated_Source\PSoC5/ErikaOS_1_ee_oo_internal.inc **** #endif /* __OO_HAS_ERRORHOOK__ */
 189:Generated_Source\PSoC5/ErikaOS_1_ee_oo_internal.inc **** 
 190:Generated_Source\PSoC5/ErikaOS_1_ee_oo_internal.inc **** /*******************************************************************************
 191:Generated_Source\PSoC5/ErikaOS_1_ee_oo_internal.inc ****  *                  Kernel Critical Section Utility Macros
 192:Generated_Source\PSoC5/ErikaOS_1_ee_oo_internal.inc ****  ******************************************************************************/
 193:Generated_Source\PSoC5/ErikaOS_1_ee_oo_internal.inc **** #ifndef __EE_MEMORY_PROTECTION__
 194:Generated_Source\PSoC5/ErikaOS_1_ee_oo_internal.inc **** 
 195:Generated_Source\PSoC5/ErikaOS_1_ee_oo_internal.inc **** #define EE_OS_DECLARE_CRITICAL_SECTION()  register EE_FREG flag
 196:Generated_Source\PSoC5/ErikaOS_1_ee_oo_internal.inc **** 
 197:Generated_Source\PSoC5/ErikaOS_1_ee_oo_internal.inc **** #define EE_OS_ENTER_CRITICAL_SECTION()          \
 198:Generated_Source\PSoC5/ErikaOS_1_ee_oo_internal.inc ****   do {                                          \
 199:Generated_Source\PSoC5/ErikaOS_1_ee_oo_internal.inc ****     flag = EE_hal_begin_nested_primitive();     \
 200:Generated_Source\PSoC5/ErikaOS_1_ee_oo_internal.inc ****     EE_as_tp_active_pause_and_update_budgets(); \
 201:Generated_Source\PSoC5/ErikaOS_1_ee_oo_internal.inc ****   } while ( 0 )
 202:Generated_Source\PSoC5/ErikaOS_1_ee_oo_internal.inc **** 
 203:Generated_Source\PSoC5/ErikaOS_1_ee_oo_internal.inc **** #define EE_OS_DECLARE_AND_ENTER_CRITICAL_SECTION()  \
 204:Generated_Source\PSoC5/ErikaOS_1_ee_oo_internal.inc ****   EE_OS_DECLARE_CRITICAL_SECTION();                 \
 205:Generated_Source\PSoC5/ErikaOS_1_ee_oo_internal.inc ****   EE_OS_ENTER_CRITICAL_SECTION()
 206:Generated_Source\PSoC5/ErikaOS_1_ee_oo_internal.inc **** 
 207:Generated_Source\PSoC5/ErikaOS_1_ee_oo_internal.inc **** #define EE_OS_EXIT_CRITICAL_SECTION()             \
 208:Generated_Source\PSoC5/ErikaOS_1_ee_oo_internal.inc ****   do {                                            \
 209:Generated_Source\PSoC5/ErikaOS_1_ee_oo_internal.inc ****     EE_as_tp_active_update_budgets_and_restart(); \
 210:Generated_Source\PSoC5/ErikaOS_1_ee_oo_internal.inc ****     EE_hal_end_nested_primitive(flag);            \
 211:Generated_Source\PSoC5/ErikaOS_1_ee_oo_internal.inc ****   } while ( 0 )
 212:Generated_Source\PSoC5/ErikaOS_1_ee_oo_internal.inc **** 
 213:Generated_Source\PSoC5/ErikaOS_1_ee_oo_internal.inc **** #define EE_OS_FOREVER_CRITICAL_SECTION()          \
 214:Generated_Source\PSoC5/ErikaOS_1_ee_oo_internal.inc ****   do {                                            \
 215:Generated_Source\PSoC5/ErikaOS_1_ee_oo_internal.inc ****     EE_hal_disableIRQ();                          \
 216:Generated_Source\PSoC5/ErikaOS_1_ee_oo_internal.inc ****     EE_as_tp_active_pause_and_update_budgets();   \
 217:Generated_Source\PSoC5/ErikaOS_1_ee_oo_internal.inc ****   } while ( 0 )
 218:Generated_Source\PSoC5/ErikaOS_1_ee_oo_internal.inc **** 
 219:Generated_Source\PSoC5/ErikaOS_1_ee_oo_internal.inc **** #else /* !__EE_MEMORY_PROTECTION__ */
 220:Generated_Source\PSoC5/ErikaOS_1_ee_oo_internal.inc **** /* TP in any case have to be handled in Service Implementation. Syscall
ARM GAS  C:\Users\Reza\AppData\Local\Temp\cchq54cM.s 			page 26


 221:Generated_Source\PSoC5/ErikaOS_1_ee_oo_internal.inc ****    mechanism can be implement in C language and, in that case, a function call
 222:Generated_Source\PSoC5/ErikaOS_1_ee_oo_internal.inc ****    cannot be done in syscall handler. */
 223:Generated_Source\PSoC5/ErikaOS_1_ee_oo_internal.inc **** #define EE_OS_DECLARE_CRITICAL_SECTION()            ((void)0)
 224:Generated_Source\PSoC5/ErikaOS_1_ee_oo_internal.inc **** #define EE_OS_ENTER_CRITICAL_SECTION()              \
 225:Generated_Source\PSoC5/ErikaOS_1_ee_oo_internal.inc ****   EE_as_tp_active_pause_and_update_budgets()
 226:Generated_Source\PSoC5/ErikaOS_1_ee_oo_internal.inc **** #define EE_OS_DECLARE_AND_ENTER_CRITICAL_SECTION()  \
 227:Generated_Source\PSoC5/ErikaOS_1_ee_oo_internal.inc ****   EE_as_tp_active_pause_and_update_budgets()
 228:Generated_Source\PSoC5/ErikaOS_1_ee_oo_internal.inc **** #define EE_OS_EXIT_CRITICAL_SECTION()               \
 229:Generated_Source\PSoC5/ErikaOS_1_ee_oo_internal.inc ****   EE_as_tp_active_update_budgets_and_restart()
 230:Generated_Source\PSoC5/ErikaOS_1_ee_oo_internal.inc **** #define EE_OS_FOREVER_CRITICAL_SECTION()			\
 231:Generated_Source\PSoC5/ErikaOS_1_ee_oo_internal.inc ****   EE_as_tp_active_pause_and_update_budgets()
 232:Generated_Source\PSoC5/ErikaOS_1_ee_oo_internal.inc **** #endif /* !__EE_MEMORY_PROTECTION__ */
 233:Generated_Source\PSoC5/ErikaOS_1_ee_oo_internal.inc **** 
 234:Generated_Source\PSoC5/ErikaOS_1_ee_oo_internal.inc **** /* return the first stacked task (the running task) without extracting it 
 235:Generated_Source\PSoC5/ErikaOS_1_ee_oo_internal.inc ****    we suppose that this function can be called ALSO at interrupt ENABLED!!!
 236:Generated_Source\PSoC5/ErikaOS_1_ee_oo_internal.inc ****    (see WaitEvent.c) */
 237:Generated_Source\PSoC5/ErikaOS_1_ee_oo_internal.inc **** #ifndef __PRIVATE_STK_QUERYFIRST__
 238:Generated_Source\PSoC5/ErikaOS_1_ee_oo_internal.inc **** __INLINE__ EE_TID  EE_stk_queryfirst(void)
 239:Generated_Source\PSoC5/ErikaOS_1_ee_oo_internal.inc **** {
 240:Generated_Source\PSoC5/ErikaOS_1_ee_oo_internal.inc ****     return EE_stkfirst;  
 241:Generated_Source\PSoC5/ErikaOS_1_ee_oo_internal.inc **** }
 242:Generated_Source\PSoC5/ErikaOS_1_ee_oo_internal.inc **** #endif /* __PRIVATE_STK_QUERYFIRST__ */
 243:Generated_Source\PSoC5/ErikaOS_1_ee_oo_internal.inc **** 
 244:Generated_Source\PSoC5/ErikaOS_1_ee_oo_internal.inc **** /* This function notifies a tick to a hardware counter.
 245:Generated_Source\PSoC5/ErikaOS_1_ee_oo_internal.inc ****    That is, the counter is
 246:Generated_Source\PSoC5/ErikaOS_1_ee_oo_internal.inc ****    incremented by 1.  It must be called into an ISR2 or into a
 247:Generated_Source\PSoC5/ErikaOS_1_ee_oo_internal.inc ****    task notify that the event linked to the counter occurred.
 248:Generated_Source\PSoC5/ErikaOS_1_ee_oo_internal.inc **** 
 249:Generated_Source\PSoC5/ErikaOS_1_ee_oo_internal.inc ****    The function will also implement the notification of expired alarms
 250:Generated_Source\PSoC5/ErikaOS_1_ee_oo_internal.inc ****    (calling an alarm callback, setting an event, or activating a
 251:Generated_Source\PSoC5/ErikaOS_1_ee_oo_internal.inc ****    task).
 252:Generated_Source\PSoC5/ErikaOS_1_ee_oo_internal.inc **** 
 253:Generated_Source\PSoC5/ErikaOS_1_ee_oo_internal.inc ****    The function can be considered atomic, and NO RESCHEDULING will
 254:Generated_Source\PSoC5/ErikaOS_1_ee_oo_internal.inc ****    take place after the execution of this function. To implement the
 255:Generated_Source\PSoC5/ErikaOS_1_ee_oo_internal.inc ****    rescheduling at task level, you can use the Schedule() or the
 256:Generated_Source\PSoC5/ErikaOS_1_ee_oo_internal.inc ****    ForceSchedule() functions just after this notification.
 257:Generated_Source\PSoC5/ErikaOS_1_ee_oo_internal.inc **** 
 258:Generated_Source\PSoC5/ErikaOS_1_ee_oo_internal.inc ****    see also internal.h
 259:Generated_Source\PSoC5/ErikaOS_1_ee_oo_internal.inc **** */
 260:Generated_Source\PSoC5/ErikaOS_1_ee_oo_internal.inc **** #if (!defined(__OO_NO_ALARMS__)) || (defined(EE_AS_SCHEDULETABLES__))
 261:Generated_Source\PSoC5/ErikaOS_1_ee_oo_internal.inc **** 
 262:Generated_Source\PSoC5/ErikaOS_1_ee_oo_internal.inc **** StatusType EE_oo_IncrementCounterHardware(CounterType CounterID);
 263:Generated_Source\PSoC5/ErikaOS_1_ee_oo_internal.inc **** void       EE_oo_IncrementCounterImplementation(CounterType CounterID);
 264:Generated_Source\PSoC5/ErikaOS_1_ee_oo_internal.inc **** 
 265:Generated_Source\PSoC5/ErikaOS_1_ee_oo_internal.inc **** /* kernel internal API */
 266:Generated_Source\PSoC5/ErikaOS_1_ee_oo_internal.inc **** #define IncrementCounterHardware EE_oo_IncrementCounterHardware
 267:Generated_Source\PSoC5/ErikaOS_1_ee_oo_internal.inc **** 
 268:Generated_Source\PSoC5/ErikaOS_1_ee_oo_internal.inc **** /* Helper function (0 as increment means next tick)*/
 269:Generated_Source\PSoC5/ErikaOS_1_ee_oo_internal.inc **** void EE_oo_counter_object_insert( CounterObjectType ObjectID, TickType
 270:Generated_Source\PSoC5/ErikaOS_1_ee_oo_internal.inc ****   increment );
 271:Generated_Source\PSoC5/ErikaOS_1_ee_oo_internal.inc **** 
 272:Generated_Source\PSoC5/ErikaOS_1_ee_oo_internal.inc **** #if defined (EE_COUNTER_OBJECTS_ROM_SIZE)
 273:Generated_Source\PSoC5/ErikaOS_1_ee_oo_internal.inc **** #if (EE_COUNTER_OBJECTS_ROM_SIZE > 0)
 274:Generated_Source\PSoC5/ErikaOS_1_ee_oo_internal.inc **** __INLINE__ void 
 275:Generated_Source\PSoC5/ErikaOS_1_ee_oo_internal.inc ****   EE_oo_handle_abs_counter_object_insertion( CounterObjectType ObjectID,
 276:Generated_Source\PSoC5/ErikaOS_1_ee_oo_internal.inc ****     TickType absstart, TickType abscycle ) 
 277:Generated_Source\PSoC5/ErikaOS_1_ee_oo_internal.inc **** {
ARM GAS  C:\Users\Reza\AppData\Local\Temp\cchq54cM.s 			page 27


 278:Generated_Source\PSoC5/ErikaOS_1_ee_oo_internal.inc ****   /* These are used to evaluate alarm time handling wrap around */
 279:Generated_Source\PSoC5/ErikaOS_1_ee_oo_internal.inc ****   register TickType           alarm_time;
 280:Generated_Source\PSoC5/ErikaOS_1_ee_oo_internal.inc ****   register TickType           start_rel;
 281:Generated_Source\PSoC5/ErikaOS_1_ee_oo_internal.inc ****   register CounterType const  cnt = EE_oo_counter_object_ROM[ObjectID].c;
 282:Generated_Source\PSoC5/ErikaOS_1_ee_oo_internal.inc **** 
 283:Generated_Source\PSoC5/ErikaOS_1_ee_oo_internal.inc ****   /* first, use the alarm and set the cycle */
 284:Generated_Source\PSoC5/ErikaOS_1_ee_oo_internal.inc ****   EE_oo_counter_object_RAM[ObjectID].used = EE_TRUE;
 285:Generated_Source\PSoC5/ErikaOS_1_ee_oo_internal.inc ****   EE_oo_counter_object_RAM[ObjectID].cntcycle = abscycle;
 286:Generated_Source\PSoC5/ErikaOS_1_ee_oo_internal.inc **** 
 287:Generated_Source\PSoC5/ErikaOS_1_ee_oo_internal.inc ****   /* Handling wrap around for alarm time */
 288:Generated_Source\PSoC5/ErikaOS_1_ee_oo_internal.inc ****   start_rel = absstart - EE_counter_RAM[cnt].value;
 289:Generated_Source\PSoC5/ErikaOS_1_ee_oo_internal.inc **** 
 290:Generated_Source\PSoC5/ErikaOS_1_ee_oo_internal.inc ****   /*  When will be here start value will be already checked against counter
 291:Generated_Source\PSoC5/ErikaOS_1_ee_oo_internal.inc ****       max allowed value */
 292:Generated_Source\PSoC5/ErikaOS_1_ee_oo_internal.inc ****   if ( start_rel == 0U ) {
 293:Generated_Source\PSoC5/ErikaOS_1_ee_oo_internal.inc ****     /* start_rel == 0U -> the alarm should start now or next time that counter
 294:Generated_Source\PSoC5/ErikaOS_1_ee_oo_internal.inc ****        has this value. Has been chosen the second option */
 295:Generated_Source\PSoC5/ErikaOS_1_ee_oo_internal.inc ****     alarm_time = EE_counter_ROM[cnt].maxallowedvalue;
 296:Generated_Source\PSoC5/ErikaOS_1_ee_oo_internal.inc ****   } else if ( start_rel < EE_TYPETICK_HALF_VALUE ) {
 297:Generated_Source\PSoC5/ErikaOS_1_ee_oo_internal.inc ****     /* Normal behavior */
 298:Generated_Source\PSoC5/ErikaOS_1_ee_oo_internal.inc ****     alarm_time = start_rel - 1U;
 299:Generated_Source\PSoC5/ErikaOS_1_ee_oo_internal.inc ****   } else {
 300:Generated_Source\PSoC5/ErikaOS_1_ee_oo_internal.inc ****     /* start_rel is "negative" in this case (unsigned wrap around do the
 301:Generated_Source\PSoC5/ErikaOS_1_ee_oo_internal.inc ****        work) */
 302:Generated_Source\PSoC5/ErikaOS_1_ee_oo_internal.inc ****     alarm_time = EE_counter_ROM[cnt].maxallowedvalue + start_rel;
 303:Generated_Source\PSoC5/ErikaOS_1_ee_oo_internal.inc ****   }
 304:Generated_Source\PSoC5/ErikaOS_1_ee_oo_internal.inc **** 
 305:Generated_Source\PSoC5/ErikaOS_1_ee_oo_internal.inc ****   /* Set alarm with a relative amount of time (alarm_time already is a "0 as
 306:Generated_Source\PSoC5/ErikaOS_1_ee_oo_internal.inc ****      next tick" value)*/
 307:Generated_Source\PSoC5/ErikaOS_1_ee_oo_internal.inc ****   EE_oo_counter_object_insert(ObjectID, alarm_time);
 308:Generated_Source\PSoC5/ErikaOS_1_ee_oo_internal.inc **** }
 309:Generated_Source\PSoC5/ErikaOS_1_ee_oo_internal.inc **** 
 310:Generated_Source\PSoC5/ErikaOS_1_ee_oo_internal.inc **** __INLINE__ void 
 311:Generated_Source\PSoC5/ErikaOS_1_ee_oo_internal.inc ****   EE_oo_handle_rel_counter_object_insertion( CounterObjectType ObjectID,
 312:Generated_Source\PSoC5/ErikaOS_1_ee_oo_internal.inc ****     TickType increment, TickType relcycle )
 313:Generated_Source\PSoC5/ErikaOS_1_ee_oo_internal.inc **** {
 314:Generated_Source\PSoC5/ErikaOS_1_ee_oo_internal.inc **** 
 315:Generated_Source\PSoC5/ErikaOS_1_ee_oo_internal.inc ****   /* first, use the alarm and set the cycle */
 316:Generated_Source\PSoC5/ErikaOS_1_ee_oo_internal.inc ****   EE_oo_counter_object_RAM[ObjectID].used = EE_TRUE;
 317:Generated_Source\PSoC5/ErikaOS_1_ee_oo_internal.inc ****   EE_oo_counter_object_RAM[ObjectID].cntcycle = relcycle;
 318:Generated_Source\PSoC5/ErikaOS_1_ee_oo_internal.inc **** 
 319:Generated_Source\PSoC5/ErikaOS_1_ee_oo_internal.inc ****   /* then, insert the task into the delta queue with an increment equal
 320:Generated_Source\PSoC5/ErikaOS_1_ee_oo_internal.inc ****      (increment - 1U) increment equal to 0 means next tick */
 321:Generated_Source\PSoC5/ErikaOS_1_ee_oo_internal.inc ****   EE_oo_counter_object_insert(ObjectID, (increment - 1U));
 322:Generated_Source\PSoC5/ErikaOS_1_ee_oo_internal.inc **** }
 323:Generated_Source\PSoC5/ErikaOS_1_ee_oo_internal.inc **** 
 324:Generated_Source\PSoC5/ErikaOS_1_ee_oo_internal.inc **** /* cancellation */
 325:Generated_Source\PSoC5/ErikaOS_1_ee_oo_internal.inc **** __INLINE__ void  EE_oo_handle_counter_object_cancellation(
 326:Generated_Source\PSoC5/ErikaOS_1_ee_oo_internal.inc ****   CounterObjectType ObjectID )
 327:Generated_Source\PSoC5/ErikaOS_1_ee_oo_internal.inc **** {
 328:Generated_Source\PSoC5/ErikaOS_1_ee_oo_internal.inc ****   register CounterObjectType current, previous;
 329:Generated_Source\PSoC5/ErikaOS_1_ee_oo_internal.inc ****   register CounterType       ct      = EE_oo_counter_object_ROM[ObjectID].c;
 330:Generated_Source\PSoC5/ErikaOS_1_ee_oo_internal.inc **** 
 331:Generated_Source\PSoC5/ErikaOS_1_ee_oo_internal.inc ****   /* to compute the relative value in ticks, we have to follow the counter
 332:Generated_Source\PSoC5/ErikaOS_1_ee_oo_internal.inc ****      delay chain */
 333:Generated_Source\PSoC5/ErikaOS_1_ee_oo_internal.inc ****   current = EE_counter_RAM[ct].first;
 334:Generated_Source\PSoC5/ErikaOS_1_ee_oo_internal.inc **** 
ARM GAS  C:\Users\Reza\AppData\Local\Temp\cchq54cM.s 			page 28


 335:Generated_Source\PSoC5/ErikaOS_1_ee_oo_internal.inc ****   if ( current == ObjectID ) {
 336:Generated_Source\PSoC5/ErikaOS_1_ee_oo_internal.inc ****     /* the alarm is the first one in the delta queue */
 337:Generated_Source\PSoC5/ErikaOS_1_ee_oo_internal.inc ****     EE_counter_RAM[ct].first = EE_oo_counter_object_RAM[ObjectID].next;
 338:Generated_Source\PSoC5/ErikaOS_1_ee_oo_internal.inc ****   } else {
 339:Generated_Source\PSoC5/ErikaOS_1_ee_oo_internal.inc ****     /* the alarm is not the first one in the delta queue */
 340:Generated_Source\PSoC5/ErikaOS_1_ee_oo_internal.inc ****     /* Find it */
 341:Generated_Source\PSoC5/ErikaOS_1_ee_oo_internal.inc ****     do {
 342:Generated_Source\PSoC5/ErikaOS_1_ee_oo_internal.inc ****       previous = current;
 343:Generated_Source\PSoC5/ErikaOS_1_ee_oo_internal.inc ****       current = EE_oo_counter_object_RAM[current].next;
 344:Generated_Source\PSoC5/ErikaOS_1_ee_oo_internal.inc ****     } while ( current != ObjectID );
 345:Generated_Source\PSoC5/ErikaOS_1_ee_oo_internal.inc ****     /* remove it from the queue */
 346:Generated_Source\PSoC5/ErikaOS_1_ee_oo_internal.inc ****     EE_oo_counter_object_RAM[previous].next =
 347:Generated_Source\PSoC5/ErikaOS_1_ee_oo_internal.inc ****       EE_oo_counter_object_RAM[ObjectID].next;
 348:Generated_Source\PSoC5/ErikaOS_1_ee_oo_internal.inc ****   }
 349:Generated_Source\PSoC5/ErikaOS_1_ee_oo_internal.inc ****   /* Adjust delta value */
 350:Generated_Source\PSoC5/ErikaOS_1_ee_oo_internal.inc ****   if ( EE_oo_counter_object_RAM[ObjectID].next != INVALID_COUNTER_OBJECT ) {
 351:Generated_Source\PSoC5/ErikaOS_1_ee_oo_internal.inc ****     EE_oo_counter_object_RAM[EE_oo_counter_object_RAM[ObjectID].next].delta +=
 352:Generated_Source\PSoC5/ErikaOS_1_ee_oo_internal.inc ****       EE_oo_counter_object_RAM[ObjectID].delta;
 353:Generated_Source\PSoC5/ErikaOS_1_ee_oo_internal.inc ****   }
 354:Generated_Source\PSoC5/ErikaOS_1_ee_oo_internal.inc **** 
 355:Generated_Source\PSoC5/ErikaOS_1_ee_oo_internal.inc ****   EE_oo_counter_object_RAM[ObjectID].used = EE_FALSE;
 356:Generated_Source\PSoC5/ErikaOS_1_ee_oo_internal.inc **** }
 357:Generated_Source\PSoC5/ErikaOS_1_ee_oo_internal.inc **** #endif /* EE_COUNTER_OBJECTS_ROM_SIZE */
 358:Generated_Source\PSoC5/ErikaOS_1_ee_oo_internal.inc **** #endif /* EE_COUNTER_OBJECTS_ROM_SIZE > 0 */
 359:Generated_Source\PSoC5/ErikaOS_1_ee_oo_internal.inc **** #endif /* !__OO_NO_ALARMS__ || EE_AS_SCHEDULETABLES__ */
 360:Generated_Source\PSoC5/ErikaOS_1_ee_oo_internal.inc **** 
 361:Generated_Source\PSoC5/ErikaOS_1_ee_oo_internal.inc **** /*************************************************************************
 362:Generated_Source\PSoC5/ErikaOS_1_ee_oo_internal.inc ****  HAL extensions
 363:Generated_Source\PSoC5/ErikaOS_1_ee_oo_internal.inc ****  *************************************************************************/
 364:Generated_Source\PSoC5/ErikaOS_1_ee_oo_internal.inc **** 
 365:Generated_Source\PSoC5/ErikaOS_1_ee_oo_internal.inc ****  /* these are the functions that have been inserted to support tha OO layer
 366:Generated_Source\PSoC5/ErikaOS_1_ee_oo_internal.inc ****     under the EE HAL.
 367:Generated_Source\PSoC5/ErikaOS_1_ee_oo_internal.inc ****     
 368:Generated_Source\PSoC5/ErikaOS_1_ee_oo_internal.inc ****     - all the functions for interrupt handling (13.3)
 369:Generated_Source\PSoC5/ErikaOS_1_ee_oo_internal.inc ****     - EE_hal_begin_nested_primitive
 370:Generated_Source\PSoC5/ErikaOS_1_ee_oo_internal.inc ****       EE_hal_end_nested_primitive 
 371:Generated_Source\PSoC5/ErikaOS_1_ee_oo_internal.inc ****       (for primitives that can be called both into a task and into an ISR2
 372:Generated_Source\PSoC5/ErikaOS_1_ee_oo_internal.inc ****     - EE_hal_terminate_task(EE_TID t)
 373:Generated_Source\PSoC5/ErikaOS_1_ee_oo_internal.inc ****     - EE_hal_terminate_savestk(EE_TID t)
 374:Generated_Source\PSoC5/ErikaOS_1_ee_oo_internal.inc ****       EE_oo_preemption_point() execute task preemption if is needed
 375:Generated_Source\PSoC5/ErikaOS_1_ee_oo_internal.inc ****     - EE_oo_shutdown() if not redefined it does for(;;);
 376:Generated_Source\PSoC5/ErikaOS_1_ee_oo_internal.inc ****     - All the alarm constants listed in 13.6.4
 377:Generated_Source\PSoC5/ErikaOS_1_ee_oo_internal.inc ****  */
 378:Generated_Source\PSoC5/ErikaOS_1_ee_oo_internal.inc **** 
 379:Generated_Source\PSoC5/ErikaOS_1_ee_oo_internal.inc **** 
 380:Generated_Source\PSoC5/ErikaOS_1_ee_oo_internal.inc **** /***************************************************************************
 381:Generated_Source\PSoC5/ErikaOS_1_ee_oo_internal.inc ****  * Internal data structures and functions
 382:Generated_Source\PSoC5/ErikaOS_1_ee_oo_internal.inc ****  ***************************************************************************/
 383:Generated_Source\PSoC5/ErikaOS_1_ee_oo_internal.inc **** 
 384:Generated_Source\PSoC5/ErikaOS_1_ee_oo_internal.inc **** /*
 385:Generated_Source\PSoC5/ErikaOS_1_ee_oo_internal.inc ****     Call Hooks utilities
 386:Generated_Source\PSoC5/ErikaOS_1_ee_oo_internal.inc ****  */
 387:Generated_Source\PSoC5/ErikaOS_1_ee_oo_internal.inc **** 
 388:Generated_Source\PSoC5/ErikaOS_1_ee_oo_internal.inc **** #ifdef __OO_HAS_PRETASKHOOK__
 389:Generated_Source\PSoC5/ErikaOS_1_ee_oo_internal.inc **** __INLINE__ void  EE_oo_call_PreTaskHook(void)
 390:Generated_Source\PSoC5/ErikaOS_1_ee_oo_internal.inc **** {
 391:Generated_Source\PSoC5/ErikaOS_1_ee_oo_internal.inc ****   EE_as_set_execution_context( PreTaskHook_Context );
ARM GAS  C:\Users\Reza\AppData\Local\Temp\cchq54cM.s 			page 29


 392:Generated_Source\PSoC5/ErikaOS_1_ee_oo_internal.inc ****   /* Set the execution context on TASK */
 393:Generated_Source\PSoC5/ErikaOS_1_ee_oo_internal.inc ****   EE_as_set_execution_context( TASK_Context );
 394:Generated_Source\PSoC5/ErikaOS_1_ee_oo_internal.inc **** }
 395:Generated_Source\PSoC5/ErikaOS_1_ee_oo_internal.inc **** 
 396:Generated_Source\PSoC5/ErikaOS_1_ee_oo_internal.inc **** #else /* __OO_HAS_PRETASKHOOK__ */
 397:Generated_Source\PSoC5/ErikaOS_1_ee_oo_internal.inc **** __INLINE__ void  EE_oo_call_PreTaskHook(void)
 398:Generated_Source\PSoC5/ErikaOS_1_ee_oo_internal.inc **** {
 399:Generated_Source\PSoC5/ErikaOS_1_ee_oo_internal.inc ****   /* Set the execution context on TASK */
 400:Generated_Source\PSoC5/ErikaOS_1_ee_oo_internal.inc ****   EE_as_set_execution_context( TASK_Context );
 401:Generated_Source\PSoC5/ErikaOS_1_ee_oo_internal.inc **** }
 402:Generated_Source\PSoC5/ErikaOS_1_ee_oo_internal.inc **** #endif /* __OO_HAS_PRETASKHOOK__ */
 403:Generated_Source\PSoC5/ErikaOS_1_ee_oo_internal.inc **** 
 404:Generated_Source\PSoC5/ErikaOS_1_ee_oo_internal.inc **** #if defined(__OO_HAS_POSTTASKHOOK__)
 405:Generated_Source\PSoC5/ErikaOS_1_ee_oo_internal.inc **** __INLINE__ void  EE_oo_call_PostTaskHook(void)
 406:Generated_Source\PSoC5/ErikaOS_1_ee_oo_internal.inc **** {
 407:Generated_Source\PSoC5/ErikaOS_1_ee_oo_internal.inc ****   EE_as_set_execution_context( PostTaskHook_Context );
 408:Generated_Source\PSoC5/ErikaOS_1_ee_oo_internal.inc **** }
 409:Generated_Source\PSoC5/ErikaOS_1_ee_oo_internal.inc **** #else /* __OO_HAS_POSTTASKHOOK__ */
 410:Generated_Source\PSoC5/ErikaOS_1_ee_oo_internal.inc **** __INLINE__ void  EE_oo_call_PostTaskHook(void) {}
 411:Generated_Source\PSoC5/ErikaOS_1_ee_oo_internal.inc **** #endif /* __OO_HAS_POSTTASKHOOK__ */
 412:Generated_Source\PSoC5/ErikaOS_1_ee_oo_internal.inc **** 
 413:Generated_Source\PSoC5/ErikaOS_1_ee_oo_internal.inc **** 
 414:Generated_Source\PSoC5/ErikaOS_1_ee_oo_internal.inc **** /* StartOS Flag defined inside ee_startos.c to check that the system has correctly started */
 415:Generated_Source\PSoC5/ErikaOS_1_ee_oo_internal.inc **** extern EE_UREG volatile EE_oo_started;
 416:Generated_Source\PSoC5/ErikaOS_1_ee_oo_internal.inc **** 
 417:Generated_Source\PSoC5/ErikaOS_1_ee_oo_internal.inc **** 
 418:Generated_Source\PSoC5/ErikaOS_1_ee_oo_internal.inc **** /* Used to check if we are in disable interrupt error. It return
 419:Generated_Source\PSoC5/ErikaOS_1_ee_oo_internal.inc ****    'signed register type' because usually it is native integer type. */
 420:Generated_Source\PSoC5/ErikaOS_1_ee_oo_internal.inc **** __INLINE__ EE_TYPEBOOL  EE_oo_check_disableint_error(void)
 421:Generated_Source\PSoC5/ErikaOS_1_ee_oo_internal.inc **** {
 422:Generated_Source\PSoC5/ErikaOS_1_ee_oo_internal.inc ****   return ( EE_oo_IRQ_disable_count != 0U );
 423:Generated_Source\PSoC5/ErikaOS_1_ee_oo_internal.inc **** }
 424:Generated_Source\PSoC5/ErikaOS_1_ee_oo_internal.inc **** 
 425:Generated_Source\PSoC5/ErikaOS_1_ee_oo_internal.inc **** #if (defined(__OO_BCC2__)) || (defined(__OO_ECC2__))
 426:Generated_Source\PSoC5/ErikaOS_1_ee_oo_internal.inc **** /* A lookup table to speedup ready queue handling */
 427:Generated_Source\PSoC5/ErikaOS_1_ee_oo_internal.inc **** extern const EE_INT8 EE_rq_lookup[256];
 428:Generated_Source\PSoC5/ErikaOS_1_ee_oo_internal.inc **** /* Lookup functions */
 429:Generated_Source\PSoC5/ErikaOS_1_ee_oo_internal.inc **** #if defined(__OO_ECC2__)
 430:Generated_Source\PSoC5/ErikaOS_1_ee_oo_internal.inc **** __INLINE__ EE_INT8  EE_rq_get_first_not_empty_queue( void )
 431:Generated_Source\PSoC5/ErikaOS_1_ee_oo_internal.inc **** {
 432:Generated_Source\PSoC5/ErikaOS_1_ee_oo_internal.inc ****   /* Lookup at bits 15-9 */
 433:Generated_Source\PSoC5/ErikaOS_1_ee_oo_internal.inc ****   EE_INT8 x = EE_rq_lookup[(EE_rq_bitmask & 0xFF00U) >> 8];
 434:Generated_Source\PSoC5/ErikaOS_1_ee_oo_internal.inc ****   if (x == (EE_INT8)-1) {
 435:Generated_Source\PSoC5/ErikaOS_1_ee_oo_internal.inc ****     x = EE_rq_lookup[EE_rq_bitmask];
 436:Generated_Source\PSoC5/ErikaOS_1_ee_oo_internal.inc ****   } else {
 437:Generated_Source\PSoC5/ErikaOS_1_ee_oo_internal.inc ****     x += (EE_INT8)8;
 438:Generated_Source\PSoC5/ErikaOS_1_ee_oo_internal.inc ****   }
 439:Generated_Source\PSoC5/ErikaOS_1_ee_oo_internal.inc ****   return x;
 440:Generated_Source\PSoC5/ErikaOS_1_ee_oo_internal.inc **** }
 441:Generated_Source\PSoC5/ErikaOS_1_ee_oo_internal.inc **** #else /* __OO_ECC2__ */
 442:Generated_Source\PSoC5/ErikaOS_1_ee_oo_internal.inc **** __INLINE__ EE_INT8  EE_rq_get_first_not_empty_queue( void )
 443:Generated_Source\PSoC5/ErikaOS_1_ee_oo_internal.inc **** {
 444:Generated_Source\PSoC5/ErikaOS_1_ee_oo_internal.inc ****   return EE_rq_lookup[EE_rq_bitmask];
 445:Generated_Source\PSoC5/ErikaOS_1_ee_oo_internal.inc **** }
 446:Generated_Source\PSoC5/ErikaOS_1_ee_oo_internal.inc **** #endif /* __OO_ECC2__ */
 447:Generated_Source\PSoC5/ErikaOS_1_ee_oo_internal.inc **** #endif /* __OO_BCC2__ || __OO_ECC2__ */
 448:Generated_Source\PSoC5/ErikaOS_1_ee_oo_internal.inc **** 
ARM GAS  C:\Users\Reza\AppData\Local\Temp\cchq54cM.s 			page 30


 449:Generated_Source\PSoC5/ErikaOS_1_ee_oo_internal.inc **** /* Internal Queue management functions */
 450:Generated_Source\PSoC5/ErikaOS_1_ee_oo_internal.inc **** 
 451:Generated_Source\PSoC5/ErikaOS_1_ee_oo_internal.inc **** /* return the first ready task without extracting it */
 452:Generated_Source\PSoC5/ErikaOS_1_ee_oo_internal.inc **** #ifndef __PRIVATE_RQ_QUERYFIRST__
 453:Generated_Source\PSoC5/ErikaOS_1_ee_oo_internal.inc **** #if (defined(__OO_BCC1__)) || (defined(__OO_ECC1__))
 454:Generated_Source\PSoC5/ErikaOS_1_ee_oo_internal.inc **** __INLINE__ EE_TID  EE_rq_queryfirst(void)
 455:Generated_Source\PSoC5/ErikaOS_1_ee_oo_internal.inc **** { return EE_rq_first; }
 456:Generated_Source\PSoC5/ErikaOS_1_ee_oo_internal.inc **** #endif
 457:Generated_Source\PSoC5/ErikaOS_1_ee_oo_internal.inc **** 
 458:Generated_Source\PSoC5/ErikaOS_1_ee_oo_internal.inc **** #if (defined(__OO_BCC2__)) || (defined(__OO_ECC2__))
 459:Generated_Source\PSoC5/ErikaOS_1_ee_oo_internal.inc **** EE_TID EE_rq_queryfirst(void);
 460:Generated_Source\PSoC5/ErikaOS_1_ee_oo_internal.inc **** #endif
 461:Generated_Source\PSoC5/ErikaOS_1_ee_oo_internal.inc **** #endif
 462:Generated_Source\PSoC5/ErikaOS_1_ee_oo_internal.inc **** 
 463:Generated_Source\PSoC5/ErikaOS_1_ee_oo_internal.inc **** /* __INLINE__ EE_TID  EE_stk_queryfirst(void) in intfunc.h */
 464:Generated_Source\PSoC5/ErikaOS_1_ee_oo_internal.inc **** 
 465:Generated_Source\PSoC5/ErikaOS_1_ee_oo_internal.inc **** /* Extract the RUNNING task from the stack, and return the new head */
 466:Generated_Source\PSoC5/ErikaOS_1_ee_oo_internal.inc **** #ifndef __PRIVATE_STK_GETFIRST__
 467:Generated_Source\PSoC5/ErikaOS_1_ee_oo_internal.inc **** __INLINE__ EE_TID  EE_stk_getfirst(void)
 468:Generated_Source\PSoC5/ErikaOS_1_ee_oo_internal.inc **** {
 469:Generated_Source\PSoC5/ErikaOS_1_ee_oo_internal.inc ****   return (EE_stkfirst = EE_th_next[EE_stkfirst]);
 470:Generated_Source\PSoC5/ErikaOS_1_ee_oo_internal.inc **** }
 471:Generated_Source\PSoC5/ErikaOS_1_ee_oo_internal.inc **** #endif /* __PRIVATE_STK_GETFIRST__ */
 472:Generated_Source\PSoC5/ErikaOS_1_ee_oo_internal.inc **** 
 473:Generated_Source\PSoC5/ErikaOS_1_ee_oo_internal.inc **** /* insert a task into the stack data structures */
 474:Generated_Source\PSoC5/ErikaOS_1_ee_oo_internal.inc **** #ifndef __PRIVATE_STK_INSERTFIRST__
 475:Generated_Source\PSoC5/ErikaOS_1_ee_oo_internal.inc **** __INLINE__ void  EE_stk_insertfirst(EE_TID t)
 476:Generated_Source\PSoC5/ErikaOS_1_ee_oo_internal.inc **** {
 477:Generated_Source\PSoC5/ErikaOS_1_ee_oo_internal.inc ****     EE_th_next[t] = EE_stkfirst;
 478:Generated_Source\PSoC5/ErikaOS_1_ee_oo_internal.inc ****     EE_stkfirst = t;
 479:Generated_Source\PSoC5/ErikaOS_1_ee_oo_internal.inc **** }
 480:Generated_Source\PSoC5/ErikaOS_1_ee_oo_internal.inc **** #endif
 481:Generated_Source\PSoC5/ErikaOS_1_ee_oo_internal.inc **** 
 482:Generated_Source\PSoC5/ErikaOS_1_ee_oo_internal.inc **** /* insert a task into the ready queue */
 483:Generated_Source\PSoC5/ErikaOS_1_ee_oo_internal.inc **** #ifndef __PRIVATE_RQ_INSERT__
 484:Generated_Source\PSoC5/ErikaOS_1_ee_oo_internal.inc **** void EE_rq_insert(EE_TID t);
 485:Generated_Source\PSoC5/ErikaOS_1_ee_oo_internal.inc **** #endif
 486:Generated_Source\PSoC5/ErikaOS_1_ee_oo_internal.inc **** 
 487:Generated_Source\PSoC5/ErikaOS_1_ee_oo_internal.inc **** /* put the first ready task into the stack */
 488:Generated_Source\PSoC5/ErikaOS_1_ee_oo_internal.inc **** #ifndef __PRIVATE_RQ2STK_EXCHANGE__
 489:Generated_Source\PSoC5/ErikaOS_1_ee_oo_internal.inc **** EE_TID EE_rq2stk_exchange(void);
 490:Generated_Source\PSoC5/ErikaOS_1_ee_oo_internal.inc **** #endif
 491:Generated_Source\PSoC5/ErikaOS_1_ee_oo_internal.inc **** 
 492:Generated_Source\PSoC5/ErikaOS_1_ee_oo_internal.inc **** #ifndef __OO_NO_RESOURCES__
 493:Generated_Source\PSoC5/ErikaOS_1_ee_oo_internal.inc **** /*
 494:Generated_Source\PSoC5/ErikaOS_1_ee_oo_internal.inc ****     Method to release all resources locked by a Thread,
 495:Generated_Source\PSoC5/ErikaOS_1_ee_oo_internal.inc ****     used to fulfill AS requirement OS070
 496:Generated_Source\PSoC5/ErikaOS_1_ee_oo_internal.inc ****  */
 497:Generated_Source\PSoC5/ErikaOS_1_ee_oo_internal.inc **** #if ((!defined(__OO_EXTENDED_STATUS__)) && \
 498:Generated_Source\PSoC5/ErikaOS_1_ee_oo_internal.inc ****     (!defined(__PRIVATE_RELEASEALLRESOURCE__))) && \
 499:Generated_Source\PSoC5/ErikaOS_1_ee_oo_internal.inc ****     (!defined(__OO_ISR2_RESOURCES__))
 500:Generated_Source\PSoC5/ErikaOS_1_ee_oo_internal.inc **** __INLINE__ void  EE_oo_release_all_resources(EE_TID tid)
 501:Generated_Source\PSoC5/ErikaOS_1_ee_oo_internal.inc **** {
 502:Generated_Source\PSoC5/ErikaOS_1_ee_oo_internal.inc ****   /* release the internal resource. a EE_TYPEPRIO is a bit mask with only one
 503:Generated_Source\PSoC5/ErikaOS_1_ee_oo_internal.inc ****      bit set to one.
 504:Generated_Source\PSoC5/ErikaOS_1_ee_oo_internal.inc ****      If i subtract one to this I obtain a bit mask with all
 505:Generated_Source\PSoC5/ErikaOS_1_ee_oo_internal.inc ****      ones before the starting one and all zeros after 
ARM GAS  C:\Users\Reza\AppData\Local\Temp\cchq54cM.s 			page 31


 506:Generated_Source\PSoC5/ErikaOS_1_ee_oo_internal.inc ****      (exactly what I want to release resources!)
 507:Generated_Source\PSoC5/ErikaOS_1_ee_oo_internal.inc ****   */
 508:Generated_Source\PSoC5/ErikaOS_1_ee_oo_internal.inc ****   EE_sys_ceiling &= (EE_th_dispatch_prio[tid] - 1U);
 509:Generated_Source\PSoC5/ErikaOS_1_ee_oo_internal.inc **** }
 510:Generated_Source\PSoC5/ErikaOS_1_ee_oo_internal.inc **** #else
 511:Generated_Source\PSoC5/ErikaOS_1_ee_oo_internal.inc **** EE_UREG EE_oo_release_all_resources(EE_TID tid);
 512:Generated_Source\PSoC5/ErikaOS_1_ee_oo_internal.inc **** #endif /* !__OO_EXTENDED_STATUS__ && !__OO_ISR2_RESOURCES__ */
 513:Generated_Source\PSoC5/ErikaOS_1_ee_oo_internal.inc **** #else /* __OO_NO_RESOURCES__ */
 514:Generated_Source\PSoC5/ErikaOS_1_ee_oo_internal.inc **** #define EE_oo_release_all_resources(tid)    ((void)0)
 515:Generated_Source\PSoC5/ErikaOS_1_ee_oo_internal.inc **** #endif /* __OO_NO_RESOURCES__ */
 516:Generated_Source\PSoC5/ErikaOS_1_ee_oo_internal.inc **** 
 517:Generated_Source\PSoC5/ErikaOS_1_ee_oo_internal.inc **** #ifndef __PRIVATE_THREANTERMINATED__
 518:Generated_Source\PSoC5/ErikaOS_1_ee_oo_internal.inc **** /* this the function that will be called if a Task doesn't end calling
 519:Generated_Source\PSoC5/ErikaOS_1_ee_oo_internal.inc ****    TerminateTask */
 520:Generated_Source\PSoC5/ErikaOS_1_ee_oo_internal.inc **** 
 521:Generated_Source\PSoC5/ErikaOS_1_ee_oo_internal.inc **** extern void EE_thread_not_terminated( void );
 522:Generated_Source\PSoC5/ErikaOS_1_ee_oo_internal.inc **** #endif /* __PRIVATE_THREANTERMINATED__ */
 523:Generated_Source\PSoC5/ErikaOS_1_ee_oo_internal.inc **** 
 524:Generated_Source\PSoC5/ErikaOS_1_ee_oo_internal.inc **** /* This call terminates a thread instance. It must be called as the
 525:Generated_Source\PSoC5/ErikaOS_1_ee_oo_internal.inc ****    LAST function call BEFORE the `}' that ends a thread. If the
 526:Generated_Source\PSoC5/ErikaOS_1_ee_oo_internal.inc ****    primitive is not inserted at the end of */
 527:Generated_Source\PSoC5/ErikaOS_1_ee_oo_internal.inc **** #ifndef __PRIVATE_THREAD_END_INSTANCE__
 528:Generated_Source\PSoC5/ErikaOS_1_ee_oo_internal.inc **** void EE_thread_end_instance(void);
 529:Generated_Source\PSoC5/ErikaOS_1_ee_oo_internal.inc **** #endif
 530:Generated_Source\PSoC5/ErikaOS_1_ee_oo_internal.inc **** 
 531:Generated_Source\PSoC5/ErikaOS_1_ee_oo_internal.inc **** #if (defined(__OO_ISR2_RESOURCES__)) || (defined(EE_AS_USER_SPINLOCKS__))
 532:Generated_Source\PSoC5/ErikaOS_1_ee_oo_internal.inc **** /* Index used to give ISR2 Temporary TID value and to access at
 533:Generated_Source\PSoC5/ErikaOS_1_ee_oo_internal.inc ****    EE_isr2_nesting_level array */
 534:Generated_Source\PSoC5/ErikaOS_1_ee_oo_internal.inc **** extern EE_UREG EE_isr2_index;
 535:Generated_Source\PSoC5/ErikaOS_1_ee_oo_internal.inc **** 
 536:Generated_Source\PSoC5/ErikaOS_1_ee_oo_internal.inc **** /* Assign a fake TID to an ISR2 to eventually handle resources clean-up */
 537:Generated_Source\PSoC5/ErikaOS_1_ee_oo_internal.inc **** EE_TID  EE_oo_assign_TID_to_ISR2(void);
 538:Generated_Source\PSoC5/ErikaOS_1_ee_oo_internal.inc **** 
 539:Generated_Source\PSoC5/ErikaOS_1_ee_oo_internal.inc **** /* Get the last assigned fake ISR2 TID */
 540:Generated_Source\PSoC5/ErikaOS_1_ee_oo_internal.inc **** __INLINE__ EE_TID  EE_oo_get_ISR2_TID(void) {
 541:Generated_Source\PSoC5/ErikaOS_1_ee_oo_internal.inc ****   return (EE_isr2_index != EE_UREG_MINUS1)?
 542:Generated_Source\PSoC5/ErikaOS_1_ee_oo_internal.inc ****     (EE_MAX_TASK + (EE_TID)EE_isr2_index): EE_NIL;
 543:Generated_Source\PSoC5/ErikaOS_1_ee_oo_internal.inc **** }
 544:Generated_Source\PSoC5/ErikaOS_1_ee_oo_internal.inc **** #endif /* __OO_ISR2_RESOURCES__ || EE_AS_USER_SPINLOCKS__ */
 545:Generated_Source\PSoC5/ErikaOS_1_ee_oo_internal.inc **** 
 546:Generated_Source\PSoC5/ErikaOS_1_ee_oo_internal.inc **** #if (defined(__OO_ECC1__)) || (defined(__OO_ECC2__))
 547:Generated_Source\PSoC5/ErikaOS_1_ee_oo_internal.inc **** /*
 548:Generated_Source\PSoC5/ErikaOS_1_ee_oo_internal.inc ****     Reset Active Events  THREAD utility method.
 549:Generated_Source\PSoC5/ErikaOS_1_ee_oo_internal.inc **** 
 550:Generated_Source\PSoC5/ErikaOS_1_ee_oo_internal.inc ****     When an extended task is transferred from suspended state
 551:Generated_Source\PSoC5/ErikaOS_1_ee_oo_internal.inc ****     into ready state all its events have to be cleared cleared
 552:Generated_Source\PSoC5/ErikaOS_1_ee_oo_internal.inc **** */
 553:Generated_Source\PSoC5/ErikaOS_1_ee_oo_internal.inc **** __INLINE__ void  EE_oo_reset_th_event_active(TaskType tnotactive)
 554:Generated_Source\PSoC5/ErikaOS_1_ee_oo_internal.inc **** {
 555:Generated_Source\PSoC5/ErikaOS_1_ee_oo_internal.inc ****     EE_th_event_active[tnotactive] = 0U;
 556:Generated_Source\PSoC5/ErikaOS_1_ee_oo_internal.inc **** }
 557:Generated_Source\PSoC5/ErikaOS_1_ee_oo_internal.inc **** 
 558:Generated_Source\PSoC5/ErikaOS_1_ee_oo_internal.inc **** /* 
 559:Generated_Source\PSoC5/ErikaOS_1_ee_oo_internal.inc ****   This method actually do a CONTEXT SWITCH, with the highest priority TASK
 560:Generated_Source\PSoC5/ErikaOS_1_ee_oo_internal.inc **** */
 561:Generated_Source\PSoC5/ErikaOS_1_ee_oo_internal.inc **** #ifdef __MULTI__
 562:Generated_Source\PSoC5/ErikaOS_1_ee_oo_internal.inc **** __INLINE__ void  EE_oo_run_next_task(void)
ARM GAS  C:\Users\Reza\AppData\Local\Temp\cchq54cM.s 			page 32


 563:Generated_Source\PSoC5/ErikaOS_1_ee_oo_internal.inc **** {
 564:Generated_Source\PSoC5/ErikaOS_1_ee_oo_internal.inc ****     register TaskType tmp;
 565:Generated_Source\PSoC5/ErikaOS_1_ee_oo_internal.inc ****     /* swap from ready queue to stack queue */
 566:Generated_Source\PSoC5/ErikaOS_1_ee_oo_internal.inc ****     tmp = EE_rq2stk_exchange();
 567:Generated_Source\PSoC5/ErikaOS_1_ee_oo_internal.inc ****     if ( EE_th_waswaiting[tmp] ) {
 568:Generated_Source\PSoC5/ErikaOS_1_ee_oo_internal.inc ****       /* if the task was waiting switch the context to restart it */
 569:Generated_Source\PSoC5/ErikaOS_1_ee_oo_internal.inc ****       EE_th_waswaiting[tmp] = EE_FALSE;
 570:Generated_Source\PSoC5/ErikaOS_1_ee_oo_internal.inc ****       /* Call the PreTaskHook, here no stub will do that for you */
 571:Generated_Source\PSoC5/ErikaOS_1_ee_oo_internal.inc ****       EE_oo_call_PreTaskHook();
 572:Generated_Source\PSoC5/ErikaOS_1_ee_oo_internal.inc ****       EE_hal_stkchange(tmp);
 573:Generated_Source\PSoC5/ErikaOS_1_ee_oo_internal.inc ****     } else {
 574:Generated_Source\PSoC5/ErikaOS_1_ee_oo_internal.inc ****       /* the next task have to be started */
 575:Generated_Source\PSoC5/ErikaOS_1_ee_oo_internal.inc ****       EE_hal_ready2stacked(tmp);
 576:Generated_Source\PSoC5/ErikaOS_1_ee_oo_internal.inc ****     }
 577:Generated_Source\PSoC5/ErikaOS_1_ee_oo_internal.inc **** }
 578:Generated_Source\PSoC5/ErikaOS_1_ee_oo_internal.inc **** #else
 579:Generated_Source\PSoC5/ErikaOS_1_ee_oo_internal.inc **** __INLINE__ void  EE_oo_run_next_task(void)
 580:Generated_Source\PSoC5/ErikaOS_1_ee_oo_internal.inc **** {
 581:Generated_Source\PSoC5/ErikaOS_1_ee_oo_internal.inc ****     EE_hal_ready2stacked(EE_rq2stk_exchange());
 582:Generated_Source\PSoC5/ErikaOS_1_ee_oo_internal.inc **** }
 583:Generated_Source\PSoC5/ErikaOS_1_ee_oo_internal.inc **** #endif /* __MULTI__ */
 584:Generated_Source\PSoC5/ErikaOS_1_ee_oo_internal.inc **** #else
 585:Generated_Source\PSoC5/ErikaOS_1_ee_oo_internal.inc **** #define EE_oo_reset_th_event_active(TaskID)    ((void) 0)
 586:Generated_Source\PSoC5/ErikaOS_1_ee_oo_internal.inc **** 
 587:Generated_Source\PSoC5/ErikaOS_1_ee_oo_internal.inc **** /* 
 588:Generated_Source\PSoC5/ErikaOS_1_ee_oo_internal.inc ****   This method actually do a CONTEXT SWITCH, with the highest priority TASK
 589:Generated_Source\PSoC5/ErikaOS_1_ee_oo_internal.inc **** */
 590:Generated_Source\PSoC5/ErikaOS_1_ee_oo_internal.inc **** __INLINE__ void  EE_oo_run_next_task(void)
 591:Generated_Source\PSoC5/ErikaOS_1_ee_oo_internal.inc **** {
 592:Generated_Source\PSoC5/ErikaOS_1_ee_oo_internal.inc ****     EE_hal_ready2stacked(EE_rq2stk_exchange());
 593:Generated_Source\PSoC5/ErikaOS_1_ee_oo_internal.inc **** }
 594:Generated_Source\PSoC5/ErikaOS_1_ee_oo_internal.inc **** #endif /* defined(__OO_ECC1__) || defined(__OO_ECC2__) */
 595:Generated_Source\PSoC5/ErikaOS_1_ee_oo_internal.inc **** 
 596:Generated_Source\PSoC5/ErikaOS_1_ee_oo_internal.inc **** 
 597:Generated_Source\PSoC5/ErikaOS_1_ee_oo_internal.inc **** #if (defined(__OO_BCC2__)) || (defined(__OO_ECC2__))
 598:Generated_Source\PSoC5/ErikaOS_1_ee_oo_internal.inc ****   /*
 599:Generated_Source\PSoC5/ErikaOS_1_ee_oo_internal.inc ****     Set THREAD ready utility method.
 600:Generated_Source\PSoC5/ErikaOS_1_ee_oo_internal.inc ****     If the task is BCC2/ECC2 it can be that it is ready or 
 601:Generated_Source\PSoC5/ErikaOS_1_ee_oo_internal.inc ****     running. in that case we have to check and queue it anyway
 602:Generated_Source\PSoC5/ErikaOS_1_ee_oo_internal.inc ****   */
 603:Generated_Source\PSoC5/ErikaOS_1_ee_oo_internal.inc **** __INLINE__ void  EE_oo_set_th_status_ready(TaskType TaskID)
 604:Generated_Source\PSoC5/ErikaOS_1_ee_oo_internal.inc **** {
 605:Generated_Source\PSoC5/ErikaOS_1_ee_oo_internal.inc ****     if (EE_th_status[TaskID] == SUSPENDED) {
 606:Generated_Source\PSoC5/ErikaOS_1_ee_oo_internal.inc ****         EE_th_status[TaskID] = READY;
 607:Generated_Source\PSoC5/ErikaOS_1_ee_oo_internal.inc ****         EE_oo_reset_th_event_active(TaskID);
 608:Generated_Source\PSoC5/ErikaOS_1_ee_oo_internal.inc ****     }
 609:Generated_Source\PSoC5/ErikaOS_1_ee_oo_internal.inc **** }
 610:Generated_Source\PSoC5/ErikaOS_1_ee_oo_internal.inc **** #else
 611:Generated_Source\PSoC5/ErikaOS_1_ee_oo_internal.inc ****   /*
 612:Generated_Source\PSoC5/ErikaOS_1_ee_oo_internal.inc ****     Set THREAD ready utility method
 613:Generated_Source\PSoC5/ErikaOS_1_ee_oo_internal.inc ****     If the task is BCC1/ECC1 it can be here only because
 614:Generated_Source\PSoC5/ErikaOS_1_ee_oo_internal.inc ****     it had rnact=1 before the call, and so it is in suspended state
 615:Generated_Source\PSoC5/ErikaOS_1_ee_oo_internal.inc ****   */
 616:Generated_Source\PSoC5/ErikaOS_1_ee_oo_internal.inc **** __INLINE__ void  EE_oo_set_th_status_ready(TaskType tready)
 617:Generated_Source\PSoC5/ErikaOS_1_ee_oo_internal.inc **** {
 618:Generated_Source\PSoC5/ErikaOS_1_ee_oo_internal.inc ****     EE_th_status[tready] = READY;
 619:Generated_Source\PSoC5/ErikaOS_1_ee_oo_internal.inc ****     EE_oo_reset_th_event_active(tready);
ARM GAS  C:\Users\Reza\AppData\Local\Temp\cchq54cM.s 			page 33


 620:Generated_Source\PSoC5/ErikaOS_1_ee_oo_internal.inc **** }
 621:Generated_Source\PSoC5/ErikaOS_1_ee_oo_internal.inc **** #endif /* defined(__OO_BCC2__) || defined(__OO_ECC2__) */
 622:Generated_Source\PSoC5/ErikaOS_1_ee_oo_internal.inc **** 
 623:Generated_Source\PSoC5/ErikaOS_1_ee_oo_internal.inc **** __INLINE__ void  EE_oo_task_in_ready_queue( TaskType tid )
 624:Generated_Source\PSoC5/ErikaOS_1_ee_oo_internal.inc **** {
 625:Generated_Source\PSoC5/ErikaOS_1_ee_oo_internal.inc ****   /* Decrement the residual number activation */
 626:Generated_Source\PSoC5/ErikaOS_1_ee_oo_internal.inc ****   --EE_th_rnact[tid];
 149              		.loc 5 626 0
 150 005a 214E     		ldr	r6, .L14+40
 151              	.LBE91:
 152              	.LBE90:
 153              	.LBE89:
 150:Generated_Source\PSoC5/ErikaOS_1_ee_startos.c ****   for ( t = 0U; t < ntask; t++ ) {
 154              		.loc 1 150 0
 155 005c 3B68     		ldr	r3, [r7]
 156              	.LBB108:
 157              	.LBB103:
 158              	.LBB100:
 159              	.LBB92:
 160              	.LBB93:
 605:Generated_Source\PSoC5/ErikaOS_1_ee_oo_internal.inc ****         EE_th_status[TaskID] = READY;
 161              		.loc 5 605 0
 162 005e DFF87890 		ldr	r9, .L14+32
 163              	.LBB94:
 164              	.LBB95:
 555:Generated_Source\PSoC5/ErikaOS_1_ee_oo_internal.inc **** }
 165              		.loc 5 555 0
 166 0062 DFF880A0 		ldr	r10, .L14+44
 167              	.LBE95:
 168              	.LBE94:
 169              	.LBE93:
 170              	.LBE92:
 171              	.LBE100:
 172              	.LBE103:
 173              	.LBE108:
 150:Generated_Source\PSoC5/ErikaOS_1_ee_startos.c ****   for ( t = 0U; t < ntask; t++ ) {
 174              		.loc 1 150 0
 175 0066 0193     		str	r3, [sp, #4]
 176              	.LVL11:
 177              	.L6:
 151:Generated_Source\PSoC5/ErikaOS_1_ee_startos.c ****     /* Insert the TID in Ready Queue */
 178              		.loc 1 151 0
 179 0068 019B     		ldr	r3, [sp, #4]
 180 006a A342     		cmp	r3, r4
 181 006c E0D0     		beq	.L10
 182              	.LBB109:
 153:Generated_Source\PSoC5/ErikaOS_1_ee_startos.c ****     EE_oo_task_in_ready_queue(tid);
 183              		.loc 1 153 0
 184 006e 7B68     		ldr	r3, [r7, #4]
 185              	.LVL12:
 186              	.LBB104:
 187              	.LBB105:
 140:Generated_Source\PSoC5/ErikaOS_1_ee_startos.c ****     res = task_id_vec[t];
 188              		.loc 1 140 0
 189 0070 13B1     		cbz	r3, .L12
 141:Generated_Source\PSoC5/ErikaOS_1_ee_startos.c ****   }
 190              		.loc 1 141 0
ARM GAS  C:\Users\Reza\AppData\Local\Temp\cchq54cM.s 			page 34


 191 0072 53F82400 		ldr	r0, [r3, r4, lsl #2]
 192              	.LVL13:
 193 0076 01E0     		b	.L7
 194              	.LVL14:
 195              	.L12:
 138:Generated_Source\PSoC5/ErikaOS_1_ee_startos.c **** 
 196              		.loc 1 138 0
 197 0078 4FF0FF30 		mov	r0, #-1
 198              	.LVL15:
 199              	.L7:
 200              	.LBE105:
 201              	.LBE104:
 202              	.LBB106:
 203              	.LBB101:
 204              		.loc 5 626 0
 205 007c 56F82030 		ldr	r3, [r6, r0, lsl #2]
 206              	.LBE101:
 207              	.LBE106:
 208              	.LBE109:
 151:Generated_Source\PSoC5/ErikaOS_1_ee_startos.c ****     /* Insert the TID in Ready Queue */
 209              		.loc 1 151 0
 210 0080 0134     		adds	r4, r4, #1
 211              	.LVL16:
 212              	.LBB110:
 213              	.LBB107:
 214              	.LBB102:
 215              		.loc 5 626 0
 216 0082 013B     		subs	r3, r3, #1
 217 0084 46F82030 		str	r3, [r6, r0, lsl #2]
 218              	.LVL17:
 219              	.LBB99:
 220              	.LBB98:
 605:Generated_Source\PSoC5/ErikaOS_1_ee_oo_internal.inc ****         EE_th_status[TaskID] = READY;
 221              		.loc 5 605 0
 222 0088 59F82030 		ldr	r3, [r9, r0, lsl #2]
 223 008c 032B     		cmp	r3, #3
 606:Generated_Source\PSoC5/ErikaOS_1_ee_oo_internal.inc ****         EE_oo_reset_th_event_active(TaskID);
 224              		.loc 5 606 0
 225 008e 01BF     		itttt	eq
 226 0090 0223     		moveq	r3, #2
 227 0092 49F82030 		streq	r3, [r9, r0, lsl #2]
 228              	.LVL18:
 229              	.LBB97:
 230              	.LBB96:
 555:Generated_Source\PSoC5/ErikaOS_1_ee_oo_internal.inc **** }
 231              		.loc 5 555 0
 232 0096 0023     		moveq	r3, #0
 233 0098 4AF82030 		streq	r3, [r10, r0, lsl #2]
 234              	.LVL19:
 235              	.LBE96:
 236              	.LBE97:
 237              	.LBE98:
 238              	.LBE99:
 627:Generated_Source\PSoC5/ErikaOS_1_ee_oo_internal.inc ****   /* Set the status READY handling multiple activations */
 628:Generated_Source\PSoC5/ErikaOS_1_ee_oo_internal.inc ****   EE_oo_set_th_status_ready(tid);
 629:Generated_Source\PSoC5/ErikaOS_1_ee_oo_internal.inc ****   /* insert the task in the ready queue */
 630:Generated_Source\PSoC5/ErikaOS_1_ee_oo_internal.inc ****   EE_rq_insert(tid);
ARM GAS  C:\Users\Reza\AppData\Local\Temp\cchq54cM.s 			page 35


 239              		.loc 5 630 0
 240 009c FFF7FEFF 		bl	EE_rq_insert
 241              	.LVL20:
 242 00a0 E2E7     		b	.L6
 243              	.LVL21:
 244              	.L5:
 245              	.LBE102:
 246              	.LBE107:
 247              	.LBE110:
 248              	.LBE88:
 249              	.LBE87:
 250              	.LBE111:
 251              	.LBE114:
 252              	.LBB115:
 253              	.LBB116:
 254              	.LBB117:
 191:Generated_Source\PSoC5/ErikaOS_1_cortex_mx_ee_cpu.inc **** #endif	/* !__KEIL__ */
 255              		.loc 2 191 0
 256              		.syntax unified
 257              	@ 191 "Generated_Source\PSoC5\ErikaOS_1_cortex_mx_ee_cpu.inc" 1
 258 00a2 62B6     		cpsie i
 259              	@ 0 "" 2
 260              		.thumb
 261              		.syntax unified
 262              	.LBE117:
 263              	.LBE116:
 264              	.LBE115:
 265              	.LBB118:
 266              	.LBB119:
 300:Generated_Source\PSoC5/ErikaOS_1_ee_startos.c **** 
 267              		.loc 1 300 0
 268 00a4 0123     		movs	r3, #1
 269 00a6 2B60     		str	r3, [r5]
 270              	.L11:
 271 00a8 FEE7     		b	.L11
 272              	.LVL22:
 273              	.L2:
 274              	.LBE119:
 275              	.LBE118:
 276              	.LBB120:
 277              	.LBB121:
 278              	.LBB122:
 232:Generated_Source\PSoC5/ErikaOS_1_cortex_mx_ee_cpu.inc **** #endif	/* !__KEIL__ */
 279              		.loc 2 232 0
 280              		.syntax unified
 281              	@ 232 "Generated_Source\PSoC5\ErikaOS_1_cortex_mx_ee_cpu.inc" 1
 282 00aa 83F31088 		msr primask, r3
 283              	@ 0 "" 2
 284              	.LVL23:
 285              		.thumb
 286              		.syntax unified
 287              	.LBE122:
 288              	.LBE121:
 289              	.LBE120:
 539:Generated_Source\PSoC5/ErikaOS_1_ee_startos.c ****       } else {
 540:Generated_Source\PSoC5/ErikaOS_1_ee_startos.c ****         /* Prepare to go in IDLE Loop */
 541:Generated_Source\PSoC5/ErikaOS_1_ee_startos.c ****         EE_as_set_execution_context(Idle_Context);
ARM GAS  C:\Users\Reza\AppData\Local\Temp\cchq54cM.s 			page 36


 542:Generated_Source\PSoC5/ErikaOS_1_ee_startos.c ****         EE_as_tp_active_start_idle();
 543:Generated_Source\PSoC5/ErikaOS_1_ee_startos.c ****       }
 544:Generated_Source\PSoC5/ErikaOS_1_ee_startos.c **** 
 545:Generated_Source\PSoC5/ErikaOS_1_ee_startos.c ****       EE_ORTI_set_service_out(EE_SERVICETRACE_STARTOS);
 546:Generated_Source\PSoC5/ErikaOS_1_ee_startos.c ****       /* In Case of StartOS first call that return (this means:
 547:Generated_Source\PSoC5/ErikaOS_1_ee_startos.c ****         __OO_STARTOS_OLD__ enabled) I have to enable IRQ. */
 548:Generated_Source\PSoC5/ErikaOS_1_ee_startos.c ****       /* In any case enable IRQ before endless IDLE loop */
 549:Generated_Source\PSoC5/ErikaOS_1_ee_startos.c ****       EE_hal_enableIRQ();
 550:Generated_Source\PSoC5/ErikaOS_1_ee_startos.c ****       /* If __OO_STARTOS_OLD__ is defined -> return, otherwise endless cycle. */
 551:Generated_Source\PSoC5/ErikaOS_1_ee_startos.c ****       EE_oo_start_os();
 552:Generated_Source\PSoC5/ErikaOS_1_ee_startos.c ****     }
 553:Generated_Source\PSoC5/ErikaOS_1_ee_startos.c ****   }
 554:Generated_Source\PSoC5/ErikaOS_1_ee_startos.c **** 
 555:Generated_Source\PSoC5/ErikaOS_1_ee_startos.c ****   if ( ev != E_OK ) {
 556:Generated_Source\PSoC5/ErikaOS_1_ee_startos.c ****     EE_ORTI_set_lasterror(ev);
 557:Generated_Source\PSoC5/ErikaOS_1_ee_startos.c ****     EE_oo_notify_error_StartOS(Mode, ev);
 558:Generated_Source\PSoC5/ErikaOS_1_ee_startos.c ****     EE_ORTI_set_service_out(EE_SERVICETRACE_STARTOS);
 559:Generated_Source\PSoC5/ErikaOS_1_ee_startos.c ****     EE_hal_end_nested_primitive(flag);
 560:Generated_Source\PSoC5/ErikaOS_1_ee_startos.c ****   }
 561:Generated_Source\PSoC5/ErikaOS_1_ee_startos.c **** 
 562:Generated_Source\PSoC5/ErikaOS_1_ee_startos.c ****   return ev;
 563:Generated_Source\PSoC5/ErikaOS_1_ee_startos.c **** }
 290              		.loc 1 563 0
 291 00ae 0720     		movs	r0, #7
 292              	.LVL24:
 293 00b0 03B0     		add	sp, sp, #12
 294              		.cfi_def_cfa_offset 28
 295              		@ sp needed
 296 00b2 BDE8F086 		pop	{r4, r5, r6, r7, r9, r10, pc}
 297              	.LVL25:
 298              	.L15:
 299 00b6 00BF     		.align	2
 300              	.L14:
 301 00b8 00000000 		.word	CyRamVectors
 302 00bc 00000000 		.word	EE_cortex_mx_svc_ISR
 303 00c0 00000000 		.word	EE_cortex_mx_pendsv_ISR
 304 00c4 00000000 		.word	systick_handler
 305 00c8 00000000 		.word	EE_oo_started
 306 00cc 00000000 		.word	EE_ApplicationMode
 307 00d0 00000000 		.word	EE_sys_ceiling
 308 00d4 00000000 		.word	EE_th_dispatch_prio
 309 00d8 00000000 		.word	EE_th_status
 310 00dc 00000000 		.word	EE_oo_autostart_task_data
 311 00e0 00000000 		.word	EE_th_rnact
 312 00e4 00000000 		.word	EE_th_event_active
 313              		.cfi_endproc
 314              	.LFE75:
 315              		.size	EE_oo_StartOS, .-EE_oo_StartOS
 316              		.comm	EE_oo_started,4,4
 317              		.text
 318              	.Letext0:
 319              		.file 6 "c:\\program files (x86)\\cypress\\psoc creator\\4.2\\psoc creator\\import\\gnu\\arm\\5.4.
 320              		.file 7 "Generated_Source\\PSoC5\\ErikaOS_1_common_ee_types.inc"
 321              		.file 8 "Generated_Source\\PSoC5\\ErikaOS_1_ee_oo_common.inc"
 322              		.file 9 "c:\\program files (x86)\\cypress\\psoc creator\\4.2\\psoc creator\\import\\gnu\\arm\\5.4.
 323              		.file 10 "c:\\program files (x86)\\cypress\\psoc creator\\4.2\\psoc creator\\import\\gnu\\arm\\5.4
 324              		.file 11 "c:\\program files (x86)\\cypress\\psoc creator\\4.2\\psoc creator\\import\\gnu\\arm\\5.4
ARM GAS  C:\Users\Reza\AppData\Local\Temp\cchq54cM.s 			page 37


 325              		.file 12 "c:\\program files (x86)\\cypress\\psoc creator\\4.2\\psoc creator\\import\\gnu\\arm\\5.4
 326              		.file 13 "c:\\program files (x86)\\cypress\\psoc creator\\4.2\\psoc creator\\import\\gnu\\arm\\5.4
 327              		.file 14 "Generated_Source\\PSoC5\\cytypes.h"
 328              		.file 15 "Generated_Source\\PSoC5\\CySpc.h"
 329              		.file 16 "Generated_Source\\PSoC5\\CyFlash.h"
 330              		.file 17 "Generated_Source\\PSoC5\\cyPm.h"
 331              		.file 18 "Generated_Source\\PSoC5\\CyLib.h"
 332              		.file 19 "Generated_Source\\PSoC5\\ErikaOS_1_common_ee_primitives.inc"
 333              		.file 20 "Generated_Source\\PSoC5\\ErikaOS_1_ee_oo_intfunc.inc"