ARM GAS  C:\Users\Reza\AppData\Local\Temp\ccVjQUhp.s 			page 1


   1              		.syntax unified
   2              		.cpu cortex-m3
   3              		.fpu softvfp
   4              		.eabi_attribute 20, 1
   5              		.eabi_attribute 21, 1
   6              		.eabi_attribute 23, 3
   7              		.eabi_attribute 24, 1
   8              		.eabi_attribute 25, 1
   9              		.eabi_attribute 26, 1
  10              		.eabi_attribute 30, 4
  11              		.eabi_attribute 34, 1
  12              		.eabi_attribute 18, 4
  13              		.thumb
  14              		.syntax unified
  15              		.file	"led.c"
  16              		.text
  17              	.Ltext0:
  18              		.cfi_sections	.debug_frame
  19              		.section	.text.LED_Set,"ax",%progbits
  20              		.align	1
  21              		.global	LED_Set
  22              		.thumb
  23              		.thumb_func
  24              		.type	LED_Set, %function
  25              	LED_Set:
  26              	.LFB111:
  27              		.file 1 "source\\bsw\\led.c"
   1:source\bsw/led.c **** /**
   2:source\bsw/led.c **** * \file <filename>
   3:source\bsw/led.c **** * \author <author-name>
   4:source\bsw/led.c **** * \date <date>
   5:source\bsw/led.c **** *
   6:source\bsw/led.c **** * \brief <Symbolic File name>
   7:source\bsw/led.c **** *
   8:source\bsw/led.c **** * \copyright Copyright ©2016
   9:source\bsw/led.c **** * Department of electrical engineering and information technology, Hochschule Darmstadt - Universit
  10:source\bsw/led.c **** * Permission to use, copy, modify, and distribute this software and its documentation for education
  11:source\bsw/led.c **** * (unless permitted by h_da) and official h_da projects, is hereby granted for enrolled students of
  12:source\bsw/led.c **** * this paragraph and the following paragraph appear in all copies, modifications, and distributions
  13:source\bsw/led.c **** * Contact Prof.Dr.-Ing. Peter Fromm, peter.fromm@h-da.de, Birkenweg 8 64295 Darmstadt - GERMANY for
  14:source\bsw/led.c **** *
  15:source\bsw/led.c **** * \warning This software is a PROTOTYPE version and is not designed or intended for use in producti
  16:source\bsw/led.c **** * The user represents and warrants that it will NOT use or redistribute the Software for such purpo
  17:source\bsw/led.c **** * This prototype is for research purposes only. This software is provided "AS IS," without a warran
  18:source\bsw/led.c **** */
  19:source\bsw/led.c **** 
  20:source\bsw/led.c **** /*****************************************************************************/
  21:source\bsw/led.c **** /* Include files                                                             */
  22:source\bsw/led.c **** /*****************************************************************************/
  23:source\bsw/led.c **** 
  24:source\bsw/led.c **** #include "project.h"
  25:source\bsw/led.c **** #include "led.h"
  26:source\bsw/led.c **** 
  27:source\bsw/led.c **** 
  28:source\bsw/led.c **** /*****************************************************************************/
  29:source\bsw/led.c **** /* Local pre-processor symbols/macros ('#define')                            */
  30:source\bsw/led.c **** /*****************************************************************************/
ARM GAS  C:\Users\Reza\AppData\Local\Temp\ccVjQUhp.s 			page 2


  31:source\bsw/led.c **** 
  32:source\bsw/led.c **** /*****************************************************************************/
  33:source\bsw/led.c **** /* Global variable definitions (declared in header file with 'extern')       */
  34:source\bsw/led.c **** /*****************************************************************************/
  35:source\bsw/led.c **** 
  36:source\bsw/led.c **** /*****************************************************************************/
  37:source\bsw/led.c **** /* Local type definitions ('typedef')                                        */
  38:source\bsw/led.c **** /*****************************************************************************/
  39:source\bsw/led.c **** 
  40:source\bsw/led.c **** 
  41:source\bsw/led.c **** 
  42:source\bsw/led.c **** /*****************************************************************************/
  43:source\bsw/led.c **** /* Local variable definitions ('static')                                     */
  44:source\bsw/led.c **** /*****************************************************************************/
  45:source\bsw/led.c **** 
  46:source\bsw/led.c **** 
  47:source\bsw/led.c **** static LED_ONOFF_t LED__state[LED_ALL] = {LED_OFF, LED_OFF, LED_OFF}; /**< On/Off State of the LED,
  48:source\bsw/led.c **** 
  49:source\bsw/led.c **** const static uint16 LED__Pulse_Width[256] = {
  50:source\bsw/led.c ****     0, 1, 1, 1, 1, 1, 1, 1, 1, 2, 2, 2, 2, 2, 2, 2, 2, 2, 2, 2, 2, 3,
  51:source\bsw/led.c ****     3, 3, 3, 3, 3, 3, 4, 4, 4, 4, 4, 4, 5, 5, 5, 5, 5, 6, 6, 6, 6, 7,
  52:source\bsw/led.c ****     7, 7, 8, 8, 8, 9, 9, 10, 10, 10, 11, 11, 12, 12, 13, 13, 14, 15,
  53:source\bsw/led.c ****     15, 16, 17, 17, 18, 19, 20, 21, 22, 23, 24, 25, 26, 27, 28, 29,
  54:source\bsw/led.c ****     31, 32, 33, 35, 36, 38, 40, 41, 43, 45, 47, 49, 52, 54, 56, 59,
  55:source\bsw/led.c ****     61, 64, 67, 70, 73, 76, 79, 83, 87, 91, 95, 99, 103, 108, 112,
  56:source\bsw/led.c ****     117, 123, 128, 134, 140, 146, 152, 159, 166, 173, 181, 189, 197,
  57:source\bsw/led.c ****     206, 215, 225, 235, 245, 256, 267, 279, 292, 304, 318, 332, 347,
  58:source\bsw/led.c ****     362, 378, 395, 412, 431, 450, 470, 490, 512, 535, 558, 583, 609,
  59:source\bsw/led.c ****     636, 664, 693, 724, 756, 790, 825, 861, 899, 939, 981, 1024, 1069,
  60:source\bsw/led.c ****     1117, 1166, 1218, 1272, 1328, 1387, 1448, 1512, 1579, 1649, 1722,
  61:source\bsw/led.c ****     1798, 1878, 1961, 2048, 2139, 2233, 2332, 2435, 2543, 2656, 2773,
  62:source\bsw/led.c ****     2896, 3025, 3158, 3298, 3444, 3597, 3756, 3922, 4096, 4277, 4467,
  63:source\bsw/led.c ****     4664, 4871, 5087, 5312, 5547, 5793, 6049, 6317, 6596, 6889, 7194,
  64:source\bsw/led.c ****     7512, 7845, 8192, 8555, 8933, 9329, 9742, 10173, 10624, 11094,
  65:source\bsw/led.c ****     11585, 12098, 12634, 13193, 13777, 14387, 15024, 15689, 16384,
  66:source\bsw/led.c ****     17109, 17867, 18658, 19484, 20346, 21247, 22188, 23170, 24196,
  67:source\bsw/led.c ****     25267, 26386, 27554, 28774, 30048, 31378, 32768, 34218, 35733,
  68:source\bsw/led.c ****     37315, 38967, 40693, 42494, 44376, 46340, 48392, 50534, 52772,
  69:source\bsw/led.c ****     55108, 57548, 60096, 62757, 65535
  70:source\bsw/led.c **** };
  71:source\bsw/led.c **** 
  72:source\bsw/led.c **** /*****************************************************************************/
  73:source\bsw/led.c **** /* Local function prototypes ('static')                                      */
  74:source\bsw/led.c **** /*****************************************************************************/
  75:source\bsw/led.c **** 
  76:source\bsw/led.c **** /**
  77:source\bsw/led.c ****  * Inverts the parameter
  78:source\bsw/led.c ****  * @param LED_ONOFF_t ledOnOff - Value to be inverted
  79:source\bsw/led.c ****  * @return inverted parameter
  80:source\bsw/led.c ****  */
  81:source\bsw/led.c **** static inline LED_ONOFF_t LED__toggleValue(LED_ONOFF_t ledOnOff);
  82:source\bsw/led.c **** 
  83:source\bsw/led.c **** 
  84:source\bsw/led.c **** /*****************************************************************************/
  85:source\bsw/led.c **** /* Function implementation - global ('extern') and local ('static')          */
  86:source\bsw/led.c **** /*****************************************************************************/
  87:source\bsw/led.c **** 
ARM GAS  C:\Users\Reza\AppData\Local\Temp\ccVjQUhp.s 			page 3


  88:source\bsw/led.c **** /**
  89:source\bsw/led.c ****  * Initialises the LED's and turns them off
  90:source\bsw/led.c ****  * @return RC_SUCCESS if function was executed as exepected, other error code in case of error
  91:source\bsw/led.c ****  */
  92:source\bsw/led.c **** RC_t LED_Init()
  93:source\bsw/led.c **** {
  94:source\bsw/led.c ****     RC_t result = RC_SUCCESS;
  95:source\bsw/led.c ****     
  96:source\bsw/led.c ****     for (LED_id_t i = LED_RED; i < LED_ALL; i++)
  97:source\bsw/led.c ****     {
  98:source\bsw/led.c ****         LED__state[i] = OFF;
  99:source\bsw/led.c ****         
 100:source\bsw/led.c ****         RC_t clearResult;
 101:source\bsw/led.c ****         clearResult = LED_Set(i, LED_OFF);
 102:source\bsw/led.c ****         
 103:source\bsw/led.c ****         if (clearResult != RC_SUCCESS)
 104:source\bsw/led.c ****         {
 105:source\bsw/led.c ****             //memorize error
 106:source\bsw/led.c ****             result = clearResult;
 107:source\bsw/led.c ****         }
 108:source\bsw/led.c ****     }
 109:source\bsw/led.c ****     
 110:source\bsw/led.c ****     //Init RGB
 111:source\bsw/led.c ****     RGB_PWM_blue_Start();
 112:source\bsw/led.c ****     RGB_PWM_green_Start();
 113:source\bsw/led.c ****     RGB_PWM_red_Start();
 114:source\bsw/led.c ****     
 115:source\bsw/led.c ****     return result;
 116:source\bsw/led.c **** }
 117:source\bsw/led.c **** 
 118:source\bsw/led.c **** /**
 119:source\bsw/led.c ****  * Sets the required LED
 120:source\bsw/led.c ****  * @param LED_t ledId - Identifier for the LED, ALL will change all LED's
 121:source\bsw/led.c ****  * @param LED_ONOFF_t ledOnOff - Trun the led on or off
 122:source\bsw/led.c ****  * @return RC_SUCCESS if function was executed as exepected, other error code in case of error
 123:source\bsw/led.c ****  */
 124:source\bsw/led.c **** RC_t LED_Set(LED_id_t ledId, LED_ONOFF_t ledOnOff)
 125:source\bsw/led.c **** {
  28              		.loc 1 125 0
  29              		.cfi_startproc
  30              		@ args = 0, pretend = 0, frame = 0
  31              		@ frame_needed = 0, uses_anonymous_args = 0
  32              	.LVL0:
  33 0000 10B5     		push	{r4, lr}
  34              		.cfi_def_cfa_offset 8
  35              		.cfi_offset 4, -8
  36              		.cfi_offset 14, -4
  37              		.loc 1 125 0
  38 0002 0C46     		mov	r4, r1
 126:source\bsw/led.c ****     //set individual LED
 127:source\bsw/led.c ****     switch (ledId)
  39              		.loc 1 127 0
  40 0004 0328     		cmp	r0, #3
  41 0006 22D8     		bhi	.L8
  42 0008 DFE800F0 		tbb	[pc, r0]
  43              	.L4:
  44 000c 0E       		.byte	(.L3-.L4)/2
ARM GAS  C:\Users\Reza\AppData\Local\Temp\ccVjQUhp.s 			page 4


  45 000d 14       		.byte	(.L5-.L4)/2
  46 000e 1B       		.byte	(.L6-.L4)/2
  47 000f 02       		.byte	(.L7-.L4)/2
  48              		.p2align 1
  49              	.L7:
  50              	.LVL1:
  51              	.LBB14:
  52              	.LBB15:
 128:source\bsw/led.c ****     {
 129:source\bsw/led.c ****         case LED_RED : 
 130:source\bsw/led.c ****             LED_red_Write(ledOnOff); 
 131:source\bsw/led.c ****             LED__state[ledId] = ledOnOff; 
 132:source\bsw/led.c ****             break;
 133:source\bsw/led.c ****         
 134:source\bsw/led.c ****         case LED_YELLOW : 
 135:source\bsw/led.c ****             LED_yellow_Write(ledOnOff); 
 136:source\bsw/led.c ****             LED__state[ledId] = ledOnOff;
 137:source\bsw/led.c ****             break;
 138:source\bsw/led.c ****             
 139:source\bsw/led.c ****         case LED_GREEN : 
 140:source\bsw/led.c ****             LED_green_Write(ledOnOff); 
 141:source\bsw/led.c ****             LED__state[ledId] = ledOnOff;
 142:source\bsw/led.c ****             break;
 143:source\bsw/led.c ****            
 144:source\bsw/led.c ****         case LED_ALL : 
 145:source\bsw/led.c ****             for (LED_id_t i = LED_RED; i < LED_ALL; i++)
 146:source\bsw/led.c ****             {
 147:source\bsw/led.c ****                 LED_Set(i, ledOnOff);
  53              		.loc 1 147 0
  54 0010 0020     		movs	r0, #0
  55              	.LVL2:
  56 0012 FFF7FEFF 		bl	LED_Set
  57              	.LVL3:
  58 0016 2146     		mov	r1, r4
  59 0018 0120     		movs	r0, #1
  60 001a FFF7FEFF 		bl	LED_Set
  61              	.LVL4:
  62 001e 2146     		mov	r1, r4
  63 0020 0220     		movs	r0, #2
  64 0022 FFF7FEFF 		bl	LED_Set
  65              	.LVL5:
  66 0026 0AE0     		b	.L9
  67              	.LVL6:
  68              	.L3:
  69              	.LBE15:
  70              	.LBE14:
 130:source\bsw/led.c ****             LED__state[ledId] = ledOnOff; 
  71              		.loc 1 130 0
  72 0028 0846     		mov	r0, r1
  73              	.LVL7:
  74 002a FFF7FEFF 		bl	LED_red_Write
  75              	.LVL8:
 131:source\bsw/led.c ****             break;
  76              		.loc 1 131 0
  77 002e 094B     		ldr	r3, .L11
  78 0030 1C70     		strb	r4, [r3]
  79 0032 04E0     		b	.L9
ARM GAS  C:\Users\Reza\AppData\Local\Temp\ccVjQUhp.s 			page 5


  80              	.LVL9:
  81              	.L5:
 135:source\bsw/led.c ****             LED__state[ledId] = ledOnOff;
  82              		.loc 1 135 0
  83 0034 0846     		mov	r0, r1
  84              	.LVL10:
  85 0036 FFF7FEFF 		bl	LED_yellow_Write
  86              	.LVL11:
 136:source\bsw/led.c ****             break;
  87              		.loc 1 136 0
  88 003a 064B     		ldr	r3, .L11
  89 003c 5C70     		strb	r4, [r3, #1]
  90              	.L9:
 148:source\bsw/led.c ****             }
 149:source\bsw/led.c ****             break;
 150:source\bsw/led.c ****         default: return RC_ERROR_BAD_PARAM;
 151:source\bsw/led.c ****     }
 152:source\bsw/led.c ****     
 153:source\bsw/led.c ****     return RC_SUCCESS;
  91              		.loc 1 153 0
  92 003e 0020     		movs	r0, #0
 137:source\bsw/led.c ****             
  93              		.loc 1 137 0
  94 0040 10BD     		pop	{r4, pc}
  95              	.LVL12:
  96              	.L6:
 140:source\bsw/led.c ****             LED__state[ledId] = ledOnOff;
  97              		.loc 1 140 0
  98 0042 0846     		mov	r0, r1
  99              	.LVL13:
 100 0044 FFF7FEFF 		bl	LED_green_Write
 101              	.LVL14:
 141:source\bsw/led.c ****             break;
 102              		.loc 1 141 0
 103 0048 024B     		ldr	r3, .L11
 104 004a 9C70     		strb	r4, [r3, #2]
 105 004c F7E7     		b	.L9
 106              	.LVL15:
 107              	.L8:
 150:source\bsw/led.c ****     }
 108              		.loc 1 150 0
 109 004e 6FF01300 		mvn	r0, #19
 110              	.LVL16:
 154:source\bsw/led.c **** }
 111              		.loc 1 154 0
 112 0052 10BD     		pop	{r4, pc}
 113              	.L12:
 114              		.align	2
 115              	.L11:
 116 0054 00000000 		.word	.LANCHOR0
 117              		.cfi_endproc
 118              	.LFE111:
 119              		.size	LED_Set, .-LED_Set
 120              		.section	.text.LED_Init,"ax",%progbits
 121              		.align	1
 122              		.global	LED_Init
 123              		.thumb
ARM GAS  C:\Users\Reza\AppData\Local\Temp\ccVjQUhp.s 			page 6


 124              		.thumb_func
 125              		.type	LED_Init, %function
 126              	LED_Init:
 127              	.LFB110:
  93:source\bsw/led.c ****     RC_t result = RC_SUCCESS;
 128              		.loc 1 93 0
 129              		.cfi_startproc
 130              		@ args = 0, pretend = 0, frame = 0
 131              		@ frame_needed = 0, uses_anonymous_args = 0
 132              	.LVL17:
 133 0000 F8B5     		push	{r3, r4, r5, r6, r7, lr}
 134              		.cfi_def_cfa_offset 24
 135              		.cfi_offset 3, -24
 136              		.cfi_offset 4, -20
 137              		.cfi_offset 5, -16
 138              		.cfi_offset 6, -12
 139              		.cfi_offset 7, -8
 140              		.cfi_offset 14, -4
  93:source\bsw/led.c ****     RC_t result = RC_SUCCESS;
 141              		.loc 1 93 0
 142 0002 0024     		movs	r4, #0
  94:source\bsw/led.c ****     
 143              		.loc 1 94 0
 144 0004 2546     		mov	r5, r4
 145              	.LBB16:
 146              	.LBB17:
  98:source\bsw/led.c ****         
 147              		.loc 1 98 0
 148 0006 2746     		mov	r7, r4
 149 0008 094E     		ldr	r6, .L19
 150              	.LVL18:
 151              	.L15:
 152 000a A755     		strb	r7, [r4, r6]
 101:source\bsw/led.c ****         
 153              		.loc 1 101 0
 154 000c E0B2     		uxtb	r0, r4
 155 000e 0021     		movs	r1, #0
 156 0010 FFF7FEFF 		bl	LED_Set
 157              	.LVL19:
 158 0014 0134     		adds	r4, r4, #1
 159              	.LVL20:
 103:source\bsw/led.c ****         {
 160              		.loc 1 103 0
 161 0016 0028     		cmp	r0, #0
 162 0018 18BF     		it	ne
 163 001a 0546     		movne	r5, r0
 164              	.LVL21:
 165              	.LBE17:
  96:source\bsw/led.c ****     {
 166              		.loc 1 96 0
 167 001c 032C     		cmp	r4, #3
 168 001e F4D1     		bne	.L15
 169              	.LBE16:
 111:source\bsw/led.c ****     RGB_PWM_green_Start();
 170              		.loc 1 111 0
 171 0020 FFF7FEFF 		bl	RGB_PWM_blue_Start
 172              	.LVL22:
ARM GAS  C:\Users\Reza\AppData\Local\Temp\ccVjQUhp.s 			page 7


 112:source\bsw/led.c ****     RGB_PWM_red_Start();
 173              		.loc 1 112 0
 174 0024 FFF7FEFF 		bl	RGB_PWM_green_Start
 175              	.LVL23:
 113:source\bsw/led.c ****     
 176              		.loc 1 113 0
 177 0028 FFF7FEFF 		bl	RGB_PWM_red_Start
 178              	.LVL24:
 116:source\bsw/led.c **** 
 179              		.loc 1 116 0
 180 002c 2846     		mov	r0, r5
 181 002e F8BD     		pop	{r3, r4, r5, r6, r7, pc}
 182              	.LVL25:
 183              	.L20:
 184              		.align	2
 185              	.L19:
 186 0030 00000000 		.word	.LANCHOR0
 187              		.cfi_endproc
 188              	.LFE110:
 189              		.size	LED_Init, .-LED_Init
 190              		.section	.text.LED_Toggle,"ax",%progbits
 191              		.align	1
 192              		.global	LED_Toggle
 193              		.thumb
 194              		.thumb_func
 195              		.type	LED_Toggle, %function
 196              	LED_Toggle:
 197              	.LFB112:
 155:source\bsw/led.c **** 
 156:source\bsw/led.c **** 
 157:source\bsw/led.c **** 
 158:source\bsw/led.c **** /**
 159:source\bsw/led.c ****  * Toggle the required LED
 160:source\bsw/led.c ****  * @param LED_t ledId - Identifier for the LED, ALL will change all LED's
 161:source\bsw/led.c ****  * @return RC_SUCCESS if function was executed as exepected, other error code in case of error
 162:source\bsw/led.c ****  */
 163:source\bsw/led.c **** RC_t LED_Toggle(LED_id_t ledId)
 164:source\bsw/led.c **** {
 198              		.loc 1 164 0
 199              		.cfi_startproc
 200              		@ args = 0, pretend = 0, frame = 0
 201              		@ frame_needed = 0, uses_anonymous_args = 0
 202              	.LVL26:
 203 0000 08B5     		push	{r3, lr}
 204              		.cfi_def_cfa_offset 8
 205              		.cfi_offset 3, -8
 206              		.cfi_offset 14, -4
 165:source\bsw/led.c ****     //set individual LED
 166:source\bsw/led.c ****     switch (ledId)
 207              		.loc 1 166 0
 208 0002 0328     		cmp	r0, #3
 209 0004 2CD8     		bhi	.L28
 210 0006 DFE800F0 		tbb	[pc, r0]
 211              	.L24:
 212 000a 02       		.byte	(.L23-.L24)/2
 213 000b 0C       		.byte	(.L25-.L24)/2
 214 000c 16       		.byte	(.L26-.L24)/2
ARM GAS  C:\Users\Reza\AppData\Local\Temp\ccVjQUhp.s 			page 8


 215 000d 21       		.byte	(.L27-.L24)/2
 216              		.p2align 1
 217              	.L23:
 218              	.LVL27:
 167:source\bsw/led.c ****     {
 168:source\bsw/led.c ****         case LED_RED : 
 169:source\bsw/led.c ****             LED__state[ledId] = LED__toggleValue(LED__state[ledId]); 
 219              		.loc 1 169 0
 220 000e 164B     		ldr	r3, .L30
 221              	.LBB18:
 222              	.LBB19:
 170:source\bsw/led.c ****             LED_red_Write(LED__state[ledId]);
 171:source\bsw/led.c ****             break;
 172:source\bsw/led.c ****         
 173:source\bsw/led.c ****         case LED_YELLOW : 
 174:source\bsw/led.c ****             LED__state[ledId] = LED__toggleValue(LED__state[ledId]); 
 175:source\bsw/led.c ****             LED_yellow_Write(LED__state[ledId]);
 176:source\bsw/led.c ****             break;
 177:source\bsw/led.c ****             
 178:source\bsw/led.c ****         case LED_GREEN : 
 179:source\bsw/led.c ****             LED__state[ledId] = LED__toggleValue(LED__state[ledId]); 
 180:source\bsw/led.c ****             LED_green_Write(LED__state[ledId]);
 181:source\bsw/led.c ****             break;
 182:source\bsw/led.c ****            
 183:source\bsw/led.c ****         case LED_ALL : 
 184:source\bsw/led.c ****             for (LED_id_t i = LED_RED; i < LED_ALL; i++)
 185:source\bsw/led.c ****             {
 186:source\bsw/led.c ****                 LED_Toggle(i);
 187:source\bsw/led.c ****             }
 188:source\bsw/led.c ****             break;
 189:source\bsw/led.c ****         default: return RC_ERROR_BAD_PARAM;
 190:source\bsw/led.c ****     }
 191:source\bsw/led.c ****     
 192:source\bsw/led.c ****     return RC_SUCCESS;
 193:source\bsw/led.c **** }
 194:source\bsw/led.c **** 
 195:source\bsw/led.c **** 
 196:source\bsw/led.c **** /**
 197:source\bsw/led.c ****  * Inverts the parameter
 198:source\bsw/led.c ****  * @param LED_ONOFF_t ledOnOff - Value to be inverted
 199:source\bsw/led.c ****  * @return inverted parameter
 200:source\bsw/led.c ****  */
 201:source\bsw/led.c **** static inline LED_ONOFF_t LED__toggleValue(LED_ONOFF_t ledOnOff)
 202:source\bsw/led.c **** {
 203:source\bsw/led.c ****     if (ledOnOff == LED_ON) 
 204:source\bsw/led.c ****     {
 205:source\bsw/led.c ****         return LED_OFF;
 223              		.loc 1 205 0
 224 0010 1878     		ldrb	r0, [r3]	@ zero_extendqisi2
 225              	.LVL28:
 226 0012 10F1FF30 		adds	r0, r0, #-1
 227 0016 18BF     		it	ne
 228 0018 0120     		movne	r0, #1
 229              	.LVL29:
 230              	.LBE19:
 231              	.LBE18:
 169:source\bsw/led.c ****             LED_red_Write(LED__state[ledId]);
ARM GAS  C:\Users\Reza\AppData\Local\Temp\ccVjQUhp.s 			page 9


 232              		.loc 1 169 0
 233 001a 1870     		strb	r0, [r3]
 170:source\bsw/led.c ****             LED_red_Write(LED__state[ledId]);
 234              		.loc 1 170 0
 235 001c FFF7FEFF 		bl	LED_red_Write
 236              	.LVL30:
 237 0020 12E0     		b	.L29
 238              	.LVL31:
 239              	.L25:
 174:source\bsw/led.c ****             LED_yellow_Write(LED__state[ledId]);
 240              		.loc 1 174 0
 241 0022 114B     		ldr	r3, .L30
 242              	.LBB20:
 243              	.LBB21:
 244              		.loc 1 205 0
 245 0024 5878     		ldrb	r0, [r3, #1]	@ zero_extendqisi2
 246              	.LVL32:
 247 0026 10F1FF30 		adds	r0, r0, #-1
 248 002a 18BF     		it	ne
 249 002c 0120     		movne	r0, #1
 250              	.LVL33:
 251              	.LBE21:
 252              	.LBE20:
 174:source\bsw/led.c ****             LED_yellow_Write(LED__state[ledId]);
 253              		.loc 1 174 0
 254 002e 5870     		strb	r0, [r3, #1]
 175:source\bsw/led.c ****             break;
 255              		.loc 1 175 0
 256 0030 FFF7FEFF 		bl	LED_yellow_Write
 257              	.LVL34:
 258 0034 08E0     		b	.L29
 259              	.LVL35:
 260              	.L26:
 179:source\bsw/led.c ****             LED_green_Write(LED__state[ledId]);
 261              		.loc 1 179 0
 262 0036 0C4B     		ldr	r3, .L30
 263              	.LBB22:
 264              	.LBB23:
 265              		.loc 1 205 0
 266 0038 9878     		ldrb	r0, [r3, #2]	@ zero_extendqisi2
 267              	.LVL36:
 268 003a 10F1FF30 		adds	r0, r0, #-1
 269 003e 18BF     		it	ne
 270 0040 0120     		movne	r0, #1
 271              	.LVL37:
 272              	.LBE23:
 273              	.LBE22:
 179:source\bsw/led.c ****             LED_green_Write(LED__state[ledId]);
 274              		.loc 1 179 0
 275 0042 9870     		strb	r0, [r3, #2]
 180:source\bsw/led.c ****             break;
 276              		.loc 1 180 0
 277 0044 FFF7FEFF 		bl	LED_green_Write
 278              	.LVL38:
 279              	.L29:
 192:source\bsw/led.c **** }
 280              		.loc 1 192 0
ARM GAS  C:\Users\Reza\AppData\Local\Temp\ccVjQUhp.s 			page 10


 281 0048 0020     		movs	r0, #0
 181:source\bsw/led.c ****            
 282              		.loc 1 181 0
 283 004a 08BD     		pop	{r3, pc}
 284              	.LVL39:
 285              	.L27:
 286              	.LBB24:
 186:source\bsw/led.c ****             }
 287              		.loc 1 186 0
 288 004c 0020     		movs	r0, #0
 289              	.LVL40:
 290 004e FFF7FEFF 		bl	LED_Toggle
 291              	.LVL41:
 292 0052 0120     		movs	r0, #1
 293 0054 FFF7FEFF 		bl	LED_Toggle
 294              	.LVL42:
 295 0058 0220     		movs	r0, #2
 296 005a FFF7FEFF 		bl	LED_Toggle
 297              	.LVL43:
 298 005e F3E7     		b	.L29
 299              	.LVL44:
 300              	.L28:
 301              	.LBE24:
 189:source\bsw/led.c ****     }
 302              		.loc 1 189 0
 303 0060 6FF01300 		mvn	r0, #19
 304              	.LVL45:
 193:source\bsw/led.c **** 
 305              		.loc 1 193 0
 306 0064 08BD     		pop	{r3, pc}
 307              	.L31:
 308 0066 00BF     		.align	2
 309              	.L30:
 310 0068 00000000 		.word	.LANCHOR0
 311              		.cfi_endproc
 312              	.LFE112:
 313              		.size	LED_Toggle, .-LED_Toggle
 314              		.section	.text.LED_RGB_Set,"ax",%progbits
 315              		.align	1
 316              		.global	LED_RGB_Set
 317              		.thumb
 318              		.thumb_func
 319              		.type	LED_RGB_Set, %function
 320              	LED_RGB_Set:
 321              	.LFB114:
 206:source\bsw/led.c ****     }
 207:source\bsw/led.c ****     else
 208:source\bsw/led.c ****     {
 209:source\bsw/led.c ****         return LED_ON;
 210:source\bsw/led.c ****     }
 211:source\bsw/led.c **** }
 212:source\bsw/led.c **** 
 213:source\bsw/led.c **** /**
 214:source\bsw/led.c ****  * Set the RGB LED
 215:source\bsw/led.c ****  * @param uint16_t red - brightness 
 216:source\bsw/led.c ****  * @param uint16_t green - brightness 
 217:source\bsw/led.c ****  * @param uint16_t blue - brightness 
ARM GAS  C:\Users\Reza\AppData\Local\Temp\ccVjQUhp.s 			page 11


 218:source\bsw/led.c ****  * @return RC_SUCCESS if function was executed as exepected, other error code in case of error
 219:source\bsw/led.c ****  */
 220:source\bsw/led.c **** RC_t LED_RGB_Set(uint8_t red, uint8_t green, uint8_t blue)
 221:source\bsw/led.c **** {
 322              		.loc 1 221 0
 323              		.cfi_startproc
 324              		@ args = 0, pretend = 0, frame = 0
 325              		@ frame_needed = 0, uses_anonymous_args = 0
 326              	.LVL46:
 327 0000 70B5     		push	{r4, r5, r6, lr}
 328              		.cfi_def_cfa_offset 16
 329              		.cfi_offset 4, -16
 330              		.cfi_offset 5, -12
 331              		.cfi_offset 6, -8
 332              		.cfi_offset 14, -4
 333              		.loc 1 221 0
 334 0002 0E46     		mov	r6, r1
 335 0004 1546     		mov	r5, r2
 222:source\bsw/led.c ****     RGB_PWM_red_WriteCompare(LED__Pulse_Width[red]);
 336              		.loc 1 222 0
 337 0006 074C     		ldr	r4, .L33
 338 0008 34F81000 		ldrh	r0, [r4, r0, lsl #1]
 339              	.LVL47:
 340 000c FFF7FEFF 		bl	RGB_PWM_red_WriteCompare
 341              	.LVL48:
 223:source\bsw/led.c ****     RGB_PWM_green_WriteCompare(LED__Pulse_Width[green]);
 342              		.loc 1 223 0
 343 0010 34F81600 		ldrh	r0, [r4, r6, lsl #1]
 344 0014 FFF7FEFF 		bl	RGB_PWM_green_WriteCompare
 345              	.LVL49:
 224:source\bsw/led.c ****     RGB_PWM_blue_WriteCompare(LED__Pulse_Width[blue]);
 346              		.loc 1 224 0
 347 0018 34F81500 		ldrh	r0, [r4, r5, lsl #1]
 348 001c FFF7FEFF 		bl	RGB_PWM_blue_WriteCompare
 349              	.LVL50:
 225:source\bsw/led.c ****  
 226:source\bsw/led.c ****     return RC_SUCCESS;
 227:source\bsw/led.c **** }
 350              		.loc 1 227 0
 351 0020 0020     		movs	r0, #0
 352 0022 70BD     		pop	{r4, r5, r6, pc}
 353              	.L34:
 354              		.align	2
 355              	.L33:
 356 0024 00000000 		.word	.LANCHOR1
 357              		.cfi_endproc
 358              	.LFE114:
 359              		.size	LED_RGB_Set, .-LED_RGB_Set
 360              		.section	.rodata
 361              		.align	1
 362              		.set	.LANCHOR1,. + 0
 363              		.type	LED__Pulse_Width, %object
 364              		.size	LED__Pulse_Width, 512
 365              	LED__Pulse_Width:
 366 0000 0000     		.short	0
 367 0002 0100     		.short	1
 368 0004 0100     		.short	1
ARM GAS  C:\Users\Reza\AppData\Local\Temp\ccVjQUhp.s 			page 12


 369 0006 0100     		.short	1
 370 0008 0100     		.short	1
 371 000a 0100     		.short	1
 372 000c 0100     		.short	1
 373 000e 0100     		.short	1
 374 0010 0100     		.short	1
 375 0012 0200     		.short	2
 376 0014 0200     		.short	2
 377 0016 0200     		.short	2
 378 0018 0200     		.short	2
 379 001a 0200     		.short	2
 380 001c 0200     		.short	2
 381 001e 0200     		.short	2
 382 0020 0200     		.short	2
 383 0022 0200     		.short	2
 384 0024 0200     		.short	2
 385 0026 0200     		.short	2
 386 0028 0200     		.short	2
 387 002a 0300     		.short	3
 388 002c 0300     		.short	3
 389 002e 0300     		.short	3
 390 0030 0300     		.short	3
 391 0032 0300     		.short	3
 392 0034 0300     		.short	3
 393 0036 0300     		.short	3
 394 0038 0400     		.short	4
 395 003a 0400     		.short	4
 396 003c 0400     		.short	4
 397 003e 0400     		.short	4
 398 0040 0400     		.short	4
 399 0042 0400     		.short	4
 400 0044 0500     		.short	5
 401 0046 0500     		.short	5
 402 0048 0500     		.short	5
 403 004a 0500     		.short	5
 404 004c 0500     		.short	5
 405 004e 0600     		.short	6
 406 0050 0600     		.short	6
 407 0052 0600     		.short	6
 408 0054 0600     		.short	6
 409 0056 0700     		.short	7
 410 0058 0700     		.short	7
 411 005a 0700     		.short	7
 412 005c 0800     		.short	8
 413 005e 0800     		.short	8
 414 0060 0800     		.short	8
 415 0062 0900     		.short	9
 416 0064 0900     		.short	9
 417 0066 0A00     		.short	10
 418 0068 0A00     		.short	10
 419 006a 0A00     		.short	10
 420 006c 0B00     		.short	11
 421 006e 0B00     		.short	11
 422 0070 0C00     		.short	12
 423 0072 0C00     		.short	12
 424 0074 0D00     		.short	13
 425 0076 0D00     		.short	13
ARM GAS  C:\Users\Reza\AppData\Local\Temp\ccVjQUhp.s 			page 13


 426 0078 0E00     		.short	14
 427 007a 0F00     		.short	15
 428 007c 0F00     		.short	15
 429 007e 1000     		.short	16
 430 0080 1100     		.short	17
 431 0082 1100     		.short	17
 432 0084 1200     		.short	18
 433 0086 1300     		.short	19
 434 0088 1400     		.short	20
 435 008a 1500     		.short	21
 436 008c 1600     		.short	22
 437 008e 1700     		.short	23
 438 0090 1800     		.short	24
 439 0092 1900     		.short	25
 440 0094 1A00     		.short	26
 441 0096 1B00     		.short	27
 442 0098 1C00     		.short	28
 443 009a 1D00     		.short	29
 444 009c 1F00     		.short	31
 445 009e 2000     		.short	32
 446 00a0 2100     		.short	33
 447 00a2 2300     		.short	35
 448 00a4 2400     		.short	36
 449 00a6 2600     		.short	38
 450 00a8 2800     		.short	40
 451 00aa 2900     		.short	41
 452 00ac 2B00     		.short	43
 453 00ae 2D00     		.short	45
 454 00b0 2F00     		.short	47
 455 00b2 3100     		.short	49
 456 00b4 3400     		.short	52
 457 00b6 3600     		.short	54
 458 00b8 3800     		.short	56
 459 00ba 3B00     		.short	59
 460 00bc 3D00     		.short	61
 461 00be 4000     		.short	64
 462 00c0 4300     		.short	67
 463 00c2 4600     		.short	70
 464 00c4 4900     		.short	73
 465 00c6 4C00     		.short	76
 466 00c8 4F00     		.short	79
 467 00ca 5300     		.short	83
 468 00cc 5700     		.short	87
 469 00ce 5B00     		.short	91
 470 00d0 5F00     		.short	95
 471 00d2 6300     		.short	99
 472 00d4 6700     		.short	103
 473 00d6 6C00     		.short	108
 474 00d8 7000     		.short	112
 475 00da 7500     		.short	117
 476 00dc 7B00     		.short	123
 477 00de 8000     		.short	128
 478 00e0 8600     		.short	134
 479 00e2 8C00     		.short	140
 480 00e4 9200     		.short	146
 481 00e6 9800     		.short	152
 482 00e8 9F00     		.short	159
ARM GAS  C:\Users\Reza\AppData\Local\Temp\ccVjQUhp.s 			page 14


 483 00ea A600     		.short	166
 484 00ec AD00     		.short	173
 485 00ee B500     		.short	181
 486 00f0 BD00     		.short	189
 487 00f2 C500     		.short	197
 488 00f4 CE00     		.short	206
 489 00f6 D700     		.short	215
 490 00f8 E100     		.short	225
 491 00fa EB00     		.short	235
 492 00fc F500     		.short	245
 493 00fe 0001     		.short	256
 494 0100 0B01     		.short	267
 495 0102 1701     		.short	279
 496 0104 2401     		.short	292
 497 0106 3001     		.short	304
 498 0108 3E01     		.short	318
 499 010a 4C01     		.short	332
 500 010c 5B01     		.short	347
 501 010e 6A01     		.short	362
 502 0110 7A01     		.short	378
 503 0112 8B01     		.short	395
 504 0114 9C01     		.short	412
 505 0116 AF01     		.short	431
 506 0118 C201     		.short	450
 507 011a D601     		.short	470
 508 011c EA01     		.short	490
 509 011e 0002     		.short	512
 510 0120 1702     		.short	535
 511 0122 2E02     		.short	558
 512 0124 4702     		.short	583
 513 0126 6102     		.short	609
 514 0128 7C02     		.short	636
 515 012a 9802     		.short	664
 516 012c B502     		.short	693
 517 012e D402     		.short	724
 518 0130 F402     		.short	756
 519 0132 1603     		.short	790
 520 0134 3903     		.short	825
 521 0136 5D03     		.short	861
 522 0138 8303     		.short	899
 523 013a AB03     		.short	939
 524 013c D503     		.short	981
 525 013e 0004     		.short	1024
 526 0140 2D04     		.short	1069
 527 0142 5D04     		.short	1117
 528 0144 8E04     		.short	1166
 529 0146 C204     		.short	1218
 530 0148 F804     		.short	1272
 531 014a 3005     		.short	1328
 532 014c 6B05     		.short	1387
 533 014e A805     		.short	1448
 534 0150 E805     		.short	1512
 535 0152 2B06     		.short	1579
 536 0154 7106     		.short	1649
 537 0156 BA06     		.short	1722
 538 0158 0607     		.short	1798
 539 015a 5607     		.short	1878
ARM GAS  C:\Users\Reza\AppData\Local\Temp\ccVjQUhp.s 			page 15


 540 015c A907     		.short	1961
 541 015e 0008     		.short	2048
 542 0160 5B08     		.short	2139
 543 0162 B908     		.short	2233
 544 0164 1C09     		.short	2332
 545 0166 8309     		.short	2435
 546 0168 EF09     		.short	2543
 547 016a 600A     		.short	2656
 548 016c D50A     		.short	2773
 549 016e 500B     		.short	2896
 550 0170 D10B     		.short	3025
 551 0172 560C     		.short	3158
 552 0174 E20C     		.short	3298
 553 0176 740D     		.short	3444
 554 0178 0D0E     		.short	3597
 555 017a AC0E     		.short	3756
 556 017c 520F     		.short	3922
 557 017e 0010     		.short	4096
 558 0180 B510     		.short	4277
 559 0182 7311     		.short	4467
 560 0184 3812     		.short	4664
 561 0186 0713     		.short	4871
 562 0188 DF13     		.short	5087
 563 018a C014     		.short	5312
 564 018c AB15     		.short	5547
 565 018e A116     		.short	5793
 566 0190 A117     		.short	6049
 567 0192 AD18     		.short	6317
 568 0194 C419     		.short	6596
 569 0196 E91A     		.short	6889
 570 0198 1A1C     		.short	7194
 571 019a 581D     		.short	7512
 572 019c A51E     		.short	7845
 573 019e 0020     		.short	8192
 574 01a0 6B21     		.short	8555
 575 01a2 E522     		.short	8933
 576 01a4 7124     		.short	9329
 577 01a6 0E26     		.short	9742
 578 01a8 BD27     		.short	10173
 579 01aa 8029     		.short	10624
 580 01ac 562B     		.short	11094
 581 01ae 412D     		.short	11585
 582 01b0 422F     		.short	12098
 583 01b2 5A31     		.short	12634
 584 01b4 8933     		.short	13193
 585 01b6 D135     		.short	13777
 586 01b8 3338     		.short	14387
 587 01ba B03A     		.short	15024
 588 01bc 493D     		.short	15689
 589 01be 0040     		.short	16384
 590 01c0 D542     		.short	17109
 591 01c2 CB45     		.short	17867
 592 01c4 E248     		.short	18658
 593 01c6 1C4C     		.short	19484
 594 01c8 7A4F     		.short	20346
 595 01ca FF52     		.short	21247
 596 01cc AC56     		.short	22188
ARM GAS  C:\Users\Reza\AppData\Local\Temp\ccVjQUhp.s 			page 16


 597 01ce 825A     		.short	23170
 598 01d0 845E     		.short	24196
 599 01d2 B362     		.short	25267
 600 01d4 1267     		.short	26386
 601 01d6 A26B     		.short	27554
 602 01d8 6670     		.short	28774
 603 01da 6075     		.short	30048
 604 01dc 927A     		.short	31378
 605 01de 0080     		.short	-32768
 606 01e0 AA85     		.short	-31318
 607 01e2 958B     		.short	-29803
 608 01e4 C391     		.short	-28221
 609 01e6 3798     		.short	-26569
 610 01e8 F59E     		.short	-24843
 611 01ea FEA5     		.short	-23042
 612 01ec 58AD     		.short	-21160
 613 01ee 04B5     		.short	-19196
 614 01f0 08BD     		.short	-17144
 615 01f2 66C5     		.short	-15002
 616 01f4 24CE     		.short	-12764
 617 01f6 44D7     		.short	-10428
 618 01f8 CCE0     		.short	-7988
 619 01fa C0EA     		.short	-5440
 620 01fc 25F5     		.short	-2779
 621 01fe FFFF     		.short	-1
 622              		.bss
 623              		.set	.LANCHOR0,. + 0
 624              		.type	LED__state, %object
 625              		.size	LED__state, 3
 626              	LED__state:
 627 0000 000000   		.space	3
 628              		.text
 629              	.Letext0:
 630              		.file 2 "c:\\program files (x86)\\cypress\\psoc creator\\4.2\\psoc creator\\import\\gnu\\arm\\5.4.
 631              		.file 3 "c:\\program files (x86)\\cypress\\psoc creator\\4.2\\psoc creator\\import\\gnu\\arm\\5.4.
 632              		.file 4 "Generated_Source\\PSoC5/cytypes.h"
 633              		.file 5 "Generated_Source\\PSoC5/ErikaOS_1_common_ee_types.inc"
 634              		.file 6 "Generated_Source\\PSoC5/ErikaOS_1_cortex_mx_ee_cpu.inc"
 635              		.file 7 "source\\bsw\\global.h"
 636              		.file 8 "source\\bsw\\led.h"
 637              		.file 9 "Generated_Source\\PSoC5/ErikaOS_1_ee_oo_intfunc.inc"
 638              		.file 10 "Generated_Source\\PSoC5/ErikaOS_1_cortex_mx_ee_context.inc"
 639              		.file 11 "Generated_Source\\PSoC5/ErikaOS_1_common_ee_primitives.inc"
 640              		.file 12 "Generated_Source\\PSoC5/core_cm3.h"
 641              		.file 13 "Generated_Source\\PSoC5/LED_red.h"
 642              		.file 14 "Generated_Source\\PSoC5/LED_yellow.h"
 643              		.file 15 "Generated_Source\\PSoC5/LED_green.h"
 644              		.file 16 "Generated_Source\\PSoC5/RGB_PWM_blue.h"
 645              		.file 17 "Generated_Source\\PSoC5/RGB_PWM_green.h"
 646              		.file 18 "Generated_Source\\PSoC5/RGB_PWM_red.h"