ARM GAS  C:\Users\Reza\AppData\Local\Temp\ccJx7wfd.s 			page 1


   1              		.syntax unified
   2              		.cpu cortex-m3
   3              		.fpu softvfp
   4              		.eabi_attribute 20, 1
   5              		.eabi_attribute 21, 1
   6              		.eabi_attribute 23, 3
   7              		.eabi_attribute 24, 1
   8              		.eabi_attribute 25, 1
   9              		.eabi_attribute 26, 1
  10              		.eabi_attribute 30, 4
  11              		.eabi_attribute 34, 1
  12              		.eabi_attribute 18, 4
  13              		.thumb
  14              		.syntax unified
  15              		.file	"main.c"
  16              		.text
  17              	.Ltext0:
  18              		.cfi_sections	.debug_frame
  19              		.section	.text.EE_cortex_mx_get_isr_prio,"ax",%progbits
  20              		.align	1
  21              		.thumb
  22              		.thumb_func
  23              		.type	EE_cortex_mx_get_isr_prio, %function
  24              	EE_cortex_mx_get_isr_prio:
  25              	.LFB16:
  26              		.file 1 "Generated_Source\\PSoC5/ErikaOS_1_cortex_mx_ee_cpu.inc"
   1:Generated_Source\PSoC5/ErikaOS_1_cortex_mx_ee_cpu.inc **** /* ###*B*###
   2:Generated_Source\PSoC5/ErikaOS_1_cortex_mx_ee_cpu.inc ****  * ERIKA Enterprise - a tiny RTOS for small microcontrollers
   3:Generated_Source\PSoC5/ErikaOS_1_cortex_mx_ee_cpu.inc ****  *
   4:Generated_Source\PSoC5/ErikaOS_1_cortex_mx_ee_cpu.inc ****  * Copyright (C) 2002-2011  Evidence Srl
   5:Generated_Source\PSoC5/ErikaOS_1_cortex_mx_ee_cpu.inc ****  *
   6:Generated_Source\PSoC5/ErikaOS_1_cortex_mx_ee_cpu.inc ****  * This file is part of ERIKA Enterprise.
   7:Generated_Source\PSoC5/ErikaOS_1_cortex_mx_ee_cpu.inc ****  *
   8:Generated_Source\PSoC5/ErikaOS_1_cortex_mx_ee_cpu.inc ****  * ERIKA Enterprise is free software; you can redistribute it
   9:Generated_Source\PSoC5/ErikaOS_1_cortex_mx_ee_cpu.inc ****  * and/or modify it under the terms of the GNU General Public License
  10:Generated_Source\PSoC5/ErikaOS_1_cortex_mx_ee_cpu.inc ****  * version 2 as published by the Free Software Foundation, 
  11:Generated_Source\PSoC5/ErikaOS_1_cortex_mx_ee_cpu.inc ****  * (with a special exception described below).
  12:Generated_Source\PSoC5/ErikaOS_1_cortex_mx_ee_cpu.inc ****  *
  13:Generated_Source\PSoC5/ErikaOS_1_cortex_mx_ee_cpu.inc ****  * Linking this code statically or dynamically with other modules is
  14:Generated_Source\PSoC5/ErikaOS_1_cortex_mx_ee_cpu.inc ****  * making a combined work based on this code.  Thus, the terms and
  15:Generated_Source\PSoC5/ErikaOS_1_cortex_mx_ee_cpu.inc ****  * conditions of the GNU General Public License cover the whole
  16:Generated_Source\PSoC5/ErikaOS_1_cortex_mx_ee_cpu.inc ****  * combination.
  17:Generated_Source\PSoC5/ErikaOS_1_cortex_mx_ee_cpu.inc ****  *
  18:Generated_Source\PSoC5/ErikaOS_1_cortex_mx_ee_cpu.inc ****  * As a special exception, the copyright holders of this library give you
  19:Generated_Source\PSoC5/ErikaOS_1_cortex_mx_ee_cpu.inc ****  * permission to link this code with independent modules to produce an
  20:Generated_Source\PSoC5/ErikaOS_1_cortex_mx_ee_cpu.inc ****  * executable, regardless of the license terms of these independent
  21:Generated_Source\PSoC5/ErikaOS_1_cortex_mx_ee_cpu.inc ****  * modules, and to copy and distribute the resulting executable under
  22:Generated_Source\PSoC5/ErikaOS_1_cortex_mx_ee_cpu.inc ****  * terms of your choice, provided that you also meet, for each linked
  23:Generated_Source\PSoC5/ErikaOS_1_cortex_mx_ee_cpu.inc ****  * independent module, the terms and conditions of the license of that
  24:Generated_Source\PSoC5/ErikaOS_1_cortex_mx_ee_cpu.inc ****  * module.  An independent module is a module which is not derived from
  25:Generated_Source\PSoC5/ErikaOS_1_cortex_mx_ee_cpu.inc ****  * or based on this library.  If you modify this code, you may extend
  26:Generated_Source\PSoC5/ErikaOS_1_cortex_mx_ee_cpu.inc ****  * this exception to your version of the code, but you are not
  27:Generated_Source\PSoC5/ErikaOS_1_cortex_mx_ee_cpu.inc ****  * obligated to do so.  If you do not wish to do so, delete this
  28:Generated_Source\PSoC5/ErikaOS_1_cortex_mx_ee_cpu.inc ****  * exception statement from your version.
  29:Generated_Source\PSoC5/ErikaOS_1_cortex_mx_ee_cpu.inc ****  *
  30:Generated_Source\PSoC5/ErikaOS_1_cortex_mx_ee_cpu.inc ****  * ERIKA Enterprise is distributed in the hope that it will be
  31:Generated_Source\PSoC5/ErikaOS_1_cortex_mx_ee_cpu.inc ****  * useful, but WITHOUT ANY WARRANTY; without even the implied warranty
ARM GAS  C:\Users\Reza\AppData\Local\Temp\ccJx7wfd.s 			page 2


  32:Generated_Source\PSoC5/ErikaOS_1_cortex_mx_ee_cpu.inc ****  * of MERCHANTABILITY or FITNESS FOR A PARTICULAR PURPOSE.  See the
  33:Generated_Source\PSoC5/ErikaOS_1_cortex_mx_ee_cpu.inc ****  * GNU General Public License version 2 for more details.
  34:Generated_Source\PSoC5/ErikaOS_1_cortex_mx_ee_cpu.inc ****  *
  35:Generated_Source\PSoC5/ErikaOS_1_cortex_mx_ee_cpu.inc ****  * You should have received a copy of the GNU General Public License
  36:Generated_Source\PSoC5/ErikaOS_1_cortex_mx_ee_cpu.inc ****  * version 2 along with ERIKA Enterprise; if not, write to the
  37:Generated_Source\PSoC5/ErikaOS_1_cortex_mx_ee_cpu.inc ****  * Free Software Foundation, Inc., 51 Franklin Street, Fifth Floor,
  38:Generated_Source\PSoC5/ErikaOS_1_cortex_mx_ee_cpu.inc ****  * Boston, MA 02110-1301 USA.
  39:Generated_Source\PSoC5/ErikaOS_1_cortex_mx_ee_cpu.inc ****  * ###*E*### */
  40:Generated_Source\PSoC5/ErikaOS_1_cortex_mx_ee_cpu.inc **** 
  41:Generated_Source\PSoC5/ErikaOS_1_cortex_mx_ee_cpu.inc **** /** 
  42:Generated_Source\PSoC5/ErikaOS_1_cortex_mx_ee_cpu.inc **** 	@file ee_cpu.h
  43:Generated_Source\PSoC5/ErikaOS_1_cortex_mx_ee_cpu.inc **** 	@brief CPU-dependent part of HAL. Derived from pkg/cpu/pic30/inc/ee_cpu.h
  44:Generated_Source\PSoC5/ErikaOS_1_cortex_mx_ee_cpu.inc **** 	@author Gianluca Franchino
  45:Generated_Source\PSoC5/ErikaOS_1_cortex_mx_ee_cpu.inc **** 	@author Giuseppe Serano
  46:Generated_Source\PSoC5/ErikaOS_1_cortex_mx_ee_cpu.inc **** 	@date 2011
  47:Generated_Source\PSoC5/ErikaOS_1_cortex_mx_ee_cpu.inc **** */ 
  48:Generated_Source\PSoC5/ErikaOS_1_cortex_mx_ee_cpu.inc ****     
  49:Generated_Source\PSoC5/ErikaOS_1_cortex_mx_ee_cpu.inc **** /*
  50:Generated_Source\PSoC5/ErikaOS_1_cortex_mx_ee_cpu.inc ****  * PSoC Port and API Generation
  51:Generated_Source\PSoC5/ErikaOS_1_cortex_mx_ee_cpu.inc ****  * Carlos Fernando Meier Martinez
  52:Generated_Source\PSoC5/ErikaOS_1_cortex_mx_ee_cpu.inc ****  * Hochschule Darmstadt, Germany. 2017.
  53:Generated_Source\PSoC5/ErikaOS_1_cortex_mx_ee_cpu.inc ****  */
  54:Generated_Source\PSoC5/ErikaOS_1_cortex_mx_ee_cpu.inc **** 
  55:Generated_Source\PSoC5/ErikaOS_1_cortex_mx_ee_cpu.inc **** #ifndef __INCLUDE_CORTEX_MX_EE_CPU_H__
  56:Generated_Source\PSoC5/ErikaOS_1_cortex_mx_ee_cpu.inc **** #define __INCLUDE_CORTEX_MX_EE_CPU_H__
  57:Generated_Source\PSoC5/ErikaOS_1_cortex_mx_ee_cpu.inc **** 
  58:Generated_Source\PSoC5/ErikaOS_1_cortex_mx_ee_cpu.inc **** #include "ErikaOS_1_eecfg.inc"
  59:Generated_Source\PSoC5/ErikaOS_1_cortex_mx_ee_cpu.inc **** 
  60:Generated_Source\PSoC5/ErikaOS_1_cortex_mx_ee_cpu.inc **** 
  61:Generated_Source\PSoC5/ErikaOS_1_cortex_mx_ee_cpu.inc **** #ifdef __GNU__
  62:Generated_Source\PSoC5/ErikaOS_1_cortex_mx_ee_cpu.inc **** #include "ErikaOS_1_common_ee_compiler_gcc.inc"
  63:Generated_Source\PSoC5/ErikaOS_1_cortex_mx_ee_cpu.inc **** #endif
  64:Generated_Source\PSoC5/ErikaOS_1_cortex_mx_ee_cpu.inc **** 
  65:Generated_Source\PSoC5/ErikaOS_1_cortex_mx_ee_cpu.inc **** /* Initial stack offset (in words): Used in multistack. */
  66:Generated_Source\PSoC5/ErikaOS_1_cortex_mx_ee_cpu.inc **** #ifndef CORTEX_MX_INIT_TOS_OFFSET
  67:Generated_Source\PSoC5/ErikaOS_1_cortex_mx_ee_cpu.inc **** #define CORTEX_MX_INIT_TOS_OFFSET 10
  68:Generated_Source\PSoC5/ErikaOS_1_cortex_mx_ee_cpu.inc **** #endif
  69:Generated_Source\PSoC5/ErikaOS_1_cortex_mx_ee_cpu.inc **** 
  70:Generated_Source\PSoC5/ErikaOS_1_cortex_mx_ee_cpu.inc **** /*************************************************************************
  71:Generated_Source\PSoC5/ErikaOS_1_cortex_mx_ee_cpu.inc ****  HAL Types and structures
  72:Generated_Source\PSoC5/ErikaOS_1_cortex_mx_ee_cpu.inc ****  *************************************************************************/
  73:Generated_Source\PSoC5/ErikaOS_1_cortex_mx_ee_cpu.inc **** 
  74:Generated_Source\PSoC5/ErikaOS_1_cortex_mx_ee_cpu.inc **** /* Primitive data types */
  75:Generated_Source\PSoC5/ErikaOS_1_cortex_mx_ee_cpu.inc **** #include "ErikaOS_1_common_ee_types.inc"
  76:Generated_Source\PSoC5/ErikaOS_1_cortex_mx_ee_cpu.inc **** 
  77:Generated_Source\PSoC5/ErikaOS_1_cortex_mx_ee_cpu.inc **** typedef EE_UINT32 EE_UREG;
  78:Generated_Source\PSoC5/ErikaOS_1_cortex_mx_ee_cpu.inc **** typedef EE_INT32  EE_SREG;
  79:Generated_Source\PSoC5/ErikaOS_1_cortex_mx_ee_cpu.inc **** typedef EE_UINT32 EE_FREG;
  80:Generated_Source\PSoC5/ErikaOS_1_cortex_mx_ee_cpu.inc **** #define EE_UREG_SIZE 4
  81:Generated_Source\PSoC5/ErikaOS_1_cortex_mx_ee_cpu.inc **** 
  82:Generated_Source\PSoC5/ErikaOS_1_cortex_mx_ee_cpu.inc **** /* boolean type */
  83:Generated_Source\PSoC5/ErikaOS_1_cortex_mx_ee_cpu.inc **** #ifndef EE_TYPEBOOL
  84:Generated_Source\PSoC5/ErikaOS_1_cortex_mx_ee_cpu.inc **** typedef EE_UREG EE_TYPEBOOL;
  85:Generated_Source\PSoC5/ErikaOS_1_cortex_mx_ee_cpu.inc **** #endif
  86:Generated_Source\PSoC5/ErikaOS_1_cortex_mx_ee_cpu.inc **** 
  87:Generated_Source\PSoC5/ErikaOS_1_cortex_mx_ee_cpu.inc **** /* boolean true define */
  88:Generated_Source\PSoC5/ErikaOS_1_cortex_mx_ee_cpu.inc **** #ifndef EE_TRUE
ARM GAS  C:\Users\Reza\AppData\Local\Temp\ccJx7wfd.s 			page 3


  89:Generated_Source\PSoC5/ErikaOS_1_cortex_mx_ee_cpu.inc **** #define EE_TRUE ((EE_TYPEBOOL)1U)
  90:Generated_Source\PSoC5/ErikaOS_1_cortex_mx_ee_cpu.inc **** #endif
  91:Generated_Source\PSoC5/ErikaOS_1_cortex_mx_ee_cpu.inc **** 
  92:Generated_Source\PSoC5/ErikaOS_1_cortex_mx_ee_cpu.inc **** /* boolean false define */
  93:Generated_Source\PSoC5/ErikaOS_1_cortex_mx_ee_cpu.inc **** #ifndef EE_FALSE
  94:Generated_Source\PSoC5/ErikaOS_1_cortex_mx_ee_cpu.inc **** #define EE_FALSE ((EE_TYPEBOOL)0U)
  95:Generated_Source\PSoC5/ErikaOS_1_cortex_mx_ee_cpu.inc **** #endif
  96:Generated_Source\PSoC5/ErikaOS_1_cortex_mx_ee_cpu.inc **** 
  97:Generated_Source\PSoC5/ErikaOS_1_cortex_mx_ee_cpu.inc **** #define	EE_HWREG_PTR		volatile EE_UREG *
  98:Generated_Source\PSoC5/ErikaOS_1_cortex_mx_ee_cpu.inc **** #define	EE_HWREG_ADDR(x)	((EE_HWREG_PTR)(x))
  99:Generated_Source\PSoC5/ErikaOS_1_cortex_mx_ee_cpu.inc **** #define	EE_HWREG(x)		(*EE_HWREG_ADDR(x))
 100:Generated_Source\PSoC5/ErikaOS_1_cortex_mx_ee_cpu.inc **** 
 101:Generated_Source\PSoC5/ErikaOS_1_cortex_mx_ee_cpu.inc **** #ifdef __GNU__
 102:Generated_Source\PSoC5/ErikaOS_1_cortex_mx_ee_cpu.inc **** 
 103:Generated_Source\PSoC5/ErikaOS_1_cortex_mx_ee_cpu.inc **** /* Get current SP */
 104:Generated_Source\PSoC5/ErikaOS_1_cortex_mx_ee_cpu.inc **** __INLINE__ EE_UINT32  __current_sp(void)
 105:Generated_Source\PSoC5/ErikaOS_1_cortex_mx_ee_cpu.inc **** {
 106:Generated_Source\PSoC5/ErikaOS_1_cortex_mx_ee_cpu.inc **** EE_UINT32 temp;
 107:Generated_Source\PSoC5/ErikaOS_1_cortex_mx_ee_cpu.inc **** __ASM ("mov %0, sp" : "=r" (temp) : );
 108:Generated_Source\PSoC5/ErikaOS_1_cortex_mx_ee_cpu.inc **** return temp;
 109:Generated_Source\PSoC5/ErikaOS_1_cortex_mx_ee_cpu.inc **** }
 110:Generated_Source\PSoC5/ErikaOS_1_cortex_mx_ee_cpu.inc **** 
 111:Generated_Source\PSoC5/ErikaOS_1_cortex_mx_ee_cpu.inc **** /* Set a breakpoint */
 112:Generated_Source\PSoC5/ErikaOS_1_cortex_mx_ee_cpu.inc **** #define __breakpoint(value)	__ASM ("bkpt "#value)
 113:Generated_Source\PSoC5/ErikaOS_1_cortex_mx_ee_cpu.inc **** 
 114:Generated_Source\PSoC5/ErikaOS_1_cortex_mx_ee_cpu.inc **** #endif
 115:Generated_Source\PSoC5/ErikaOS_1_cortex_mx_ee_cpu.inc **** 
 116:Generated_Source\PSoC5/ErikaOS_1_cortex_mx_ee_cpu.inc **** /* ISR Priority representation type */
 117:Generated_Source\PSoC5/ErikaOS_1_cortex_mx_ee_cpu.inc **** typedef EE_UREG EE_TYPEISR2PRIO;
 118:Generated_Source\PSoC5/ErikaOS_1_cortex_mx_ee_cpu.inc **** 
 119:Generated_Source\PSoC5/ErikaOS_1_cortex_mx_ee_cpu.inc **** /* Thread IDs */
 120:Generated_Source\PSoC5/ErikaOS_1_cortex_mx_ee_cpu.inc **** typedef EE_INT32 EE_TID;
 121:Generated_Source\PSoC5/ErikaOS_1_cortex_mx_ee_cpu.inc **** 
 122:Generated_Source\PSoC5/ErikaOS_1_cortex_mx_ee_cpu.inc **** /* Thread IDs - unsigned version*/
 123:Generated_Source\PSoC5/ErikaOS_1_cortex_mx_ee_cpu.inc **** typedef EE_UINT32 EE_UTID;
 124:Generated_Source\PSoC5/ErikaOS_1_cortex_mx_ee_cpu.inc **** 
 125:Generated_Source\PSoC5/ErikaOS_1_cortex_mx_ee_cpu.inc **** /* Used by the common layer to decide whether to start a new thread */
 126:Generated_Source\PSoC5/ErikaOS_1_cortex_mx_ee_cpu.inc **** #define TID_IS_STACKED_MARK 0x80000000
 127:Generated_Source\PSoC5/ErikaOS_1_cortex_mx_ee_cpu.inc **** 
 128:Generated_Source\PSoC5/ErikaOS_1_cortex_mx_ee_cpu.inc **** /* EE_TYPEIRQ is currently unused */
 129:Generated_Source\PSoC5/ErikaOS_1_cortex_mx_ee_cpu.inc **** 
 130:Generated_Source\PSoC5/ErikaOS_1_cortex_mx_ee_cpu.inc **** /* XXX: define EE_TIME? */
 131:Generated_Source\PSoC5/ErikaOS_1_cortex_mx_ee_cpu.inc **** 
 132:Generated_Source\PSoC5/ErikaOS_1_cortex_mx_ee_cpu.inc **** /* Use the "standard" implementation */
 133:Generated_Source\PSoC5/ErikaOS_1_cortex_mx_ee_cpu.inc **** #include "ErikaOS_1_common_ee_hal_structs.inc"
 134:Generated_Source\PSoC5/ErikaOS_1_cortex_mx_ee_cpu.inc **** 
 135:Generated_Source\PSoC5/ErikaOS_1_cortex_mx_ee_cpu.inc **** /******************************************************************************
 136:Generated_Source\PSoC5/ErikaOS_1_cortex_mx_ee_cpu.inc ****  Application dependent data types
 137:Generated_Source\PSoC5/ErikaOS_1_cortex_mx_ee_cpu.inc ****  ******************************************************************************/
 138:Generated_Source\PSoC5/ErikaOS_1_cortex_mx_ee_cpu.inc **** 
 139:Generated_Source\PSoC5/ErikaOS_1_cortex_mx_ee_cpu.inc **** #ifdef	__HAS_TYPES_H__
 140:Generated_Source\PSoC5/ErikaOS_1_cortex_mx_ee_cpu.inc **** #include	"types.h"
 141:Generated_Source\PSoC5/ErikaOS_1_cortex_mx_ee_cpu.inc **** #endif
 142:Generated_Source\PSoC5/ErikaOS_1_cortex_mx_ee_cpu.inc **** 
 143:Generated_Source\PSoC5/ErikaOS_1_cortex_mx_ee_cpu.inc **** /******************************************************************************
 144:Generated_Source\PSoC5/ErikaOS_1_cortex_mx_ee_cpu.inc ****  CPU Peripherals
 145:Generated_Source\PSoC5/ErikaOS_1_cortex_mx_ee_cpu.inc ****  ******************************************************************************/
ARM GAS  C:\Users\Reza\AppData\Local\Temp\ccJx7wfd.s 			page 4


 146:Generated_Source\PSoC5/ErikaOS_1_cortex_mx_ee_cpu.inc **** 
 147:Generated_Source\PSoC5/ErikaOS_1_cortex_mx_ee_cpu.inc **** #ifdef __CORTEX_MX__
 148:Generated_Source\PSoC5/ErikaOS_1_cortex_mx_ee_cpu.inc **** #include "ErikaOS_1_cortex_mx_ee_nvic.inc"
 149:Generated_Source\PSoC5/ErikaOS_1_cortex_mx_ee_cpu.inc **** #include "ErikaOS_1_cortex_mx_ee_systick.inc"
 150:Generated_Source\PSoC5/ErikaOS_1_cortex_mx_ee_cpu.inc **** #endif
 151:Generated_Source\PSoC5/ErikaOS_1_cortex_mx_ee_cpu.inc **** 
 152:Generated_Source\PSoC5/ErikaOS_1_cortex_mx_ee_cpu.inc **** /******************************************************************************
 153:Generated_Source\PSoC5/ErikaOS_1_cortex_mx_ee_cpu.inc ****  HAL Variables
 154:Generated_Source\PSoC5/ErikaOS_1_cortex_mx_ee_cpu.inc ****  ******************************************************************************/
 155:Generated_Source\PSoC5/ErikaOS_1_cortex_mx_ee_cpu.inc **** 
 156:Generated_Source\PSoC5/ErikaOS_1_cortex_mx_ee_cpu.inc **** #ifdef __MULTI__
 157:Generated_Source\PSoC5/ErikaOS_1_cortex_mx_ee_cpu.inc **** 
 158:Generated_Source\PSoC5/ErikaOS_1_cortex_mx_ee_cpu.inc **** /* Top-of-stack of each private stack */
 159:Generated_Source\PSoC5/ErikaOS_1_cortex_mx_ee_cpu.inc **** extern struct EE_TOS EE_cortex_mx_system_tos[];
 160:Generated_Source\PSoC5/ErikaOS_1_cortex_mx_ee_cpu.inc **** //#define	EE_std_system_tos EE_cortex_mx_system_tos
 161:Generated_Source\PSoC5/ErikaOS_1_cortex_mx_ee_cpu.inc **** 
 162:Generated_Source\PSoC5/ErikaOS_1_cortex_mx_ee_cpu.inc **** /* Index of the current stack */
 163:Generated_Source\PSoC5/ErikaOS_1_cortex_mx_ee_cpu.inc **** extern EE_UREG EE_cortex_mx_active_tos;
 164:Generated_Source\PSoC5/ErikaOS_1_cortex_mx_ee_cpu.inc **** #define	EE_hal_active_tos EE_cortex_mx_active_tos
 165:Generated_Source\PSoC5/ErikaOS_1_cortex_mx_ee_cpu.inc **** 
 166:Generated_Source\PSoC5/ErikaOS_1_cortex_mx_ee_cpu.inc **** /*extern	EE_UREG EE_pic30_thread_tos[];
 167:Generated_Source\PSoC5/ErikaOS_1_cortex_mx_ee_cpu.inc **** #define	EE_std_thread_tos EE_pic30_thread_tos */
 168:Generated_Source\PSoC5/ErikaOS_1_cortex_mx_ee_cpu.inc **** #endif /* __MULTI__ */
 169:Generated_Source\PSoC5/ErikaOS_1_cortex_mx_ee_cpu.inc **** 
 170:Generated_Source\PSoC5/ErikaOS_1_cortex_mx_ee_cpu.inc **** /*********************************************************************
 171:Generated_Source\PSoC5/ErikaOS_1_cortex_mx_ee_cpu.inc ****  Cortex M0 interrupt disabling/enabling
 172:Generated_Source\PSoC5/ErikaOS_1_cortex_mx_ee_cpu.inc ****  *********************************************************************/
 173:Generated_Source\PSoC5/ErikaOS_1_cortex_mx_ee_cpu.inc **** 
 174:Generated_Source\PSoC5/ErikaOS_1_cortex_mx_ee_cpu.inc **** /* Used to check the value returned by EE_cortex_mx_disableIRQ */
 175:Generated_Source\PSoC5/ErikaOS_1_cortex_mx_ee_cpu.inc **** #define EE_cortex_mx_are_IRQs_enabled(ie) ((ie) ^ 1)
 176:Generated_Source\PSoC5/ErikaOS_1_cortex_mx_ee_cpu.inc **** 
 177:Generated_Source\PSoC5/ErikaOS_1_cortex_mx_ee_cpu.inc **** /**
 178:Generated_Source\PSoC5/ErikaOS_1_cortex_mx_ee_cpu.inc ****  * Enable interrupts
 179:Generated_Source\PSoC5/ErikaOS_1_cortex_mx_ee_cpu.inc ****  */
 180:Generated_Source\PSoC5/ErikaOS_1_cortex_mx_ee_cpu.inc **** __INLINE__ void  EE_cortex_mx_enableIRQ(void)
 181:Generated_Source\PSoC5/ErikaOS_1_cortex_mx_ee_cpu.inc **** {
 182:Generated_Source\PSoC5/ErikaOS_1_cortex_mx_ee_cpu.inc **** #ifdef __IAR__
 183:Generated_Source\PSoC5/ErikaOS_1_cortex_mx_ee_cpu.inc **** 	__ASM ("cpsie i");
 184:Generated_Source\PSoC5/ErikaOS_1_cortex_mx_ee_cpu.inc **** #else	/* __IAR__ */
 185:Generated_Source\PSoC5/ErikaOS_1_cortex_mx_ee_cpu.inc **** #ifdef __CCS__
 186:Generated_Source\PSoC5/ErikaOS_1_cortex_mx_ee_cpu.inc **** 	__ASM ("    cpsie    i\n");
 187:Generated_Source\PSoC5/ErikaOS_1_cortex_mx_ee_cpu.inc **** #else	/* __CCS__ */
 188:Generated_Source\PSoC5/ErikaOS_1_cortex_mx_ee_cpu.inc **** #ifdef __KEIL__
 189:Generated_Source\PSoC5/ErikaOS_1_cortex_mx_ee_cpu.inc **** 	__enable_irq();
 190:Generated_Source\PSoC5/ErikaOS_1_cortex_mx_ee_cpu.inc **** #else	/* __KEIL__ */
 191:Generated_Source\PSoC5/ErikaOS_1_cortex_mx_ee_cpu.inc **** 	__ASM volatile("cpsie i");
 192:Generated_Source\PSoC5/ErikaOS_1_cortex_mx_ee_cpu.inc **** #endif	/* !__KEIL__ */
 193:Generated_Source\PSoC5/ErikaOS_1_cortex_mx_ee_cpu.inc **** #endif	/* !__CCS__ */
 194:Generated_Source\PSoC5/ErikaOS_1_cortex_mx_ee_cpu.inc **** #endif	/* !__IAR__ */
 195:Generated_Source\PSoC5/ErikaOS_1_cortex_mx_ee_cpu.inc **** }
 196:Generated_Source\PSoC5/ErikaOS_1_cortex_mx_ee_cpu.inc **** 
 197:Generated_Source\PSoC5/ErikaOS_1_cortex_mx_ee_cpu.inc **** /**
 198:Generated_Source\PSoC5/ErikaOS_1_cortex_mx_ee_cpu.inc ****  * Disable interrupts
 199:Generated_Source\PSoC5/ErikaOS_1_cortex_mx_ee_cpu.inc ****  */
 200:Generated_Source\PSoC5/ErikaOS_1_cortex_mx_ee_cpu.inc **** __INLINE__ void  EE_cortex_mx_disableIRQ(void)
 201:Generated_Source\PSoC5/ErikaOS_1_cortex_mx_ee_cpu.inc **** {
 202:Generated_Source\PSoC5/ErikaOS_1_cortex_mx_ee_cpu.inc **** #ifdef __IAR__
ARM GAS  C:\Users\Reza\AppData\Local\Temp\ccJx7wfd.s 			page 5


 203:Generated_Source\PSoC5/ErikaOS_1_cortex_mx_ee_cpu.inc **** 	__ASM ("cpsid i");
 204:Generated_Source\PSoC5/ErikaOS_1_cortex_mx_ee_cpu.inc **** #else	/* __IAR__ */
 205:Generated_Source\PSoC5/ErikaOS_1_cortex_mx_ee_cpu.inc **** #ifdef __CCS__
 206:Generated_Source\PSoC5/ErikaOS_1_cortex_mx_ee_cpu.inc **** 	__ASM ("    cpsid    i\n");
 207:Generated_Source\PSoC5/ErikaOS_1_cortex_mx_ee_cpu.inc **** #else	/* __CCS__ */
 208:Generated_Source\PSoC5/ErikaOS_1_cortex_mx_ee_cpu.inc **** #ifdef __KEIL__
 209:Generated_Source\PSoC5/ErikaOS_1_cortex_mx_ee_cpu.inc **** 	__disable_irq();
 210:Generated_Source\PSoC5/ErikaOS_1_cortex_mx_ee_cpu.inc **** #else	/* __KEIL__ */
 211:Generated_Source\PSoC5/ErikaOS_1_cortex_mx_ee_cpu.inc **** 	__ASM volatile("cpsid i");
 212:Generated_Source\PSoC5/ErikaOS_1_cortex_mx_ee_cpu.inc **** #endif	/* !__KEIL__ */
 213:Generated_Source\PSoC5/ErikaOS_1_cortex_mx_ee_cpu.inc **** #endif	/* !__CCS__ */
 214:Generated_Source\PSoC5/ErikaOS_1_cortex_mx_ee_cpu.inc **** #endif	/* !__IAR__ */
 215:Generated_Source\PSoC5/ErikaOS_1_cortex_mx_ee_cpu.inc **** }
 216:Generated_Source\PSoC5/ErikaOS_1_cortex_mx_ee_cpu.inc **** 
 217:Generated_Source\PSoC5/ErikaOS_1_cortex_mx_ee_cpu.inc **** /**
 218:Generated_Source\PSoC5/ErikaOS_1_cortex_mx_ee_cpu.inc ****  * Resume interrupts
 219:Generated_Source\PSoC5/ErikaOS_1_cortex_mx_ee_cpu.inc ****  */
 220:Generated_Source\PSoC5/ErikaOS_1_cortex_mx_ee_cpu.inc **** __INLINE__ void  EE_cortex_mx_resumeIRQ(EE_FREG f)
 221:Generated_Source\PSoC5/ErikaOS_1_cortex_mx_ee_cpu.inc **** {
 222:Generated_Source\PSoC5/ErikaOS_1_cortex_mx_ee_cpu.inc **** #ifdef __IAR__
 223:Generated_Source\PSoC5/ErikaOS_1_cortex_mx_ee_cpu.inc **** 	__set_PRIMASK(f);
 224:Generated_Source\PSoC5/ErikaOS_1_cortex_mx_ee_cpu.inc **** #else	/* __IAR__ */
 225:Generated_Source\PSoC5/ErikaOS_1_cortex_mx_ee_cpu.inc **** #ifdef __CCS__
 226:Generated_Source\PSoC5/ErikaOS_1_cortex_mx_ee_cpu.inc **** 	__ASM ("    msr    primask, r0\n");
 227:Generated_Source\PSoC5/ErikaOS_1_cortex_mx_ee_cpu.inc **** #else	/* __CCS__ */
 228:Generated_Source\PSoC5/ErikaOS_1_cortex_mx_ee_cpu.inc **** #ifdef __KEIL__
 229:Generated_Source\PSoC5/ErikaOS_1_cortex_mx_ee_cpu.inc **** 	register EE_FREG PRIMASK __ASM("primask");
 230:Generated_Source\PSoC5/ErikaOS_1_cortex_mx_ee_cpu.inc **** 	PRIMASK = f;
 231:Generated_Source\PSoC5/ErikaOS_1_cortex_mx_ee_cpu.inc **** #else	/* __KEIL__ */
 232:Generated_Source\PSoC5/ErikaOS_1_cortex_mx_ee_cpu.inc **** 	__ASM volatile("msr primask, %0" :: "r" (f));
 233:Generated_Source\PSoC5/ErikaOS_1_cortex_mx_ee_cpu.inc **** #endif	/* !__KEIL__ */
 234:Generated_Source\PSoC5/ErikaOS_1_cortex_mx_ee_cpu.inc **** #endif	/* !__CCS__ */
 235:Generated_Source\PSoC5/ErikaOS_1_cortex_mx_ee_cpu.inc **** #endif	/* !__IAR__ */
 236:Generated_Source\PSoC5/ErikaOS_1_cortex_mx_ee_cpu.inc **** }
 237:Generated_Source\PSoC5/ErikaOS_1_cortex_mx_ee_cpu.inc **** 
 238:Generated_Source\PSoC5/ErikaOS_1_cortex_mx_ee_cpu.inc **** /**
 239:Generated_Source\PSoC5/ErikaOS_1_cortex_mx_ee_cpu.inc ****  * Suspend interrupts
 240:Generated_Source\PSoC5/ErikaOS_1_cortex_mx_ee_cpu.inc ****  */
 241:Generated_Source\PSoC5/ErikaOS_1_cortex_mx_ee_cpu.inc **** __INLINE__ EE_FREG  EE_cortex_mx_suspendIRQ(void)
 242:Generated_Source\PSoC5/ErikaOS_1_cortex_mx_ee_cpu.inc **** {
 243:Generated_Source\PSoC5/ErikaOS_1_cortex_mx_ee_cpu.inc **** #ifndef __CCS__
 244:Generated_Source\PSoC5/ErikaOS_1_cortex_mx_ee_cpu.inc **** 	EE_FREG istat;
 245:Generated_Source\PSoC5/ErikaOS_1_cortex_mx_ee_cpu.inc **** #endif
 246:Generated_Source\PSoC5/ErikaOS_1_cortex_mx_ee_cpu.inc **** #ifdef __IAR__
 247:Generated_Source\PSoC5/ErikaOS_1_cortex_mx_ee_cpu.inc **** 	 istat = __get_PRIMASK();
 248:Generated_Source\PSoC5/ErikaOS_1_cortex_mx_ee_cpu.inc **** 	__ASM ("cpsid i");
 249:Generated_Source\PSoC5/ErikaOS_1_cortex_mx_ee_cpu.inc **** #else	/* __IAR__ */
 250:Generated_Source\PSoC5/ErikaOS_1_cortex_mx_ee_cpu.inc **** #ifdef __CCS__
 251:Generated_Source\PSoC5/ErikaOS_1_cortex_mx_ee_cpu.inc **** 	__ASM ("    mrs     r0, primask\n"
 252:Generated_Source\PSoC5/ErikaOS_1_cortex_mx_ee_cpu.inc **** 	       "    cpsid   i\n"
 253:Generated_Source\PSoC5/ErikaOS_1_cortex_mx_ee_cpu.inc **** 	       "    bx      lr\n");
 254:Generated_Source\PSoC5/ErikaOS_1_cortex_mx_ee_cpu.inc **** #else	/* __CCS__ */
 255:Generated_Source\PSoC5/ErikaOS_1_cortex_mx_ee_cpu.inc **** #ifdef __KEIL__
 256:Generated_Source\PSoC5/ErikaOS_1_cortex_mx_ee_cpu.inc **** 	register EE_FREG PRIMASK __ASM("primask");
 257:Generated_Source\PSoC5/ErikaOS_1_cortex_mx_ee_cpu.inc **** 	istat = PRIMASK;
 258:Generated_Source\PSoC5/ErikaOS_1_cortex_mx_ee_cpu.inc **** 	__disable_irq();
 259:Generated_Source\PSoC5/ErikaOS_1_cortex_mx_ee_cpu.inc **** #else	/* __KEIL__ */
ARM GAS  C:\Users\Reza\AppData\Local\Temp\ccJx7wfd.s 			page 6


 260:Generated_Source\PSoC5/ErikaOS_1_cortex_mx_ee_cpu.inc **** 	__ASM volatile ("mrs %0, primask" : "=r" (istat) );
 261:Generated_Source\PSoC5/ErikaOS_1_cortex_mx_ee_cpu.inc **** 	__ASM volatile ("cpsid i");
 262:Generated_Source\PSoC5/ErikaOS_1_cortex_mx_ee_cpu.inc **** #endif	/* !__KEIL__ */
 263:Generated_Source\PSoC5/ErikaOS_1_cortex_mx_ee_cpu.inc **** #endif	/* !__CCS__ */
 264:Generated_Source\PSoC5/ErikaOS_1_cortex_mx_ee_cpu.inc **** #endif	/* !__IAR__ */
 265:Generated_Source\PSoC5/ErikaOS_1_cortex_mx_ee_cpu.inc **** #ifdef __CCS__
 266:Generated_Source\PSoC5/ErikaOS_1_cortex_mx_ee_cpu.inc **** 	return 0;
 267:Generated_Source\PSoC5/ErikaOS_1_cortex_mx_ee_cpu.inc **** #else
 268:Generated_Source\PSoC5/ErikaOS_1_cortex_mx_ee_cpu.inc **** 	return istat;
 269:Generated_Source\PSoC5/ErikaOS_1_cortex_mx_ee_cpu.inc **** #endif
 270:Generated_Source\PSoC5/ErikaOS_1_cortex_mx_ee_cpu.inc **** }
 271:Generated_Source\PSoC5/ErikaOS_1_cortex_mx_ee_cpu.inc **** 
 272:Generated_Source\PSoC5/ErikaOS_1_cortex_mx_ee_cpu.inc **** /**
 273:Generated_Source\PSoC5/ErikaOS_1_cortex_mx_ee_cpu.inc ****  * Return true (not 0) if IRQs are enabled, 0 (false) if IRQ are disabled.
 274:Generated_Source\PSoC5/ErikaOS_1_cortex_mx_ee_cpu.inc ****  */
 275:Generated_Source\PSoC5/ErikaOS_1_cortex_mx_ee_cpu.inc **** __INLINE__ EE_UINT32  EE_cortex_mx_get_IRQ_enabled(void)
 276:Generated_Source\PSoC5/ErikaOS_1_cortex_mx_ee_cpu.inc **** {
 277:Generated_Source\PSoC5/ErikaOS_1_cortex_mx_ee_cpu.inc **** #ifndef __CCS__
 278:Generated_Source\PSoC5/ErikaOS_1_cortex_mx_ee_cpu.inc **** 	EE_UREG ie;
 279:Generated_Source\PSoC5/ErikaOS_1_cortex_mx_ee_cpu.inc **** #endif
 280:Generated_Source\PSoC5/ErikaOS_1_cortex_mx_ee_cpu.inc **** #ifdef __IAR__
 281:Generated_Source\PSoC5/ErikaOS_1_cortex_mx_ee_cpu.inc **** 	ie = __get_PRIMASK();
 282:Generated_Source\PSoC5/ErikaOS_1_cortex_mx_ee_cpu.inc **** #else	/* __IAR__ */
 283:Generated_Source\PSoC5/ErikaOS_1_cortex_mx_ee_cpu.inc **** #ifdef __CCS__
 284:Generated_Source\PSoC5/ErikaOS_1_cortex_mx_ee_cpu.inc **** 	__ASM ("    MRS     r0, PRIMASK\n"
 285:Generated_Source\PSoC5/ErikaOS_1_cortex_mx_ee_cpu.inc **** 	       "    EOR     r0, #1\n"
 286:Generated_Source\PSoC5/ErikaOS_1_cortex_mx_ee_cpu.inc **** 	       "    bx      lr\n");
 287:Generated_Source\PSoC5/ErikaOS_1_cortex_mx_ee_cpu.inc **** #else	/* __CCS__ */
 288:Generated_Source\PSoC5/ErikaOS_1_cortex_mx_ee_cpu.inc **** #ifdef __KEIL__
 289:Generated_Source\PSoC5/ErikaOS_1_cortex_mx_ee_cpu.inc **** 	register EE_FREG PRIMASK __ASM("primask");
 290:Generated_Source\PSoC5/ErikaOS_1_cortex_mx_ee_cpu.inc **** 	ie = PRIMASK;
 291:Generated_Source\PSoC5/ErikaOS_1_cortex_mx_ee_cpu.inc **** #else	/* __KEIL__ */
 292:Generated_Source\PSoC5/ErikaOS_1_cortex_mx_ee_cpu.inc **** 	__ASM volatile ("MRS %0, primask" : "=r" (ie) );
 293:Generated_Source\PSoC5/ErikaOS_1_cortex_mx_ee_cpu.inc **** #endif	/* !__KEIL__ */
 294:Generated_Source\PSoC5/ErikaOS_1_cortex_mx_ee_cpu.inc **** #endif	/* !__CCS__ */
 295:Generated_Source\PSoC5/ErikaOS_1_cortex_mx_ee_cpu.inc **** #endif	/* !__IAR__ */
 296:Generated_Source\PSoC5/ErikaOS_1_cortex_mx_ee_cpu.inc **** #ifdef __CCS__
 297:Generated_Source\PSoC5/ErikaOS_1_cortex_mx_ee_cpu.inc **** 	return 0;
 298:Generated_Source\PSoC5/ErikaOS_1_cortex_mx_ee_cpu.inc **** #else
 299:Generated_Source\PSoC5/ErikaOS_1_cortex_mx_ee_cpu.inc **** 	return EE_cortex_mx_are_IRQs_enabled(ie);
 300:Generated_Source\PSoC5/ErikaOS_1_cortex_mx_ee_cpu.inc **** #endif
 301:Generated_Source\PSoC5/ErikaOS_1_cortex_mx_ee_cpu.inc **** }
 302:Generated_Source\PSoC5/ErikaOS_1_cortex_mx_ee_cpu.inc **** 
 303:Generated_Source\PSoC5/ErikaOS_1_cortex_mx_ee_cpu.inc **** __INLINE__ EE_TYPEISR2PRIO  EE_cortex_mx_get_int_prio(void)
 304:Generated_Source\PSoC5/ErikaOS_1_cortex_mx_ee_cpu.inc **** {
 305:Generated_Source\PSoC5/ErikaOS_1_cortex_mx_ee_cpu.inc **** #ifdef __CORTEX_M4__
 306:Generated_Source\PSoC5/ErikaOS_1_cortex_mx_ee_cpu.inc **** 
 307:Generated_Source\PSoC5/ErikaOS_1_cortex_mx_ee_cpu.inc **** #ifndef __CCS__
 308:Generated_Source\PSoC5/ErikaOS_1_cortex_mx_ee_cpu.inc **** 	register EE_UREG prio;
 309:Generated_Source\PSoC5/ErikaOS_1_cortex_mx_ee_cpu.inc **** #ifdef	__KEIL__
 310:Generated_Source\PSoC5/ErikaOS_1_cortex_mx_ee_cpu.inc **** 	register EE_FREG BASEPRI __ASM("basepri");
 311:Generated_Source\PSoC5/ErikaOS_1_cortex_mx_ee_cpu.inc **** #endif
 312:Generated_Source\PSoC5/ErikaOS_1_cortex_mx_ee_cpu.inc **** 
 313:Generated_Source\PSoC5/ErikaOS_1_cortex_mx_ee_cpu.inc **** #endif
 314:Generated_Source\PSoC5/ErikaOS_1_cortex_mx_ee_cpu.inc **** 
 315:Generated_Source\PSoC5/ErikaOS_1_cortex_mx_ee_cpu.inc **** #ifdef __CCS__
 316:Generated_Source\PSoC5/ErikaOS_1_cortex_mx_ee_cpu.inc **** 	/* NVIC_INT_PRI_S = 5 */
ARM GAS  C:\Users\Reza\AppData\Local\Temp\ccJx7wfd.s 			page 7


 317:Generated_Source\PSoC5/ErikaOS_1_cortex_mx_ee_cpu.inc **** 	__ASM ("    MRS     R0, BASEPRI\n"
 318:Generated_Source\PSoC5/ErikaOS_1_cortex_mx_ee_cpu.inc **** 	       "    ASR     R0, #5\n"
 319:Generated_Source\PSoC5/ErikaOS_1_cortex_mx_ee_cpu.inc **** 	       "    BLX     LR\n");
 320:Generated_Source\PSoC5/ErikaOS_1_cortex_mx_ee_cpu.inc **** #else	/* __CCS__ */
 321:Generated_Source\PSoC5/ErikaOS_1_cortex_mx_ee_cpu.inc **** #ifdef __KEIL__
 322:Generated_Source\PSoC5/ErikaOS_1_cortex_mx_ee_cpu.inc **** 	prio = BASEPRI;
 323:Generated_Source\PSoC5/ErikaOS_1_cortex_mx_ee_cpu.inc **** #else	/* __KEIL__ */
 324:Generated_Source\PSoC5/ErikaOS_1_cortex_mx_ee_cpu.inc **** #ifdef __GNU__
 325:Generated_Source\PSoC5/ErikaOS_1_cortex_mx_ee_cpu.inc **** 	__ASM volatile("MRS %0, BASEPRI" : "=r" (prio) :: );
 326:Generated_Source\PSoC5/ErikaOS_1_cortex_mx_ee_cpu.inc **** #else
 327:Generated_Source\PSoC5/ErikaOS_1_cortex_mx_ee_cpu.inc **** 	__ASM volatile("MRS %0, BASEPRI" :: "=r" (prio));
 328:Generated_Source\PSoC5/ErikaOS_1_cortex_mx_ee_cpu.inc **** #endif	/* !__GNU__ */
 329:Generated_Source\PSoC5/ErikaOS_1_cortex_mx_ee_cpu.inc **** #endif	/* !__KEIL__ */
 330:Generated_Source\PSoC5/ErikaOS_1_cortex_mx_ee_cpu.inc **** #endif	/* !__CCS__ */
 331:Generated_Source\PSoC5/ErikaOS_1_cortex_mx_ee_cpu.inc **** 
 332:Generated_Source\PSoC5/ErikaOS_1_cortex_mx_ee_cpu.inc **** #ifdef __CCS__
 333:Generated_Source\PSoC5/ErikaOS_1_cortex_mx_ee_cpu.inc **** 	return 0;
 334:Generated_Source\PSoC5/ErikaOS_1_cortex_mx_ee_cpu.inc **** #else
 335:Generated_Source\PSoC5/ErikaOS_1_cortex_mx_ee_cpu.inc **** 	return prio >> NVIC_INT_PRI_S;
 336:Generated_Source\PSoC5/ErikaOS_1_cortex_mx_ee_cpu.inc **** #endif
 337:Generated_Source\PSoC5/ErikaOS_1_cortex_mx_ee_cpu.inc **** 
 338:Generated_Source\PSoC5/ErikaOS_1_cortex_mx_ee_cpu.inc **** #else	/* __CORTEX_M4__ */
 339:Generated_Source\PSoC5/ErikaOS_1_cortex_mx_ee_cpu.inc **** 	return 0;
 340:Generated_Source\PSoC5/ErikaOS_1_cortex_mx_ee_cpu.inc **** #endif	/* !__CORTEX_M4__ */
 341:Generated_Source\PSoC5/ErikaOS_1_cortex_mx_ee_cpu.inc **** }
 342:Generated_Source\PSoC5/ErikaOS_1_cortex_mx_ee_cpu.inc **** 
 343:Generated_Source\PSoC5/ErikaOS_1_cortex_mx_ee_cpu.inc **** __INLINE__ void  EE_cortex_mx_set_int_prio(
 344:Generated_Source\PSoC5/ErikaOS_1_cortex_mx_ee_cpu.inc ****   EE_TYPEISR2PRIO prio
 345:Generated_Source\PSoC5/ErikaOS_1_cortex_mx_ee_cpu.inc **** )
 346:Generated_Source\PSoC5/ErikaOS_1_cortex_mx_ee_cpu.inc **** {
 347:Generated_Source\PSoC5/ErikaOS_1_cortex_mx_ee_cpu.inc **** #ifdef __CORTEX_M4__
 348:Generated_Source\PSoC5/ErikaOS_1_cortex_mx_ee_cpu.inc **** #ifdef __CCS__
 349:Generated_Source\PSoC5/ErikaOS_1_cortex_mx_ee_cpu.inc **** 	/* NVIC_INT_PRI_S = 5 */
 350:Generated_Source\PSoC5/ErikaOS_1_cortex_mx_ee_cpu.inc **** 	__ASM ("    LSL    R0, #5\n"
 351:Generated_Source\PSoC5/ErikaOS_1_cortex_mx_ee_cpu.inc **** 	       "    MSR    BASEPRI, R0\n");
 352:Generated_Source\PSoC5/ErikaOS_1_cortex_mx_ee_cpu.inc **** #else	/* __CCS__ */
 353:Generated_Source\PSoC5/ErikaOS_1_cortex_mx_ee_cpu.inc **** #ifdef __KEIL__
 354:Generated_Source\PSoC5/ErikaOS_1_cortex_mx_ee_cpu.inc **** 	register EE_FREG BASEPRI __ASM("basepri");
 355:Generated_Source\PSoC5/ErikaOS_1_cortex_mx_ee_cpu.inc **** 	BASEPRI = (prio << NVIC_INT_PRI_S);
 356:Generated_Source\PSoC5/ErikaOS_1_cortex_mx_ee_cpu.inc **** #else	/* __KEIL__ */
 357:Generated_Source\PSoC5/ErikaOS_1_cortex_mx_ee_cpu.inc **** #ifdef __GNU__
 358:Generated_Source\PSoC5/ErikaOS_1_cortex_mx_ee_cpu.inc **** 	__ASM volatile("MSR BASEPRI, %0" :: "r" (prio << NVIC_INT_PRI_S) : );
 359:Generated_Source\PSoC5/ErikaOS_1_cortex_mx_ee_cpu.inc **** #else
 360:Generated_Source\PSoC5/ErikaOS_1_cortex_mx_ee_cpu.inc **** 	__ASM volatile("MSR BASEPRI, %0" :: "r" (prio << NVIC_INT_PRI_S));
 361:Generated_Source\PSoC5/ErikaOS_1_cortex_mx_ee_cpu.inc **** #endif	/* !__GNU__ */
 362:Generated_Source\PSoC5/ErikaOS_1_cortex_mx_ee_cpu.inc **** #endif	/* !__KEIL__ */
 363:Generated_Source\PSoC5/ErikaOS_1_cortex_mx_ee_cpu.inc **** #endif	/* !__CCS__ */
 364:Generated_Source\PSoC5/ErikaOS_1_cortex_mx_ee_cpu.inc **** #endif	/* __CORTEX_M4__ */
 365:Generated_Source\PSoC5/ErikaOS_1_cortex_mx_ee_cpu.inc **** }
 366:Generated_Source\PSoC5/ErikaOS_1_cortex_mx_ee_cpu.inc **** 
 367:Generated_Source\PSoC5/ErikaOS_1_cortex_mx_ee_cpu.inc **** __INLINE__ EE_TYPEISR2PRIO  EE_cortex_mx_get_isr_prio(
 368:Generated_Source\PSoC5/ErikaOS_1_cortex_mx_ee_cpu.inc ****   void
 369:Generated_Source\PSoC5/ErikaOS_1_cortex_mx_ee_cpu.inc **** )
 370:Generated_Source\PSoC5/ErikaOS_1_cortex_mx_ee_cpu.inc **** {
  27              		.loc 1 370 0
  28              		.cfi_startproc
  29              		@ args = 0, pretend = 0, frame = 0
ARM GAS  C:\Users\Reza\AppData\Local\Temp\ccJx7wfd.s 			page 8


  30              		@ frame_needed = 0, uses_anonymous_args = 0
  31              		@ link register save eliminated.
 371:Generated_Source\PSoC5/ErikaOS_1_cortex_mx_ee_cpu.inc **** #ifdef __CORTEX_M4__
 372:Generated_Source\PSoC5/ErikaOS_1_cortex_mx_ee_cpu.inc ****   register EE_UREG vectact = NVIC_INT_CTRL_R & NVIC_INT_CTRL_VEC_ACT_M;
  32              		.loc 1 372 0
  33 0000 0D4B     		ldr	r3, .L6
  34 0002 1B68     		ldr	r3, [r3]
  35 0004 DBB2     		uxtb	r3, r3
  36              	.LVL0:
 373:Generated_Source\PSoC5/ErikaOS_1_cortex_mx_ee_cpu.inc ****   register EE_TYPEISR2PRIO prio = 0;
 374:Generated_Source\PSoC5/ErikaOS_1_cortex_mx_ee_cpu.inc **** 
 375:Generated_Source\PSoC5/ErikaOS_1_cortex_mx_ee_cpu.inc ****   if (vectact > EE_CORTEX_MX_SYSTICK_EXC_NUM) {
  37              		.loc 1 375 0
  38 0006 0F2B     		cmp	r3, #15
  39 0008 0FD9     		bls	.L2
 376:Generated_Source\PSoC5/ErikaOS_1_cortex_mx_ee_cpu.inc ****     vectact -= EE_CORTEX_MX_SYSTICK_EXC_NUM + 1;
  40              		.loc 1 376 0
  41 000a 103B     		subs	r3, r3, #16
  42              	.LVL1:
 377:Generated_Source\PSoC5/ErikaOS_1_cortex_mx_ee_cpu.inc ****     prio = NVIC_GET_PRI(vectact);
  43              		.loc 1 377 0
  44 000c 23F00302 		bic	r2, r3, #3
  45 0010 02F16042 		add	r2, r2, #-536870912
  46 0014 02F56442 		add	r2, r2, #58368
  47 0018 DB00     		lsls	r3, r3, #3
  48              	.LVL2:
  49 001a 03F01803 		and	r3, r3, #24
  50 001e 1268     		ldr	r2, [r2]
  51 0020 E020     		movs	r0, #224
  52 0022 9840     		lsls	r0, r0, r3
  53 0024 1040     		ands	r0, r0, r2
  54 0026 D840     		lsrs	r0, r0, r3
  55              	.LVL3:
  56 0028 7047     		bx	lr
  57              	.LVL4:
  58              	.L2:
 378:Generated_Source\PSoC5/ErikaOS_1_cortex_mx_ee_cpu.inc ****   }
 379:Generated_Source\PSoC5/ErikaOS_1_cortex_mx_ee_cpu.inc **** #ifdef	__USE_SYSTICK__
 380:Generated_Source\PSoC5/ErikaOS_1_cortex_mx_ee_cpu.inc ****   else if (vectact == EE_CORTEX_MX_SYSTICK_EXC_NUM) {
 381:Generated_Source\PSoC5/ErikaOS_1_cortex_mx_ee_cpu.inc ****     prio = NVIC_SYS_PRI3_R >> NVIC_SYS_PRI3_TICK_S;
  59              		.loc 1 381 0
  60 002a 03BF     		ittte	eq
  61 002c 034B     		ldreq	r3, .L6+4
  62              	.LVL5:
  63 002e 1868     		ldreq	r0, [r3]
  64 0030 000E     		lsreq	r0, r0, #24
  65              	.LVL6:
 373:Generated_Source\PSoC5/ErikaOS_1_cortex_mx_ee_cpu.inc **** 
  66              		.loc 1 373 0
  67 0032 0020     		movne	r0, #0
  68              	.LVL7:
 382:Generated_Source\PSoC5/ErikaOS_1_cortex_mx_ee_cpu.inc ****   }
 383:Generated_Source\PSoC5/ErikaOS_1_cortex_mx_ee_cpu.inc **** #endif
 384:Generated_Source\PSoC5/ErikaOS_1_cortex_mx_ee_cpu.inc **** #ifdef	__USE_SVC__
 385:Generated_Source\PSoC5/ErikaOS_1_cortex_mx_ee_cpu.inc ****   else if (vectact == EE_CORTEX_MX_SVCALL_EXC_NUM) {
 386:Generated_Source\PSoC5/ErikaOS_1_cortex_mx_ee_cpu.inc ****     prio = NVIC_SYS_PRI2_R >> NVIC_SYS_PRI2_SVC_S;
 387:Generated_Source\PSoC5/ErikaOS_1_cortex_mx_ee_cpu.inc ****   }
ARM GAS  C:\Users\Reza\AppData\Local\Temp\ccJx7wfd.s 			page 9


 388:Generated_Source\PSoC5/ErikaOS_1_cortex_mx_ee_cpu.inc **** #endif
 389:Generated_Source\PSoC5/ErikaOS_1_cortex_mx_ee_cpu.inc **** 
 390:Generated_Source\PSoC5/ErikaOS_1_cortex_mx_ee_cpu.inc ****   return prio;
 391:Generated_Source\PSoC5/ErikaOS_1_cortex_mx_ee_cpu.inc **** 
 392:Generated_Source\PSoC5/ErikaOS_1_cortex_mx_ee_cpu.inc **** #else	/* __CORTEX_M4__ */
 393:Generated_Source\PSoC5/ErikaOS_1_cortex_mx_ee_cpu.inc ****   return 0;
 394:Generated_Source\PSoC5/ErikaOS_1_cortex_mx_ee_cpu.inc **** #endif	/* !__CORTEX_M4__ */
 395:Generated_Source\PSoC5/ErikaOS_1_cortex_mx_ee_cpu.inc **** }
  69              		.loc 1 395 0
  70 0034 7047     		bx	lr
  71              	.L7:
  72 0036 00BF     		.align	2
  73              	.L6:
  74 0038 04ED00E0 		.word	-536810236
  75 003c 20ED00E0 		.word	-536810208
  76              		.cfi_endproc
  77              	.LFE16:
  78              		.size	EE_cortex_mx_get_isr_prio, .-EE_cortex_mx_get_isr_prio
  79              		.section	.text.ISR2_systick_handler,"ax",%progbits
  80              		.align	1
  81              		.global	ISR2_systick_handler
  82              		.thumb
  83              		.thumb_func
  84              		.type	ISR2_systick_handler, %function
  85              	ISR2_systick_handler:
  86              	.LFB111:
  87              		.file 2 "source\\asw\\main.c"
   1:source\asw/main.c **** /* ========================================
   2:source\asw/main.c ****  *
   3:source\asw/main.c ****  * Copyright YOUR COMPANY, THE YEAR
   4:source\asw/main.c ****  * All Rights Reserved
   5:source\asw/main.c ****  * UNPUBLISHED, LICENSED SOFTWARE.
   6:source\asw/main.c ****  *
   7:source\asw/main.c ****  * CONFIDENTIAL AND PROPRIETARY INFORMATION
   8:source\asw/main.c ****  * WHICH IS THE PROPERTY OF your company.
   9:source\asw/main.c ****  *
  10:source\asw/main.c ****  * ========================================
  11:source\asw/main.c **** */
  12:source\asw/main.c **** #include "project.h"
  13:source\asw/main.c **** #include "global.h"
  14:source\asw/main.c **** 
  15:source\asw/main.c **** #include "button.h"
  16:source\asw/main.c **** #include "led.h"
  17:source\asw/main.c **** #include "seven.h"
  18:source\asw/main.c **** 
  19:source\asw/main.c **** #include "blinker.h"
  20:source\asw/main.c **** 
  21:source\asw/main.c **** //ISR which will increment the systick counter every ms
  22:source\asw/main.c **** ISR(systick_handler)
  23:source\asw/main.c **** {
  88              		.loc 2 23 0
  89              		.cfi_startproc
  90              		@ args = 0, pretend = 0, frame = 0
  91              		@ frame_needed = 0, uses_anonymous_args = 0
  92              		@ link register save eliminated.
  24:source\asw/main.c ****     CounterTick(cnt_systick); //application counter
  93              		.loc 2 24 0
ARM GAS  C:\Users\Reza\AppData\Local\Temp\ccJx7wfd.s 			page 10


  94 0000 0020     		movs	r0, #0
  95 0002 FFF7FEBF 		b	EE_oo_IncrementCounter
  96              	.LVL8:
  97              		.cfi_endproc
  98              	.LFE111:
  99              		.size	ISR2_systick_handler, .-ISR2_systick_handler
 100              		.section	.text.systick_handler,"ax",%progbits
 101              		.align	1
 102              		.global	systick_handler
 103              		.thumb
 104              		.thumb_func
 105              		.type	systick_handler, %function
 106              	systick_handler:
 107              	.LFB110:
  22:source\asw/main.c **** {
 108              		.loc 2 22 0
 109              		.cfi_startproc
 110              		@ Stack Align: May be called with mis-aligned SP.
 111              		@ args = 0, pretend = 0, frame = 0
 112              		@ frame_needed = 0, uses_anonymous_args = 0
 113              	.LVL9:
 114 0000 6846     		mov	r0, sp
 115              		.cfi_register 13, 0
 116 0002 20F00701 		bic	r1, r0, #7
 117 0006 8D46     		mov	sp, r1
 118 0008 31B5     		push	{r0, r4, r5, lr}
 119              		.cfi_def_cfa_offset 16
 120              		.cfi_offset 13, -16
 121              		.cfi_offset 4, -12
 122              		.cfi_offset 5, -8
 123              		.cfi_offset 14, -4
 124              	.LBB68:
 125              	.LBB69:
 211:Generated_Source\PSoC5/ErikaOS_1_cortex_mx_ee_cpu.inc **** #endif	/* !__KEIL__ */
 126              		.loc 1 211 0
 127              		.syntax unified
 128              	@ 211 "Generated_Source\PSoC5/ErikaOS_1_cortex_mx_ee_cpu.inc" 1
 129 000a 72B6     		cpsid i
 130              	@ 0 "" 2
 131              		.thumb
 132              		.syntax unified
 133              	.LBE69:
 134              	.LBE68:
 135              	.LBB70:
 136              	.LBB71:
 325:Generated_Source\PSoC5/ErikaOS_1_cortex_mx_ee_cpu.inc **** #else
 137              		.loc 1 325 0
 138              		.syntax unified
 139              	@ 325 "Generated_Source\PSoC5/ErikaOS_1_cortex_mx_ee_cpu.inc" 1
 140 000c EFF31185 		MRS r5, BASEPRI
 141              	@ 0 "" 2
 142              	.LVL10:
 143              		.thumb
 144              		.syntax unified
 145              	.LBE71:
 146              	.LBE70:
  22:source\asw/main.c **** {
ARM GAS  C:\Users\Reza\AppData\Local\Temp\ccJx7wfd.s 			page 11


 147              		.loc 2 22 0
 148 0010 FFF7FEFF 		bl	EE_cortex_mx_get_isr_prio
 149              	.LVL11:
 150              	.LBB72:
 151              	.LBB73:
 358:Generated_Source\PSoC5/ErikaOS_1_cortex_mx_ee_cpu.inc **** #else
 152              		.loc 1 358 0
 153              		.syntax unified
 154              	@ 358 "Generated_Source\PSoC5/ErikaOS_1_cortex_mx_ee_cpu.inc" 1
 155 0014 80F31188 		MSR BASEPRI, r0
 156              	@ 0 "" 2
 157              	.LVL12:
 158              		.thumb
 159              		.syntax unified
 160              	.LBE73:
 161              	.LBE72:
 162              	.LBB74:
 163              	.LBB75:
 164              		.file 3 "Generated_Source\\PSoC5/ErikaOS_1_common_ee_irqstub.inc"
   1:Generated_Source\PSoC5/ErikaOS_1_common_ee_irqstub.inc **** /* ###*B*###
   2:Generated_Source\PSoC5/ErikaOS_1_common_ee_irqstub.inc ****  * ERIKA Enterprise - a tiny RTOS for small microcontrollers
   3:Generated_Source\PSoC5/ErikaOS_1_common_ee_irqstub.inc ****  *
   4:Generated_Source\PSoC5/ErikaOS_1_common_ee_irqstub.inc ****  * Copyright (C) 2002-2010  Evidence Srl
   5:Generated_Source\PSoC5/ErikaOS_1_common_ee_irqstub.inc ****  *
   6:Generated_Source\PSoC5/ErikaOS_1_common_ee_irqstub.inc ****  * This file is part of ERIKA Enterprise.
   7:Generated_Source\PSoC5/ErikaOS_1_common_ee_irqstub.inc ****  *
   8:Generated_Source\PSoC5/ErikaOS_1_common_ee_irqstub.inc ****  * ERIKA Enterprise is free software; you can redistribute it
   9:Generated_Source\PSoC5/ErikaOS_1_common_ee_irqstub.inc ****  * and/or modify it under the terms of the GNU General Public License
  10:Generated_Source\PSoC5/ErikaOS_1_common_ee_irqstub.inc ****  * version 2 as published by the Free Software Foundation,
  11:Generated_Source\PSoC5/ErikaOS_1_common_ee_irqstub.inc ****  * (with a special exception described below).
  12:Generated_Source\PSoC5/ErikaOS_1_common_ee_irqstub.inc ****  *
  13:Generated_Source\PSoC5/ErikaOS_1_common_ee_irqstub.inc ****  * Linking this code statically or dynamically with other modules is
  14:Generated_Source\PSoC5/ErikaOS_1_common_ee_irqstub.inc ****  * making a combined work based on this code.  Thus, the terms and
  15:Generated_Source\PSoC5/ErikaOS_1_common_ee_irqstub.inc ****  * conditions of the GNU General Public License cover the whole
  16:Generated_Source\PSoC5/ErikaOS_1_common_ee_irqstub.inc ****  * combination.
  17:Generated_Source\PSoC5/ErikaOS_1_common_ee_irqstub.inc ****  *
  18:Generated_Source\PSoC5/ErikaOS_1_common_ee_irqstub.inc ****  * As a special exception, the copyright holders of this library give you
  19:Generated_Source\PSoC5/ErikaOS_1_common_ee_irqstub.inc ****  * permission to link this code with independent modules to produce an
  20:Generated_Source\PSoC5/ErikaOS_1_common_ee_irqstub.inc ****  * executable, regardless of the license terms of these independent
  21:Generated_Source\PSoC5/ErikaOS_1_common_ee_irqstub.inc ****  * modules, and to copy and distribute the resulting executable under
  22:Generated_Source\PSoC5/ErikaOS_1_common_ee_irqstub.inc ****  * terms of your choice, provided that you also meet, for each linked
  23:Generated_Source\PSoC5/ErikaOS_1_common_ee_irqstub.inc ****  * independent module, the terms and conditions of the license of that
  24:Generated_Source\PSoC5/ErikaOS_1_common_ee_irqstub.inc ****  * module.  An independent module is a module which is not derived from
  25:Generated_Source\PSoC5/ErikaOS_1_common_ee_irqstub.inc ****  * or based on this library.  If you modify this code, you may extend
  26:Generated_Source\PSoC5/ErikaOS_1_common_ee_irqstub.inc ****  * this exception to your version of the code, but you are not
  27:Generated_Source\PSoC5/ErikaOS_1_common_ee_irqstub.inc ****  * obligated to do so.  If you do not wish to do so, delete this
  28:Generated_Source\PSoC5/ErikaOS_1_common_ee_irqstub.inc ****  * exception statement from your version.
  29:Generated_Source\PSoC5/ErikaOS_1_common_ee_irqstub.inc ****  *
  30:Generated_Source\PSoC5/ErikaOS_1_common_ee_irqstub.inc ****  * ERIKA Enterprise is distributed in the hope that it will be
  31:Generated_Source\PSoC5/ErikaOS_1_common_ee_irqstub.inc ****  * useful, but WITHOUT ANY WARRANTY; without even the implied warranty
  32:Generated_Source\PSoC5/ErikaOS_1_common_ee_irqstub.inc ****  * of MERCHANTABILITY or FITNESS FOR A PARTICULAR PURPOSE.  See the
  33:Generated_Source\PSoC5/ErikaOS_1_common_ee_irqstub.inc ****  * GNU General Public License version 2 for more details.
  34:Generated_Source\PSoC5/ErikaOS_1_common_ee_irqstub.inc ****  *
  35:Generated_Source\PSoC5/ErikaOS_1_common_ee_irqstub.inc ****  * You should have received a copy of the GNU General Public License
  36:Generated_Source\PSoC5/ErikaOS_1_common_ee_irqstub.inc ****  * version 2 along with ERIKA Enterprise; if not, write to the
  37:Generated_Source\PSoC5/ErikaOS_1_common_ee_irqstub.inc ****  * Free Software Foundation, Inc., 51 Franklin Street, Fifth Floor,
  38:Generated_Source\PSoC5/ErikaOS_1_common_ee_irqstub.inc ****  * Boston, MA 02110-1301 USA.
ARM GAS  C:\Users\Reza\AppData\Local\Temp\ccJx7wfd.s 			page 12


  39:Generated_Source\PSoC5/ErikaOS_1_common_ee_irqstub.inc ****  * ###*E*### */
  40:Generated_Source\PSoC5/ErikaOS_1_common_ee_irqstub.inc **** 
  41:Generated_Source\PSoC5/ErikaOS_1_common_ee_irqstub.inc **** /*
  42:Generated_Source\PSoC5/ErikaOS_1_common_ee_irqstub.inc ****  * Some IRQ-related stuff.
  43:Generated_Source\PSoC5/ErikaOS_1_common_ee_irqstub.inc ****  * Author: 2009-2010,  Bernardo  Dal Seno
  44:Generated_Source\PSoC5/ErikaOS_1_common_ee_irqstub.inc ****  */
  45:Generated_Source\PSoC5/ErikaOS_1_common_ee_irqstub.inc **** 
  46:Generated_Source\PSoC5/ErikaOS_1_common_ee_irqstub.inc **** /*
  47:Generated_Source\PSoC5/ErikaOS_1_common_ee_irqstub.inc ****  * PSoC Port and API Generation
  48:Generated_Source\PSoC5/ErikaOS_1_common_ee_irqstub.inc ****  * Carlos Fernando Meier Martinez
  49:Generated_Source\PSoC5/ErikaOS_1_common_ee_irqstub.inc ****  * Hochschule Darmstadt, Germany. 2017.
  50:Generated_Source\PSoC5/ErikaOS_1_common_ee_irqstub.inc ****  */
  51:Generated_Source\PSoC5/ErikaOS_1_common_ee_irqstub.inc **** 
  52:Generated_Source\PSoC5/ErikaOS_1_common_ee_irqstub.inc **** /*******************************************************************************
  53:Generated_Source\PSoC5/ErikaOS_1_common_ee_irqstub.inc ****  *                        !!!WARNING!!!
  54:Generated_Source\PSoC5/ErikaOS_1_common_ee_irqstub.inc ****  * This header depends on "cpu/common/inc/ee_context.inc" or your own
  55:Generated_Source\PSoC5/ErikaOS_1_common_ee_irqstub.inc ****  * implementation of the same. You should include it file before including this
  56:Generated_Source\PSoC5/ErikaOS_1_common_ee_irqstub.inc ****  * file
  57:Generated_Source\PSoC5/ErikaOS_1_common_ee_irqstub.inc ****  ******************************************************************************/
  58:Generated_Source\PSoC5/ErikaOS_1_common_ee_irqstub.inc **** 
  59:Generated_Source\PSoC5/ErikaOS_1_common_ee_irqstub.inc **** #ifndef PKG_CPU_COMMON_INC_EE_IRQSTUB_H
  60:Generated_Source\PSoC5/ErikaOS_1_common_ee_irqstub.inc **** #define PKG_CPU_COMMON_INC_EE_IRQSTUB_H
  61:Generated_Source\PSoC5/ErikaOS_1_common_ee_irqstub.inc **** 
  62:Generated_Source\PSoC5/ErikaOS_1_common_ee_irqstub.inc **** /* this bring EE_IRQ_nesting_level definition */
  63:Generated_Source\PSoC5/ErikaOS_1_common_ee_irqstub.inc **** #include "ErikaOS_1_common_ee_primitives.inc"
  64:Generated_Source\PSoC5/ErikaOS_1_common_ee_irqstub.inc **** 
  65:Generated_Source\PSoC5/ErikaOS_1_common_ee_irqstub.inc **** /* True if we are inside an interrupt-serving routine */
  66:Generated_Source\PSoC5/ErikaOS_1_common_ee_irqstub.inc **** __INLINE__ EE_TYPEBOOL  EE_is_inside_ISR_call( void )
  67:Generated_Source\PSoC5/ErikaOS_1_common_ee_irqstub.inc **** {
  68:Generated_Source\PSoC5/ErikaOS_1_common_ee_irqstub.inc ****   return (EE_IRQ_nesting_level > 0U);
  69:Generated_Source\PSoC5/ErikaOS_1_common_ee_irqstub.inc **** }
  70:Generated_Source\PSoC5/ErikaOS_1_common_ee_irqstub.inc **** 
  71:Generated_Source\PSoC5/ErikaOS_1_common_ee_irqstub.inc **** 
  72:Generated_Source\PSoC5/ErikaOS_1_common_ee_irqstub.inc **** /* EE_decrement_IRQ_nesting_level() and EE_increment_IRQ_nesting_level() are
  73:Generated_Source\PSoC5/ErikaOS_1_common_ee_irqstub.inc ****  * used to keep track of the current IRQ nesting level.
  74:Generated_Source\PSoC5/ErikaOS_1_common_ee_irqstub.inc ****  * EE_std_enableIRQ_nested() and EE_std_disableIRQ_nested() are used to control
  75:Generated_Source\PSoC5/ErikaOS_1_common_ee_irqstub.inc ****  * when IRQ nesting is enabled.
  76:Generated_Source\PSoC5/ErikaOS_1_common_ee_irqstub.inc ****  */
  77:Generated_Source\PSoC5/ErikaOS_1_common_ee_irqstub.inc **** #if defined(__AS_SC4__)
  78:Generated_Source\PSoC5/ErikaOS_1_common_ee_irqstub.inc **** /* For SC4 the nesting level is updated inside the prestub and postub */
  79:Generated_Source\PSoC5/ErikaOS_1_common_ee_irqstub.inc **** __INLINE__ void  EE_decrement_IRQ_nesting_level(void) {}
  80:Generated_Source\PSoC5/ErikaOS_1_common_ee_irqstub.inc **** __INLINE__ void  EE_increment_IRQ_nesting_level(void) {}
  81:Generated_Source\PSoC5/ErikaOS_1_common_ee_irqstub.inc **** __INLINE__ void  EE_std_enableIRQ_nested(void) {}
  82:Generated_Source\PSoC5/ErikaOS_1_common_ee_irqstub.inc **** __INLINE__ void  EE_std_disableIRQ_nested(void) {}
  83:Generated_Source\PSoC5/ErikaOS_1_common_ee_irqstub.inc **** #elif defined(__ALLOW_NESTED_IRQ__)
  84:Generated_Source\PSoC5/ErikaOS_1_common_ee_irqstub.inc **** __INLINE__ void  EE_decrement_IRQ_nesting_level(void) { --EE_IRQ_nesting_level; }
  85:Generated_Source\PSoC5/ErikaOS_1_common_ee_irqstub.inc **** __INLINE__ void  EE_increment_IRQ_nesting_level(void) { ++EE_IRQ_nesting_level; }
 165              		.loc 3 85 0
 166 0018 0E4B     		ldr	r3, .L12
 167 001a 1A68     		ldr	r2, [r3]
 168 001c 1C46     		mov	r4, r3
 169 001e 0132     		adds	r2, r2, #1
 170              	.LBE75:
 171              	.LBE74:
  22:source\asw/main.c **** {
 172              		.loc 2 22 0
 173 0020 012A     		cmp	r2, #1
ARM GAS  C:\Users\Reza\AppData\Local\Temp\ccJx7wfd.s 			page 13


 174              	.LBB77:
 175              	.LBB76:
 176              		.loc 3 85 0
 177 0022 1A60     		str	r2, [r3]
 178              	.LBE76:
 179              	.LBE77:
  22:source\asw/main.c **** {
 180              		.loc 2 22 0
 181 0024 01D1     		bne	.L10
  22:source\asw/main.c **** {
 182              		.loc 2 22 0 is_stmt 0 discriminator 1
 183 0026 FFF7FEFF 		bl	EE_cortex_mx_change_IRQ_stack
 184              	.LVL13:
 185              	.L10:
 186              	.LBB78:
 187              	.LBB79:
 191:Generated_Source\PSoC5/ErikaOS_1_cortex_mx_ee_cpu.inc **** #endif	/* !__KEIL__ */
 188              		.loc 1 191 0 is_stmt 1 discriminator 3
 189              		.syntax unified
 190              	@ 191 "Generated_Source\PSoC5/ErikaOS_1_cortex_mx_ee_cpu.inc" 1
 191 002a 62B6     		cpsie i
 192              	@ 0 "" 2
 193              		.thumb
 194              		.syntax unified
 195              	.LBE79:
 196              	.LBE78:
  22:source\asw/main.c **** {
 197              		.loc 2 22 0 discriminator 3
 198 002c FFF7FEFF 		bl	ISR2_systick_handler
 199              	.LVL14:
 200              	.LBB80:
 201              	.LBB81:
 211:Generated_Source\PSoC5/ErikaOS_1_cortex_mx_ee_cpu.inc **** #endif	/* !__KEIL__ */
 202              		.loc 1 211 0 discriminator 3
 203              		.syntax unified
 204              	@ 211 "Generated_Source\PSoC5/ErikaOS_1_cortex_mx_ee_cpu.inc" 1
 205 0030 72B6     		cpsid i
 206              	@ 0 "" 2
 207              	.LVL15:
 208              		.thumb
 209              		.syntax unified
 210              	.LBE81:
 211              	.LBE80:
 212              	.LBB82:
 213              	.LBB83:
 358:Generated_Source\PSoC5/ErikaOS_1_cortex_mx_ee_cpu.inc **** #else
 214              		.loc 1 358 0 discriminator 3
 215              		.syntax unified
 216              	@ 358 "Generated_Source\PSoC5/ErikaOS_1_cortex_mx_ee_cpu.inc" 1
 217 0032 85F31188 		MSR BASEPRI, r5
 218              	@ 0 "" 2
 219              	.LVL16:
 220              		.thumb
 221              		.syntax unified
 222              	.LBE83:
 223              	.LBE82:
 224              	.LBB84:
ARM GAS  C:\Users\Reza\AppData\Local\Temp\ccJx7wfd.s 			page 14


 225              	.LBB85:
  86:Generated_Source\PSoC5/ErikaOS_1_common_ee_irqstub.inc **** /*  EE_std_enableIRQ_nested() and EE_std_disableIRQ_nested() must be defined in
  87:Generated_Source\PSoC5/ErikaOS_1_common_ee_irqstub.inc ****  *  the platform-dependent part, as they dependend on the particular way
  88:Generated_Source\PSoC5/ErikaOS_1_common_ee_irqstub.inc ****  *  interrupts are handled by the CPU. */
  89:Generated_Source\PSoC5/ErikaOS_1_common_ee_irqstub.inc **** #else
  90:Generated_Source\PSoC5/ErikaOS_1_common_ee_irqstub.inc **** __INLINE__ void  EE_decrement_IRQ_nesting_level(void) { EE_IRQ_nesting_level = 0U; }
  91:Generated_Source\PSoC5/ErikaOS_1_common_ee_irqstub.inc **** __INLINE__ void  EE_increment_IRQ_nesting_level(void) { EE_IRQ_nesting_level = 1U; }
  92:Generated_Source\PSoC5/ErikaOS_1_common_ee_irqstub.inc **** __INLINE__ void  EE_std_enableIRQ_nested(void) {}
  93:Generated_Source\PSoC5/ErikaOS_1_common_ee_irqstub.inc **** __INLINE__ void  EE_std_disableIRQ_nested(void) {}
  94:Generated_Source\PSoC5/ErikaOS_1_common_ee_irqstub.inc **** #endif
  95:Generated_Source\PSoC5/ErikaOS_1_common_ee_irqstub.inc **** 
  96:Generated_Source\PSoC5/ErikaOS_1_common_ee_irqstub.inc **** #if (defined(__OO_BCC1__)) || (defined(__OO_BCC2__)) || (defined(__OO_ECC1__)) \
  97:Generated_Source\PSoC5/ErikaOS_1_common_ee_irqstub.inc ****   || (defined(__OO_ECC2__)) || (defined(__AS_SC4__))
  98:Generated_Source\PSoC5/ErikaOS_1_common_ee_irqstub.inc **** /* Function to be called at the end of a function service interrupt, to execute
  99:Generated_Source\PSoC5/ErikaOS_1_common_ee_irqstub.inc ****    clean-up specifiend in Autosar standard */
 100:Generated_Source\PSoC5/ErikaOS_1_common_ee_irqstub.inc **** __INLINE__ void  EE_std_end_IRQ_post_stub(void)
 101:Generated_Source\PSoC5/ErikaOS_1_common_ee_irqstub.inc **** {
 102:Generated_Source\PSoC5/ErikaOS_1_common_ee_irqstub.inc ****   EE_IRQ_end_post_stub();
 226              		.loc 3 102 0 discriminator 3
 227 0036 FFF7FEFF 		bl	EE_IRQ_end_post_stub
 228              	.LVL17:
 229              	.LBE85:
 230              	.LBE84:
 231              	.LBB86:
 232              	.LBB87:
  84:Generated_Source\PSoC5/ErikaOS_1_common_ee_irqstub.inc **** __INLINE__ void  EE_increment_IRQ_nesting_level(void) { ++EE_IRQ_nesting_level; }
 233              		.loc 3 84 0 discriminator 3
 234 003a 2368     		ldr	r3, [r4]
 235 003c 013B     		subs	r3, r3, #1
 236 003e 2360     		str	r3, [r4]
 237              	.LBE87:
 238              	.LBE86:
  22:source\asw/main.c **** {
 239              		.loc 2 22 0 discriminator 3
 240 0040 1BB9     		cbnz	r3, .L11
  22:source\asw/main.c **** {
 241              		.loc 2 22 0 is_stmt 0 discriminator 4
 242 0042 FFF7FEFF 		bl	EE_cortex_mx_change_IRQ_stack_back
 243              	.LVL18:
 244              	.LBB88:
 245              	.LBB89:
 246              		.file 4 "Generated_Source\\PSoC5/ErikaOS_1_cortex_mx_ee_irq_cng_cont.inc"
   1:Generated_Source\PSoC5/ErikaOS_1_cortex_mx_ee_irq_cng_cont.inc **** /* ###*B*###
   2:Generated_Source\PSoC5/ErikaOS_1_cortex_mx_ee_irq_cng_cont.inc ****  * ERIKA Enterprise - a tiny RTOS for small microcontrollers
   3:Generated_Source\PSoC5/ErikaOS_1_cortex_mx_ee_irq_cng_cont.inc ****  *
   4:Generated_Source\PSoC5/ErikaOS_1_cortex_mx_ee_irq_cng_cont.inc ****  * Copyright (C) 2002-2011  Evidence Srl
   5:Generated_Source\PSoC5/ErikaOS_1_cortex_mx_ee_irq_cng_cont.inc ****  *
   6:Generated_Source\PSoC5/ErikaOS_1_cortex_mx_ee_irq_cng_cont.inc ****  * This file is part of ERIKA Enterprise.
   7:Generated_Source\PSoC5/ErikaOS_1_cortex_mx_ee_irq_cng_cont.inc ****  *
   8:Generated_Source\PSoC5/ErikaOS_1_cortex_mx_ee_irq_cng_cont.inc ****  * ERIKA Enterprise is free software; you can redistribute it
   9:Generated_Source\PSoC5/ErikaOS_1_cortex_mx_ee_irq_cng_cont.inc ****  * and/or modify it under the terms of the GNU General Public License
  10:Generated_Source\PSoC5/ErikaOS_1_cortex_mx_ee_irq_cng_cont.inc ****  * version 2 as published by the Free Software Foundation, 
  11:Generated_Source\PSoC5/ErikaOS_1_cortex_mx_ee_irq_cng_cont.inc ****  * (with a special exception described below).
  12:Generated_Source\PSoC5/ErikaOS_1_cortex_mx_ee_irq_cng_cont.inc ****  *
  13:Generated_Source\PSoC5/ErikaOS_1_cortex_mx_ee_irq_cng_cont.inc ****  * Linking this code statically or dynamically with other modules is
  14:Generated_Source\PSoC5/ErikaOS_1_cortex_mx_ee_irq_cng_cont.inc ****  * making a combined work based on this code.  Thus, the terms and
  15:Generated_Source\PSoC5/ErikaOS_1_cortex_mx_ee_irq_cng_cont.inc ****  * conditions of the GNU General Public License cover the whole
ARM GAS  C:\Users\Reza\AppData\Local\Temp\ccJx7wfd.s 			page 15


  16:Generated_Source\PSoC5/ErikaOS_1_cortex_mx_ee_irq_cng_cont.inc ****  * combination.
  17:Generated_Source\PSoC5/ErikaOS_1_cortex_mx_ee_irq_cng_cont.inc ****  *
  18:Generated_Source\PSoC5/ErikaOS_1_cortex_mx_ee_irq_cng_cont.inc ****  * As a special exception, the copyright holders of this library give you
  19:Generated_Source\PSoC5/ErikaOS_1_cortex_mx_ee_irq_cng_cont.inc ****  * permission to link this code with independent modules to produce an
  20:Generated_Source\PSoC5/ErikaOS_1_cortex_mx_ee_irq_cng_cont.inc ****  * executable, regardless of the license terms of these independent
  21:Generated_Source\PSoC5/ErikaOS_1_cortex_mx_ee_irq_cng_cont.inc ****  * modules, and to copy and distribute the resulting executable under
  22:Generated_Source\PSoC5/ErikaOS_1_cortex_mx_ee_irq_cng_cont.inc ****  * terms of your choice, provided that you also meet, for each linked
  23:Generated_Source\PSoC5/ErikaOS_1_cortex_mx_ee_irq_cng_cont.inc ****  * independent module, the terms and conditions of the license of that
  24:Generated_Source\PSoC5/ErikaOS_1_cortex_mx_ee_irq_cng_cont.inc ****  * module.  An independent module is a module which is not derived from
  25:Generated_Source\PSoC5/ErikaOS_1_cortex_mx_ee_irq_cng_cont.inc ****  * or based on this library.  If you modify this code, you may extend
  26:Generated_Source\PSoC5/ErikaOS_1_cortex_mx_ee_irq_cng_cont.inc ****  * this exception to your version of the code, but you are not
  27:Generated_Source\PSoC5/ErikaOS_1_cortex_mx_ee_irq_cng_cont.inc ****  * obligated to do so.  If you do not wish to do so, delete this
  28:Generated_Source\PSoC5/ErikaOS_1_cortex_mx_ee_irq_cng_cont.inc ****  * exception statement from your version.
  29:Generated_Source\PSoC5/ErikaOS_1_cortex_mx_ee_irq_cng_cont.inc ****  *
  30:Generated_Source\PSoC5/ErikaOS_1_cortex_mx_ee_irq_cng_cont.inc ****  * ERIKA Enterprise is distributed in the hope that it will be
  31:Generated_Source\PSoC5/ErikaOS_1_cortex_mx_ee_irq_cng_cont.inc ****  * useful, but WITHOUT ANY WARRANTY; without even the implied warranty
  32:Generated_Source\PSoC5/ErikaOS_1_cortex_mx_ee_irq_cng_cont.inc ****  * of MERCHANTABILITY or FITNESS FOR A PARTICULAR PURPOSE.  See the
  33:Generated_Source\PSoC5/ErikaOS_1_cortex_mx_ee_irq_cng_cont.inc ****  * GNU General Public License version 2 for more details.
  34:Generated_Source\PSoC5/ErikaOS_1_cortex_mx_ee_irq_cng_cont.inc ****  *
  35:Generated_Source\PSoC5/ErikaOS_1_cortex_mx_ee_irq_cng_cont.inc ****  * You should have received a copy of the GNU General Public License
  36:Generated_Source\PSoC5/ErikaOS_1_cortex_mx_ee_irq_cng_cont.inc ****  * version 2 along with ERIKA Enterprise; if not, write to the
  37:Generated_Source\PSoC5/ErikaOS_1_cortex_mx_ee_irq_cng_cont.inc ****  * Free Software Foundation, Inc., 51 Franklin Street, Fifth Floor,
  38:Generated_Source\PSoC5/ErikaOS_1_cortex_mx_ee_irq_cng_cont.inc ****  * Boston, MA 02110-1301 USA.
  39:Generated_Source\PSoC5/ErikaOS_1_cortex_mx_ee_irq_cng_cont.inc ****  * ###*E*### */
  40:Generated_Source\PSoC5/ErikaOS_1_cortex_mx_ee_irq_cng_cont.inc **** 
  41:Generated_Source\PSoC5/ErikaOS_1_cortex_mx_ee_irq_cng_cont.inc ****  /** 
  42:Generated_Source\PSoC5/ErikaOS_1_cortex_mx_ee_irq_cng_cont.inc **** 	
  43:Generated_Source\PSoC5/ErikaOS_1_cortex_mx_ee_irq_cng_cont.inc **** 	@file	ee_irq_cng_cont.h
  44:Generated_Source\PSoC5/ErikaOS_1_cortex_mx_ee_irq_cng_cont.inc **** 	@brief	Function active the context change interrupt
  45:Generated_Source\PSoC5/ErikaOS_1_cortex_mx_ee_irq_cng_cont.inc **** 	@author	Gianluca Franchino
  46:Generated_Source\PSoC5/ErikaOS_1_cortex_mx_ee_irq_cng_cont.inc **** 	@author	Giuseppe Serano
  47:Generated_Source\PSoC5/ErikaOS_1_cortex_mx_ee_irq_cng_cont.inc **** 	@date	2012
  48:Generated_Source\PSoC5/ErikaOS_1_cortex_mx_ee_irq_cng_cont.inc **** */ 
  49:Generated_Source\PSoC5/ErikaOS_1_cortex_mx_ee_irq_cng_cont.inc ****     
  50:Generated_Source\PSoC5/ErikaOS_1_cortex_mx_ee_irq_cng_cont.inc **** /*
  51:Generated_Source\PSoC5/ErikaOS_1_cortex_mx_ee_irq_cng_cont.inc ****  * PSoC Port and API Generation
  52:Generated_Source\PSoC5/ErikaOS_1_cortex_mx_ee_irq_cng_cont.inc ****  * Carlos Fernando Meier Martinez
  53:Generated_Source\PSoC5/ErikaOS_1_cortex_mx_ee_irq_cng_cont.inc ****  * Hochschule Darmstadt, Germany. 2017.
  54:Generated_Source\PSoC5/ErikaOS_1_cortex_mx_ee_irq_cng_cont.inc ****  */
  55:Generated_Source\PSoC5/ErikaOS_1_cortex_mx_ee_irq_cng_cont.inc **** 
  56:Generated_Source\PSoC5/ErikaOS_1_cortex_mx_ee_irq_cng_cont.inc **** #ifndef __INCLUDE_CORTEX_MX_IRQ_CNG_CONTEXT_H__
  57:Generated_Source\PSoC5/ErikaOS_1_cortex_mx_ee_irq_cng_cont.inc **** #define __INCLUDE_CORTEX_MX_IRQ_CNG_CONTEXT_H__
  58:Generated_Source\PSoC5/ErikaOS_1_cortex_mx_ee_irq_cng_cont.inc **** 
  59:Generated_Source\PSoC5/ErikaOS_1_cortex_mx_ee_irq_cng_cont.inc **** #ifdef __GNU__
  60:Generated_Source\PSoC5/ErikaOS_1_cortex_mx_ee_irq_cng_cont.inc **** #include "ErikaOS_1_common_ee_compiler_gcc.inc"
  61:Generated_Source\PSoC5/ErikaOS_1_cortex_mx_ee_irq_cng_cont.inc **** #endif
  62:Generated_Source\PSoC5/ErikaOS_1_cortex_mx_ee_irq_cng_cont.inc **** 
  63:Generated_Source\PSoC5/ErikaOS_1_cortex_mx_ee_irq_cng_cont.inc **** /* Implemented in ee_<compiler>_change_context_isr.s */
  64:Generated_Source\PSoC5/ErikaOS_1_cortex_mx_ee_irq_cng_cont.inc **** extern void EE_switch_context(void);
  65:Generated_Source\PSoC5/ErikaOS_1_cortex_mx_ee_irq_cng_cont.inc **** 
  66:Generated_Source\PSoC5/ErikaOS_1_cortex_mx_ee_irq_cng_cont.inc **** __INLINE__ void  EE_cortex_mx_IRQ_active_change_context(void)
  67:Generated_Source\PSoC5/ErikaOS_1_cortex_mx_ee_irq_cng_cont.inc **** {
  68:Generated_Source\PSoC5/ErikaOS_1_cortex_mx_ee_irq_cng_cont.inc **** 	EE_switch_context();
 247              		.loc 4 68 0 is_stmt 1 discriminator 4
 248 0046 FFF7FEFF 		bl	EE_switch_context
 249              	.LVL19:
 250              	.L11:
ARM GAS  C:\Users\Reza\AppData\Local\Temp\ccJx7wfd.s 			page 16


 251              	.LBE89:
 252              	.LBE88:
 253              	.LBB90:
 254              	.LBB91:
 191:Generated_Source\PSoC5/ErikaOS_1_cortex_mx_ee_cpu.inc **** #endif	/* !__KEIL__ */
 255              		.loc 1 191 0 discriminator 6
 256              		.syntax unified
 257              	@ 191 "Generated_Source\PSoC5/ErikaOS_1_cortex_mx_ee_cpu.inc" 1
 258 004a 62B6     		cpsie i
 259              	@ 0 "" 2
 260              		.thumb
 261              		.syntax unified
 262              	.LBE91:
 263              	.LBE90:
  22:source\asw/main.c **** {
 264              		.loc 2 22 0 discriminator 6
 265 004c BDE83140 		pop	{r0, r4, r5, lr}
 266              		.cfi_restore 14
 267              		.cfi_restore 5
 268              		.cfi_restore 4
 269              		.cfi_restore 0
 270              		.cfi_def_cfa_offset 0
 271 0050 8546     		mov	sp, r0
 272 0052 7047     		bx	lr
 273              	.L13:
 274              		.align	2
 275              	.L12:
 276 0054 00000000 		.word	EE_IRQ_nesting_level
 277              		.cfi_endproc
 278              	.LFE110:
 279              		.size	systick_handler, .-systick_handler
 280              		.section	.text.startup.main,"ax",%progbits
 281              		.align	1
 282              		.global	main
 283              		.thumb
 284              		.thumb_func
 285              		.type	main, %function
 286              	main:
 287              	.LFB112:
  25:source\asw/main.c **** }
  26:source\asw/main.c **** 
  27:source\asw/main.c **** int main()
  28:source\asw/main.c **** {
 288              		.loc 2 28 0
 289              		.cfi_startproc
 290              		@ Volatile: function does not return.
 291              		@ args = 0, pretend = 0, frame = 0
 292              		@ frame_needed = 0, uses_anonymous_args = 0
 293 0000 08B5     		push	{r3, lr}
 294              		.cfi_def_cfa_offset 8
 295              		.cfi_offset 3, -8
 296              		.cfi_offset 14, -4
  29:source\asw/main.c ****     CyGlobalIntEnable; /* Enable global interrupts. */
 297              		.loc 2 29 0
 298              		.syntax unified
 299              	@ 29 "source\asw\main.c" 1
 300 0002 62B6     		CPSIE   i
ARM GAS  C:\Users\Reza\AppData\Local\Temp\ccJx7wfd.s 			page 17


 301              	@ 0 "" 2
 302              	.LVL20:
 303              		.thumb
 304              		.syntax unified
 305              	.LBB98:
 306              	.LBB99:
 307              		.file 5 "Generated_Source\\PSoC5/ErikaOS_1_cortex_mx_ee_systick.inc"
   1:Generated_Source\PSoC5/ErikaOS_1_cortex_mx_ee_systick.inc **** /* ###*B*###
   2:Generated_Source\PSoC5/ErikaOS_1_cortex_mx_ee_systick.inc ****  * ERIKA Enterprise - a tiny RTOS for small microcontrollers
   3:Generated_Source\PSoC5/ErikaOS_1_cortex_mx_ee_systick.inc ****  *
   4:Generated_Source\PSoC5/ErikaOS_1_cortex_mx_ee_systick.inc ****  * Copyright (C) 2002-2012  Evidence Srl
   5:Generated_Source\PSoC5/ErikaOS_1_cortex_mx_ee_systick.inc ****  *
   6:Generated_Source\PSoC5/ErikaOS_1_cortex_mx_ee_systick.inc ****  * This file is part of ERIKA Enterprise.
   7:Generated_Source\PSoC5/ErikaOS_1_cortex_mx_ee_systick.inc ****  *
   8:Generated_Source\PSoC5/ErikaOS_1_cortex_mx_ee_systick.inc ****  * ERIKA Enterprise is free software; you can redistribute it
   9:Generated_Source\PSoC5/ErikaOS_1_cortex_mx_ee_systick.inc ****  * and/or modify it under the terms of the GNU General Public License
  10:Generated_Source\PSoC5/ErikaOS_1_cortex_mx_ee_systick.inc ****  * version 2 as published by the Free Software Foundation,
  11:Generated_Source\PSoC5/ErikaOS_1_cortex_mx_ee_systick.inc ****  * (with a special exception described below).
  12:Generated_Source\PSoC5/ErikaOS_1_cortex_mx_ee_systick.inc ****  *
  13:Generated_Source\PSoC5/ErikaOS_1_cortex_mx_ee_systick.inc ****  * Linking this code statically or dynamically with other modules is
  14:Generated_Source\PSoC5/ErikaOS_1_cortex_mx_ee_systick.inc ****  * making a combined work based on this code.  Thus, the terms and
  15:Generated_Source\PSoC5/ErikaOS_1_cortex_mx_ee_systick.inc ****  * conditions of the GNU General Public License cover the whole
  16:Generated_Source\PSoC5/ErikaOS_1_cortex_mx_ee_systick.inc ****  * combination.
  17:Generated_Source\PSoC5/ErikaOS_1_cortex_mx_ee_systick.inc ****  *
  18:Generated_Source\PSoC5/ErikaOS_1_cortex_mx_ee_systick.inc ****  * As a special exception, the copyright holders of this library give you
  19:Generated_Source\PSoC5/ErikaOS_1_cortex_mx_ee_systick.inc ****  * permission to link this code with independent modules to produce an
  20:Generated_Source\PSoC5/ErikaOS_1_cortex_mx_ee_systick.inc ****  * executable, regardless of the license terms of these independent
  21:Generated_Source\PSoC5/ErikaOS_1_cortex_mx_ee_systick.inc ****  * modules, and to copy and distribute the resulting executable under
  22:Generated_Source\PSoC5/ErikaOS_1_cortex_mx_ee_systick.inc ****  * terms of your choice, provided that you also meet, for each linked
  23:Generated_Source\PSoC5/ErikaOS_1_cortex_mx_ee_systick.inc ****  * independent module, the terms and conditions of the license of that
  24:Generated_Source\PSoC5/ErikaOS_1_cortex_mx_ee_systick.inc ****  * module.  An independent module is a module which is not derived from
  25:Generated_Source\PSoC5/ErikaOS_1_cortex_mx_ee_systick.inc ****  * or based on this library.  If you modify this code, you may extend
  26:Generated_Source\PSoC5/ErikaOS_1_cortex_mx_ee_systick.inc ****  * this exception to your version of the code, but you are not
  27:Generated_Source\PSoC5/ErikaOS_1_cortex_mx_ee_systick.inc ****  * obligated to do so.  If you do not wish to do so, delete this
  28:Generated_Source\PSoC5/ErikaOS_1_cortex_mx_ee_systick.inc ****  * exception statement from your version.
  29:Generated_Source\PSoC5/ErikaOS_1_cortex_mx_ee_systick.inc ****  *
  30:Generated_Source\PSoC5/ErikaOS_1_cortex_mx_ee_systick.inc ****  * ERIKA Enterprise is distributed in the hope that it will be
  31:Generated_Source\PSoC5/ErikaOS_1_cortex_mx_ee_systick.inc ****  * useful, but WITHOUT ANY WARRANTY; without even the implied warranty
  32:Generated_Source\PSoC5/ErikaOS_1_cortex_mx_ee_systick.inc ****  * of MERCHANTABILITY or FITNESS FOR A PARTICULAR PURPOSE.  See the
  33:Generated_Source\PSoC5/ErikaOS_1_cortex_mx_ee_systick.inc ****  * GNU General Public License version 2 for more details.
  34:Generated_Source\PSoC5/ErikaOS_1_cortex_mx_ee_systick.inc ****  *
  35:Generated_Source\PSoC5/ErikaOS_1_cortex_mx_ee_systick.inc ****  * You should have received a copy of the GNU General Public License
  36:Generated_Source\PSoC5/ErikaOS_1_cortex_mx_ee_systick.inc ****  * version 2 along with ERIKA Enterprise; if not, write to the
  37:Generated_Source\PSoC5/ErikaOS_1_cortex_mx_ee_systick.inc ****  * Free Software Foundation, Inc., 51 Franklin Street, Fifth Floor,
  38:Generated_Source\PSoC5/ErikaOS_1_cortex_mx_ee_systick.inc ****  * Boston, MA 02110-1301 USA.
  39:Generated_Source\PSoC5/ErikaOS_1_cortex_mx_ee_systick.inc ****  * ###*E*### */
  40:Generated_Source\PSoC5/ErikaOS_1_cortex_mx_ee_systick.inc **** 
  41:Generated_Source\PSoC5/ErikaOS_1_cortex_mx_ee_systick.inc **** /**
  42:Generated_Source\PSoC5/ErikaOS_1_cortex_mx_ee_systick.inc ****     @file	ee_systick.h
  43:Generated_Source\PSoC5/ErikaOS_1_cortex_mx_ee_systick.inc ****     @brief	SysTick system timer driver header file.
  44:Generated_Source\PSoC5/ErikaOS_1_cortex_mx_ee_systick.inc ****     @author	Giuseppe Serano
  45:Generated_Source\PSoC5/ErikaOS_1_cortex_mx_ee_systick.inc ****     @date	2012
  46:Generated_Source\PSoC5/ErikaOS_1_cortex_mx_ee_systick.inc **** 
  47:Generated_Source\PSoC5/ErikaOS_1_cortex_mx_ee_systick.inc **** **/
  48:Generated_Source\PSoC5/ErikaOS_1_cortex_mx_ee_systick.inc **** 
  49:Generated_Source\PSoC5/ErikaOS_1_cortex_mx_ee_systick.inc **** /*
  50:Generated_Source\PSoC5/ErikaOS_1_cortex_mx_ee_systick.inc ****  * PSoC Port and API Generation
ARM GAS  C:\Users\Reza\AppData\Local\Temp\ccJx7wfd.s 			page 18


  51:Generated_Source\PSoC5/ErikaOS_1_cortex_mx_ee_systick.inc ****  * Carlos Fernando Meier Martinez
  52:Generated_Source\PSoC5/ErikaOS_1_cortex_mx_ee_systick.inc ****  * Hochschule Darmstadt, Germany. 2017.
  53:Generated_Source\PSoC5/ErikaOS_1_cortex_mx_ee_systick.inc ****  */
  54:Generated_Source\PSoC5/ErikaOS_1_cortex_mx_ee_systick.inc **** 
  55:Generated_Source\PSoC5/ErikaOS_1_cortex_mx_ee_systick.inc **** #ifndef	__INCLUDE_CORTEX_MX_SYSTICK_H__
  56:Generated_Source\PSoC5/ErikaOS_1_cortex_mx_ee_systick.inc **** #define	__INCLUDE_CORTEX_MX_SYSTICK_H__
  57:Generated_Source\PSoC5/ErikaOS_1_cortex_mx_ee_systick.inc **** 
  58:Generated_Source\PSoC5/ErikaOS_1_cortex_mx_ee_systick.inc **** #ifdef	__USE_SYSTICK__
  59:Generated_Source\PSoC5/ErikaOS_1_cortex_mx_ee_systick.inc **** 
  60:Generated_Source\PSoC5/ErikaOS_1_cortex_mx_ee_systick.inc **** /** error value. No errors happened **/
  61:Generated_Source\PSoC5/ErikaOS_1_cortex_mx_ee_systick.inc **** #define	EE_SYSTICK_NO_ERRORS	0
  62:Generated_Source\PSoC5/ErikaOS_1_cortex_mx_ee_systick.inc **** /** error value. Wrong funtion arguments values **/
  63:Generated_Source\PSoC5/ErikaOS_1_cortex_mx_ee_systick.inc **** #define	EE_SYSTICK_ERR_BAD_ARGS	1
  64:Generated_Source\PSoC5/ErikaOS_1_cortex_mx_ee_systick.inc **** 
  65:Generated_Source\PSoC5/ErikaOS_1_cortex_mx_ee_systick.inc **** /**
  66:Generated_Source\PSoC5/ErikaOS_1_cortex_mx_ee_systick.inc ****     @brief Start SysTick.
  67:Generated_Source\PSoC5/ErikaOS_1_cortex_mx_ee_systick.inc **** 
  68:Generated_Source\PSoC5/ErikaOS_1_cortex_mx_ee_systick.inc ****     This will start the SysTick counter.  If an ISR has been defined, it is
  69:Generated_Source\PSoC5/ErikaOS_1_cortex_mx_ee_systick.inc ****     called when the SysTick counter rolls over.
  70:Generated_Source\PSoC5/ErikaOS_1_cortex_mx_ee_systick.inc **** 
  71:Generated_Source\PSoC5/ErikaOS_1_cortex_mx_ee_systick.inc ****     @note Calling this function will cause the SysTick counter to (re)commence
  72:Generated_Source\PSoC5/ErikaOS_1_cortex_mx_ee_systick.inc ****     counting from its current value.  The counter is not automatically reloaded
  73:Generated_Source\PSoC5/ErikaOS_1_cortex_mx_ee_systick.inc ****     with the period as specified in a previous call to EE_systick_set_period().
  74:Generated_Source\PSoC5/ErikaOS_1_cortex_mx_ee_systick.inc ****     If an immediate reload is required, the \b NVIC_ST_CURRENT register must be
  75:Generated_Source\PSoC5/ErikaOS_1_cortex_mx_ee_systick.inc ****     written to force this.  Any write to this register clears the SysTick
  76:Generated_Source\PSoC5/ErikaOS_1_cortex_mx_ee_systick.inc ****     counter to 0 and will cause a reload with the supplied period on the next
  77:Generated_Source\PSoC5/ErikaOS_1_cortex_mx_ee_systick.inc ****     clock.
  78:Generated_Source\PSoC5/ErikaOS_1_cortex_mx_ee_systick.inc ****  */
  79:Generated_Source\PSoC5/ErikaOS_1_cortex_mx_ee_systick.inc **** __INLINE__ void  EE_systick_start(void)
  80:Generated_Source\PSoC5/ErikaOS_1_cortex_mx_ee_systick.inc **** {
  81:Generated_Source\PSoC5/ErikaOS_1_cortex_mx_ee_systick.inc ****   NVIC_ST_CTRL_R |= NVIC_ST_CTRL_CLK_SRC | NVIC_ST_CTRL_ENABLE;
  82:Generated_Source\PSoC5/ErikaOS_1_cortex_mx_ee_systick.inc **** }
  83:Generated_Source\PSoC5/ErikaOS_1_cortex_mx_ee_systick.inc **** 
  84:Generated_Source\PSoC5/ErikaOS_1_cortex_mx_ee_systick.inc **** /**
  85:Generated_Source\PSoC5/ErikaOS_1_cortex_mx_ee_systick.inc ****     @brief Stop SysTick.
  86:Generated_Source\PSoC5/ErikaOS_1_cortex_mx_ee_systick.inc **** 
  87:Generated_Source\PSoC5/ErikaOS_1_cortex_mx_ee_systick.inc ****     This will stop the SysTick counter.  If an ISR has been defined, it will
  88:Generated_Source\PSoC5/ErikaOS_1_cortex_mx_ee_systick.inc ****     no longer be called until SysTick is restarted.
  89:Generated_Source\PSoC5/ErikaOS_1_cortex_mx_ee_systick.inc **** */
  90:Generated_Source\PSoC5/ErikaOS_1_cortex_mx_ee_systick.inc **** __INLINE__ void  EE_systick_stop(void)
  91:Generated_Source\PSoC5/ErikaOS_1_cortex_mx_ee_systick.inc **** {
  92:Generated_Source\PSoC5/ErikaOS_1_cortex_mx_ee_systick.inc ****   NVIC_ST_CTRL_R &= ~(NVIC_ST_CTRL_ENABLE);
  93:Generated_Source\PSoC5/ErikaOS_1_cortex_mx_ee_systick.inc **** }
  94:Generated_Source\PSoC5/ErikaOS_1_cortex_mx_ee_systick.inc **** 
  95:Generated_Source\PSoC5/ErikaOS_1_cortex_mx_ee_systick.inc **** /**
  96:Generated_Source\PSoC5/ErikaOS_1_cortex_mx_ee_systick.inc ****     @brief Enables the SysTick interrupt.
  97:Generated_Source\PSoC5/ErikaOS_1_cortex_mx_ee_systick.inc **** 
  98:Generated_Source\PSoC5/ErikaOS_1_cortex_mx_ee_systick.inc ****     This function will enable the SysTick interrupt, allowing it to be
  99:Generated_Source\PSoC5/ErikaOS_1_cortex_mx_ee_systick.inc ****     reflected to the processor.
 100:Generated_Source\PSoC5/ErikaOS_1_cortex_mx_ee_systick.inc **** 
 101:Generated_Source\PSoC5/ErikaOS_1_cortex_mx_ee_systick.inc ****     @note The SysTick ISR does not need to clear the SysTick interrupt source as
 102:Generated_Source\PSoC5/ErikaOS_1_cortex_mx_ee_systick.inc ****     this is done automatically by NVIC when the interrupt ISR is called.
 103:Generated_Source\PSoC5/ErikaOS_1_cortex_mx_ee_systick.inc ****  */
 104:Generated_Source\PSoC5/ErikaOS_1_cortex_mx_ee_systick.inc **** __INLINE__ void  EE_systick_enable_int()
 105:Generated_Source\PSoC5/ErikaOS_1_cortex_mx_ee_systick.inc **** {
 106:Generated_Source\PSoC5/ErikaOS_1_cortex_mx_ee_systick.inc ****   NVIC_ST_CTRL_R |= NVIC_ST_CTRL_INTEN;
 107:Generated_Source\PSoC5/ErikaOS_1_cortex_mx_ee_systick.inc **** }
ARM GAS  C:\Users\Reza\AppData\Local\Temp\ccJx7wfd.s 			page 19


 108:Generated_Source\PSoC5/ErikaOS_1_cortex_mx_ee_systick.inc **** 
 109:Generated_Source\PSoC5/ErikaOS_1_cortex_mx_ee_systick.inc **** /**
 110:Generated_Source\PSoC5/ErikaOS_1_cortex_mx_ee_systick.inc ****     @brief Disables the SysTick interrupt.
 111:Generated_Source\PSoC5/ErikaOS_1_cortex_mx_ee_systick.inc **** 
 112:Generated_Source\PSoC5/ErikaOS_1_cortex_mx_ee_systick.inc ****     This function will disable the SysTick interrupt, preventing it from being
 113:Generated_Source\PSoC5/ErikaOS_1_cortex_mx_ee_systick.inc ****     reflected to the processor.
 114:Generated_Source\PSoC5/ErikaOS_1_cortex_mx_ee_systick.inc ****  */
 115:Generated_Source\PSoC5/ErikaOS_1_cortex_mx_ee_systick.inc **** __INLINE__ void  EE_systick_disable_int()
 116:Generated_Source\PSoC5/ErikaOS_1_cortex_mx_ee_systick.inc **** {
 117:Generated_Source\PSoC5/ErikaOS_1_cortex_mx_ee_systick.inc ****   NVIC_ST_CTRL_R &= ~(NVIC_ST_CTRL_INTEN);
 118:Generated_Source\PSoC5/ErikaOS_1_cortex_mx_ee_systick.inc **** }
 119:Generated_Source\PSoC5/ErikaOS_1_cortex_mx_ee_systick.inc **** 
 120:Generated_Source\PSoC5/ErikaOS_1_cortex_mx_ee_systick.inc **** /**
 121:Generated_Source\PSoC5/ErikaOS_1_cortex_mx_ee_systick.inc ****     @brief Sets the period of the SysTick counter.
 122:Generated_Source\PSoC5/ErikaOS_1_cortex_mx_ee_systick.inc **** 
 123:Generated_Source\PSoC5/ErikaOS_1_cortex_mx_ee_systick.inc ****     @param period is the number of clock ticks in each period of the SysTick
 124:Generated_Source\PSoC5/ErikaOS_1_cortex_mx_ee_systick.inc ****     counter; must be between 1 and 16,777,216, inclusive. If the \e period is
 125:Generated_Source\PSoC5/ErikaOS_1_cortex_mx_ee_systick.inc ****     out of range the function returns \b EE_SYSTICK_ERR_BAD_ARGS, else it will
 126:Generated_Source\PSoC5/ErikaOS_1_cortex_mx_ee_systick.inc ****     returns \b EE_SYSTICK_NO_ERRORS.
 127:Generated_Source\PSoC5/ErikaOS_1_cortex_mx_ee_systick.inc **** 
 128:Generated_Source\PSoC5/ErikaOS_1_cortex_mx_ee_systick.inc ****     This function sets the rate at which the SysTick counter wraps; this
 129:Generated_Source\PSoC5/ErikaOS_1_cortex_mx_ee_systick.inc ****     equates to the number of processor clocks between interrupts.
 130:Generated_Source\PSoC5/ErikaOS_1_cortex_mx_ee_systick.inc **** 
 131:Generated_Source\PSoC5/ErikaOS_1_cortex_mx_ee_systick.inc ****     @note Calling this function does not cause the SysTick counter to reload
 132:Generated_Source\PSoC5/ErikaOS_1_cortex_mx_ee_systick.inc ****     immediately.  If an immediate reload is required, the \b NVIC_ST_CURRENT
 133:Generated_Source\PSoC5/ErikaOS_1_cortex_mx_ee_systick.inc ****     register must be written.  Any write to this register clears the SysTick
 134:Generated_Source\PSoC5/ErikaOS_1_cortex_mx_ee_systick.inc ****     counter to 0 and will cause a reload with the \e period supplied here on
 135:Generated_Source\PSoC5/ErikaOS_1_cortex_mx_ee_systick.inc ****     the next clock after the SysTick is enabled.
 136:Generated_Source\PSoC5/ErikaOS_1_cortex_mx_ee_systick.inc ****  */
 137:Generated_Source\PSoC5/ErikaOS_1_cortex_mx_ee_systick.inc **** __INLINE__ EE_UREG  EE_systick_set_period(EE_UREG period)
 138:Generated_Source\PSoC5/ErikaOS_1_cortex_mx_ee_systick.inc **** {
 139:Generated_Source\PSoC5/ErikaOS_1_cortex_mx_ee_systick.inc ****   if ((period == NVIC_ST_RELOAD_S) || (period > NVIC_ST_RELOAD_M))
 140:Generated_Source\PSoC5/ErikaOS_1_cortex_mx_ee_systick.inc ****     return EE_SYSTICK_ERR_BAD_ARGS;
 141:Generated_Source\PSoC5/ErikaOS_1_cortex_mx_ee_systick.inc **** 
 142:Generated_Source\PSoC5/ErikaOS_1_cortex_mx_ee_systick.inc ****   NVIC_ST_RELOAD_R = period - 1;
 308              		.loc 5 142 0
 309 0004 45F6BF52 		movw	r2, #23999
 310 0008 094B     		ldr	r3, .L16
 311              	.LBE99:
 312              	.LBE98:
  30:source\asw/main.c ****    
  31:source\asw/main.c ****     //Set systick period to 1 ms. Enable the INT and start it.
  32:source\asw/main.c **** 	EE_systick_set_period(MILLISECONDS_TO_TICKS(1, BCLK__BUS_CLK__HZ));
  33:source\asw/main.c **** 	EE_systick_enable_int();
  34:source\asw/main.c **** 	EE_systick_start();
  35:source\asw/main.c ****    
  36:source\asw/main.c ****     // Start Operating System
  37:source\asw/main.c ****     StartOS(OSDEFAULTAPPMODE);
 313              		.loc 2 37 0
 314 000a 0020     		movs	r0, #0
 315              	.LBB101:
 316              	.LBB100:
 317              		.loc 5 142 0
 318 000c 1A60     		str	r2, [r3]
 319              	.LVL21:
 320              	.LBE100:
 321              	.LBE101:
ARM GAS  C:\Users\Reza\AppData\Local\Temp\ccJx7wfd.s 			page 20


 322              	.LBB102:
 323              	.LBB103:
 106:Generated_Source\PSoC5/ErikaOS_1_cortex_mx_ee_systick.inc **** }
 324              		.loc 5 106 0
 325 000e 53F8042C 		ldr	r2, [r3, #-4]
 326 0012 42F00202 		orr	r2, r2, #2
 327 0016 43F8042C 		str	r2, [r3, #-4]
 328              	.LBE103:
 329              	.LBE102:
 330              	.LBB104:
 331              	.LBB105:
  81:Generated_Source\PSoC5/ErikaOS_1_cortex_mx_ee_systick.inc **** }
 332              		.loc 5 81 0
 333 001a 53F8042C 		ldr	r2, [r3, #-4]
 334 001e 42F00502 		orr	r2, r2, #5
 335 0022 43F8042C 		str	r2, [r3, #-4]
 336              	.LBE105:
 337              	.LBE104:
 338              		.loc 2 37 0
 339 0026 FFF7FEFF 		bl	EE_oo_StartOS
 340              	.LVL22:
 341              	.L15:
  38:source\asw/main.c ****     for(;;)
  39:source\asw/main.c ****     {
  40:source\asw/main.c ****         asm("bkpt");   
 342              		.loc 2 40 0 discriminator 1
 343              		.syntax unified
 344              	@ 40 "source\asw\main.c" 1
 345 002a 00BE     		bkpt
 346              	@ 0 "" 2
 347              		.thumb
 348              		.syntax unified
 349 002c FDE7     		b	.L15
 350              	.L17:
 351 002e 00BF     		.align	2
 352              	.L16:
 353 0030 14E000E0 		.word	-536813548
 354              		.cfi_endproc
 355              	.LFE112:
 356              		.size	main, .-main
 357              		.section	.text.unhandledException,"ax",%progbits
 358              		.align	1
 359              		.global	unhandledException
 360              		.thumb
 361              		.thumb_func
 362              		.type	unhandledException, %function
 363              	unhandledException:
 364              	.LFB113:
  41:source\asw/main.c ****     }
  42:source\asw/main.c **** 
  43:source\asw/main.c **** }
  44:source\asw/main.c **** 
  45:source\asw/main.c **** void unhandledException()
  46:source\asw/main.c **** {
 365              		.loc 2 46 0
 366              		.cfi_startproc
 367              		@ args = 0, pretend = 0, frame = 0
ARM GAS  C:\Users\Reza\AppData\Local\Temp\ccJx7wfd.s 			page 21


 368              		@ frame_needed = 0, uses_anonymous_args = 0
 369              		@ link register save eliminated.
  47:source\asw/main.c ****     //Ooops, something terrible happened....check the call stack to see how we got here...
  48:source\asw/main.c ****     asm("bkpt");
 370              		.loc 2 48 0
 371              		.syntax unified
 372              	@ 48 "source\asw\main.c" 1
 373 0000 00BE     		bkpt
 374              	@ 0 "" 2
 375              		.thumb
 376              		.syntax unified
 377 0002 7047     		bx	lr
 378              		.cfi_endproc
 379              	.LFE113:
 380              		.size	unhandledException, .-unhandledException
 381              		.section	.text.Functsk_Init,"ax",%progbits
 382              		.align	1
 383              		.global	Functsk_Init
 384              		.thumb
 385              		.thumb_func
 386              		.type	Functsk_Init, %function
 387              	Functsk_Init:
 388              	.LFB114:
  49:source\asw/main.c **** }
  50:source\asw/main.c **** 
  51:source\asw/main.c **** /********************************************************************************
  52:source\asw/main.c ****  * Task Definitions
  53:source\asw/main.c ****  ********************************************************************************/
  54:source\asw/main.c **** 
  55:source\asw/main.c **** TASK(tsk_Init)
  56:source\asw/main.c **** {
 389              		.loc 2 56 0
 390              		.cfi_startproc
 391              		@ args = 0, pretend = 0, frame = 0
 392              		@ frame_needed = 0, uses_anonymous_args = 0
 393 0000 08B5     		push	{r3, lr}
 394              		.cfi_def_cfa_offset 8
 395              		.cfi_offset 3, -8
 396              		.cfi_offset 14, -4
  57:source\asw/main.c ****     
  58:source\asw/main.c ****     //Init MCAL Drivers
  59:source\asw/main.c ****     LED_Init();
 397              		.loc 2 59 0
 398 0002 FFF7FEFF 		bl	LED_Init
 399              	.LVL23:
  60:source\asw/main.c ****     SEVEN_Init();
 400              		.loc 2 60 0
 401 0006 FFF7FEFF 		bl	SEVEN_Init
 402              	.LVL24:
  61:source\asw/main.c ****     
  62:source\asw/main.c ****     //Init Complex Drivers and Applications
  63:source\asw/main.c ****     BLINKER_Init(&BLINKER_left, BLINKER_LEFT);
 403              		.loc 2 63 0
 404 000a 0121     		movs	r1, #1
 405 000c 0E48     		ldr	r0, .L20
 406 000e FFF7FEFF 		bl	BLINKER_Init
 407              	.LVL25:
ARM GAS  C:\Users\Reza\AppData\Local\Temp\ccJx7wfd.s 			page 22


  64:source\asw/main.c ****     BLINKER_Init(&BLINKER_right, BLINKER_RIGHT);
 408              		.loc 2 64 0
 409 0012 0021     		movs	r1, #0
 410 0014 0D48     		ldr	r0, .L20+4
 411 0016 FFF7FEFF 		bl	BLINKER_Init
 412              	.LVL26:
  65:source\asw/main.c ****     
  66:source\asw/main.c ****     //Reconfigure ISRs with OS parameters.
  67:source\asw/main.c ****     //This line MUST be called after the hardware driver initialisation!
  68:source\asw/main.c ****     EE_system_init();
 413              		.loc 2 68 0
 414 001a FFF7FEFF 		bl	EE_system_init
 415              	.LVL27:
  69:source\asw/main.c ****     
  70:source\asw/main.c ****     //Start the alarm with 100ms cycle time
  71:source\asw/main.c ****     SetRelAlarm(alrm_100ms,100,100);
 416              		.loc 2 71 0
 417 001e 6422     		movs	r2, #100
 418 0020 1146     		mov	r1, r2
 419 0022 0020     		movs	r0, #0
 420 0024 FFF7FEFF 		bl	EE_oo_SetRelAlarm
 421              	.LVL28:
  72:source\asw/main.c ****     SetRelAlarm(alrm_500ms,500,500);
 422              		.loc 2 72 0
 423 0028 4FF4FA72 		mov	r2, #500
 424 002c 1146     		mov	r1, r2
 425 002e 0120     		movs	r0, #1
 426 0030 FFF7FEFF 		bl	EE_oo_SetRelAlarm
 427              	.LVL29:
  73:source\asw/main.c ****     
  74:source\asw/main.c ****     
  75:source\asw/main.c ****     //Activate the remaining tasks
  76:source\asw/main.c ****     ActivateTask(tsk_Control);
 428              		.loc 2 76 0
 429 0034 0120     		movs	r0, #1
 430 0036 FFF7FEFF 		bl	EE_oo_ActivateTask
 431              	.LVL30:
  77:source\asw/main.c ****     ActivateTask(tsk_Background);
 432              		.loc 2 77 0
 433 003a 0220     		movs	r0, #2
 434 003c FFF7FEFF 		bl	EE_oo_ActivateTask
 435              	.LVL31:
  78:source\asw/main.c ****     
  79:source\asw/main.c ****     TerminateTask();
  80:source\asw/main.c ****     
  81:source\asw/main.c **** }
 436              		.loc 2 81 0
 437 0040 BDE80840 		pop	{r3, lr}
 438              		.cfi_restore 14
 439              		.cfi_restore 3
 440              		.cfi_def_cfa_offset 0
  79:source\asw/main.c ****     
 441              		.loc 2 79 0
 442 0044 FFF7FEBF 		b	EE_oo_TerminateTask
 443              	.LVL32:
 444              	.L21:
 445              		.align	2
ARM GAS  C:\Users\Reza\AppData\Local\Temp\ccJx7wfd.s 			page 23


 446              	.L20:
 447 0048 00000000 		.word	BLINKER_left
 448 004c 00000000 		.word	BLINKER_right
 449              		.cfi_endproc
 450              	.LFE114:
 451              		.size	Functsk_Init, .-Functsk_Init
 452              		.section	.text.Functsk_Control,"ax",%progbits
 453              		.align	1
 454              		.global	Functsk_Control
 455              		.thumb
 456              		.thumb_func
 457              		.type	Functsk_Control, %function
 458              	Functsk_Control:
 459              	.LFB115:
  82:source\asw/main.c **** 
  83:source\asw/main.c **** 
  84:source\asw/main.c **** 
  85:source\asw/main.c **** /**
  86:source\asw/main.c ****  * This task will c heck the input and based on this, "control" the output
  87:source\asw/main.c ****  */
  88:source\asw/main.c **** 
  89:source\asw/main.c **** TASK(tsk_Control)
  90:source\asw/main.c **** {
 460              		.loc 2 90 0
 461              		.cfi_startproc
 462              		@ args = 0, pretend = 0, frame = 8
 463              		@ frame_needed = 0, uses_anonymous_args = 0
 464 0000 07B5     		push	{r0, r1, r2, lr}
 465              		.cfi_def_cfa_offset 16
 466              		.cfi_offset 14, -4
  91:source\asw/main.c ****     
  92:source\asw/main.c ****     EventMaskType ev = 0;
 467              		.loc 2 92 0
 468 0002 0023     		movs	r3, #0
 469 0004 0193     		str	r3, [sp, #4]
 470              	.L27:
  93:source\asw/main.c ****     while(1)
  94:source\asw/main.c ****     {
  95:source\asw/main.c ****         //Wait, read and clear the event
  96:source\asw/main.c ****         WaitEvent(ev_100ms | ev_BlinkerButton1 | ev_BlinkerButton2);
 471              		.loc 2 96 0
 472 0006 0720     		movs	r0, #7
 473 0008 FFF7FEFF 		bl	EE_oo_WaitEvent
 474              	.LVL33:
  97:source\asw/main.c ****         GetEvent(tsk_Control,&ev);
 475              		.loc 2 97 0
 476 000c 01A9     		add	r1, sp, #4
 477 000e 0120     		movs	r0, #1
 478 0010 FFF7FEFF 		bl	EE_oo_GetEvent
 479              	.LVL34:
  98:source\asw/main.c ****         ClearEvent(ev);
 480              		.loc 2 98 0
 481 0014 0198     		ldr	r0, [sp, #4]
 482 0016 FFF7FEFF 		bl	EE_oo_ClearEvent
 483              	.LVL35:
  99:source\asw/main.c **** 
 100:source\asw/main.c ****         //Check for left button
ARM GAS  C:\Users\Reza\AppData\Local\Temp\ccJx7wfd.s 			page 24


 101:source\asw/main.c ****         if (TRUE == BUTTON_IsPressed(BUTTON_1))
 484              		.loc 2 101 0
 485 001a 0020     		movs	r0, #0
 486 001c FFF7FEFF 		bl	BUTTON_IsPressed
 487              	.LVL36:
 488 0020 0128     		cmp	r0, #1
 489 0022 0146     		mov	r1, r0
 490 0024 02D1     		bne	.L23
 102:source\asw/main.c ****         {
 103:source\asw/main.c ****             BLINKER_Set(&BLINKER_left,1);
 491              		.loc 2 103 0
 492 0026 1248     		ldr	r0, .L34
 493 0028 FFF7FEFF 		bl	BLINKER_Set
 494              	.LVL37:
 495              	.L23:
 104:source\asw/main.c ****         }
 105:source\asw/main.c ****         
 106:source\asw/main.c ****         //Check for right button
 107:source\asw/main.c ****         if (TRUE == BUTTON_IsPressed(BUTTON_2))
 496              		.loc 2 107 0
 497 002c 0120     		movs	r0, #1
 498 002e FFF7FEFF 		bl	BUTTON_IsPressed
 499              	.LVL38:
 500 0032 0128     		cmp	r0, #1
 501 0034 0146     		mov	r1, r0
 502 0036 02D1     		bne	.L24
 108:source\asw/main.c ****         {
 109:source\asw/main.c ****             BLINKER_Set(&BLINKER_right,1);
 503              		.loc 2 109 0
 504 0038 0E48     		ldr	r0, .L34+4
 505 003a FFF7FEFF 		bl	BLINKER_Set
 506              	.LVL39:
 507              	.L24:
 110:source\asw/main.c ****         }
 111:source\asw/main.c ****         
 112:source\asw/main.c **** 
 113:source\asw/main.c ****         //Check for emergency button
 114:source\asw/main.c ****         if (TRUE == BUTTON_IsPressed(BUTTON_3))
 508              		.loc 2 114 0
 509 003e 0220     		movs	r0, #2
 510 0040 FFF7FEFF 		bl	BUTTON_IsPressed
 511              	.LVL40:
 512 0044 0128     		cmp	r0, #1
 513 0046 03D1     		bne	.L25
 115:source\asw/main.c ****         {
 116:source\asw/main.c ****             BLINKER_Emergency(&BLINKER_left, &BLINKER_right);
 514              		.loc 2 116 0
 515 0048 0A49     		ldr	r1, .L34+4
 516 004a 0948     		ldr	r0, .L34
 517 004c FFF7FEFF 		bl	BLINKER_Emergency
 518              	.LVL41:
 519              	.L25:
 117:source\asw/main.c ****         }
 118:source\asw/main.c ****         
 119:source\asw/main.c ****         //Check for otertake left
 120:source\asw/main.c ****         if (ev & ev_BlinkerButton1)
 520              		.loc 2 120 0
ARM GAS  C:\Users\Reza\AppData\Local\Temp\ccJx7wfd.s 			page 25


 521 0050 019B     		ldr	r3, [sp, #4]
 522 0052 9A07     		lsls	r2, r3, #30
 523 0054 03D5     		bpl	.L26
 121:source\asw/main.c ****         {
 122:source\asw/main.c ****             BLINKER_Set(&BLINKER_left,5);
 524              		.loc 2 122 0
 525 0056 0521     		movs	r1, #5
 526 0058 0548     		ldr	r0, .L34
 527 005a FFF7FEFF 		bl	BLINKER_Set
 528              	.LVL42:
 529              	.L26:
 123:source\asw/main.c ****         }
 124:source\asw/main.c **** 
 125:source\asw/main.c ****         //Check for otertake right
 126:source\asw/main.c ****         if (ev & ev_BlinkerButton2)
 530              		.loc 2 126 0
 531 005e 019B     		ldr	r3, [sp, #4]
 532 0060 5B07     		lsls	r3, r3, #29
 533 0062 D0D5     		bpl	.L27
 127:source\asw/main.c ****         {
 128:source\asw/main.c ****             BLINKER_Set(&BLINKER_right,5);
 534              		.loc 2 128 0
 535 0064 0521     		movs	r1, #5
 536 0066 0348     		ldr	r0, .L34+4
 537 0068 FFF7FEFF 		bl	BLINKER_Set
 538              	.LVL43:
 539 006c CBE7     		b	.L27
 540              	.L35:
 541 006e 00BF     		.align	2
 542              	.L34:
 543 0070 00000000 		.word	BLINKER_left
 544 0074 00000000 		.word	BLINKER_right
 545              		.cfi_endproc
 546              	.LFE115:
 547              		.size	Functsk_Control, .-Functsk_Control
 548              		.section	.text.Functsk_Output,"ax",%progbits
 549              		.align	1
 550              		.global	Functsk_Output
 551              		.thumb
 552              		.thumb_func
 553              		.type	Functsk_Output, %function
 554              	Functsk_Output:
 555              	.LFB116:
 129:source\asw/main.c ****         }
 130:source\asw/main.c ****     
 131:source\asw/main.c ****     }
 132:source\asw/main.c **** }
 133:source\asw/main.c **** 
 134:source\asw/main.c **** /**
 135:source\asw/main.c ****  * This task will c heck the input and based on this, "control" the output
 136:source\asw/main.c ****  */
 137:source\asw/main.c **** 
 138:source\asw/main.c **** TASK(tsk_Output)
 139:source\asw/main.c **** {
 556              		.loc 2 139 0
 557              		.cfi_startproc
 558              		@ args = 0, pretend = 0, frame = 0
ARM GAS  C:\Users\Reza\AppData\Local\Temp\ccJx7wfd.s 			page 26


 559              		@ frame_needed = 0, uses_anonymous_args = 0
 560 0000 08B5     		push	{r3, lr}
 561              		.cfi_def_cfa_offset 8
 562              		.cfi_offset 3, -8
 563              		.cfi_offset 14, -4
 140:source\asw/main.c ****     BLINKER_Blink(&BLINKER_left);
 564              		.loc 2 140 0
 565 0002 0548     		ldr	r0, .L37
 566 0004 FFF7FEFF 		bl	BLINKER_Blink
 567              	.LVL44:
 141:source\asw/main.c ****     BLINKER_Blink(&BLINKER_right);
 568              		.loc 2 141 0
 569 0008 0448     		ldr	r0, .L37+4
 570 000a FFF7FEFF 		bl	BLINKER_Blink
 571              	.LVL45:
 142:source\asw/main.c ****     
 143:source\asw/main.c ****     //LED_Toggle(LED_GREEN);
 144:source\asw/main.c ****     
 145:source\asw/main.c ****     TerminateTask();
 146:source\asw/main.c ****     
 147:source\asw/main.c **** }
 572              		.loc 2 147 0
 573 000e BDE80840 		pop	{r3, lr}
 574              		.cfi_restore 14
 575              		.cfi_restore 3
 576              		.cfi_def_cfa_offset 0
 145:source\asw/main.c ****     
 577              		.loc 2 145 0
 578 0012 FFF7FEBF 		b	EE_oo_TerminateTask
 579              	.LVL46:
 580              	.L38:
 581 0016 00BF     		.align	2
 582              	.L37:
 583 0018 00000000 		.word	BLINKER_left
 584 001c 00000000 		.word	BLINKER_right
 585              		.cfi_endproc
 586              	.LFE116:
 587              		.size	Functsk_Output, .-Functsk_Output
 588              		.section	.text.Functsk_Background,"ax",%progbits
 589              		.align	1
 590              		.global	Functsk_Background
 591              		.thumb
 592              		.thumb_func
 593              		.type	Functsk_Background, %function
 594              	Functsk_Background:
 595              	.LFB117:
 148:source\asw/main.c **** 
 149:source\asw/main.c **** 
 150:source\asw/main.c **** TASK(tsk_Background)
 151:source\asw/main.c **** {
 596              		.loc 2 151 0
 597              		.cfi_startproc
 598              		@ Volatile: function does not return.
 599              		@ args = 0, pretend = 0, frame = 0
 600              		@ frame_needed = 0, uses_anonymous_args = 0
 601              		@ link register save eliminated.
 602              	.L40:
ARM GAS  C:\Users\Reza\AppData\Local\Temp\ccJx7wfd.s 			page 27


 152:source\asw/main.c ****     while(1)
 153:source\asw/main.c ****     {
 154:source\asw/main.c ****         //do something with low prioroty
 155:source\asw/main.c ****         asm("nop");
 603              		.loc 2 155 0 discriminator 1
 604              		.syntax unified
 605              	@ 155 "source\asw\main.c" 1
 606 0000 00BF     		nop
 607              	@ 0 "" 2
 608              		.thumb
 609              		.syntax unified
 610 0002 FDE7     		b	.L40
 611              		.cfi_endproc
 612              	.LFE117:
 613              		.size	Functsk_Background, .-Functsk_Background
 614              		.section	.text.ISR2_isr_Button,"ax",%progbits
 615              		.align	1
 616              		.global	ISR2_isr_Button
 617              		.thumb
 618              		.thumb_func
 619              		.type	ISR2_isr_Button, %function
 620              	ISR2_isr_Button:
 621              	.LFB119:
 156:source\asw/main.c ****     }
 157:source\asw/main.c **** }
 158:source\asw/main.c **** 
 159:source\asw/main.c **** 
 160:source\asw/main.c **** /********************************************************************************
 161:source\asw/main.c ****  * ISR Definitions
 162:source\asw/main.c ****  ********************************************************************************/
 163:source\asw/main.c ****     
 164:source\asw/main.c **** ISR2(isr_Button)
 165:source\asw/main.c **** {
 622              		.loc 2 165 0
 623              		.cfi_startproc
 624              		@ args = 0, pretend = 0, frame = 0
 625              		@ frame_needed = 0, uses_anonymous_args = 0
 626 0000 08B5     		push	{r3, lr}
 627              		.cfi_def_cfa_offset 8
 628              		.cfi_offset 3, -8
 629              		.cfi_offset 14, -4
 166:source\asw/main.c ****     if (TRUE == BUTTON_IsPressed(BUTTON_1)) SetEvent(tsk_Control, ev_BlinkerButton1);
 630              		.loc 2 166 0
 631 0002 0020     		movs	r0, #0
 632 0004 FFF7FEFF 		bl	BUTTON_IsPressed
 633              	.LVL47:
 634 0008 0128     		cmp	r0, #1
 635 000a 02D1     		bne	.L42
 636              		.loc 2 166 0 is_stmt 0 discriminator 1
 637 000c 0221     		movs	r1, #2
 638 000e FFF7FEFF 		bl	EE_oo_SetEvent
 639              	.LVL48:
 640              	.L42:
 167:source\asw/main.c ****     if (TRUE == BUTTON_IsPressed(BUTTON_2)) SetEvent(tsk_Control, ev_BlinkerButton2);
 641              		.loc 2 167 0 is_stmt 1
 642 0012 0120     		movs	r0, #1
 643 0014 FFF7FEFF 		bl	BUTTON_IsPressed
ARM GAS  C:\Users\Reza\AppData\Local\Temp\ccJx7wfd.s 			page 28


 644              	.LVL49:
 645 0018 0128     		cmp	r0, #1
 646 001a 04D1     		bne	.L41
 168:source\asw/main.c **** }
 647              		.loc 2 168 0
 648 001c BDE80840 		pop	{r3, lr}
 649              		.cfi_remember_state
 650              		.cfi_restore 14
 651              		.cfi_restore 3
 652              		.cfi_def_cfa_offset 0
 653              	.LBB108:
 654              	.LBB109:
 167:source\asw/main.c ****     if (TRUE == BUTTON_IsPressed(BUTTON_2)) SetEvent(tsk_Control, ev_BlinkerButton2);
 655              		.loc 2 167 0
 656 0020 0421     		movs	r1, #4
 657 0022 FFF7FEBF 		b	EE_oo_SetEvent
 658              	.LVL50:
 659              	.L41:
 660              		.cfi_restore_state
 661 0026 08BD     		pop	{r3, pc}
 662              	.LBE109:
 663              	.LBE108:
 664              		.cfi_endproc
 665              	.LFE119:
 666              		.size	ISR2_isr_Button, .-ISR2_isr_Button
 667              		.section	.text.isr_Button,"ax",%progbits
 668              		.align	1
 669              		.global	isr_Button
 670              		.thumb
 671              		.thumb_func
 672              		.type	isr_Button, %function
 673              	isr_Button:
 674              	.LFB118:
 164:source\asw/main.c **** {
 675              		.loc 2 164 0
 676              		.cfi_startproc
 677              		@ Stack Align: May be called with mis-aligned SP.
 678              		@ args = 0, pretend = 0, frame = 0
 679              		@ frame_needed = 0, uses_anonymous_args = 0
 680              	.LVL51:
 681 0000 6846     		mov	r0, sp
 682              		.cfi_register 13, 0
 683 0002 20F00701 		bic	r1, r0, #7
 684 0006 8D46     		mov	sp, r1
 685 0008 31B5     		push	{r0, r4, r5, lr}
 686              		.cfi_def_cfa_offset 16
 687              		.cfi_offset 13, -16
 688              		.cfi_offset 4, -12
 689              		.cfi_offset 5, -8
 690              		.cfi_offset 14, -4
 691              	.LBB134:
 692              	.LBB135:
 211:Generated_Source\PSoC5/ErikaOS_1_cortex_mx_ee_cpu.inc **** #endif	/* !__KEIL__ */
 693              		.loc 1 211 0
 694              		.syntax unified
 695              	@ 211 "Generated_Source\PSoC5/ErikaOS_1_cortex_mx_ee_cpu.inc" 1
 696 000a 72B6     		cpsid i
ARM GAS  C:\Users\Reza\AppData\Local\Temp\ccJx7wfd.s 			page 29


 697              	@ 0 "" 2
 698              		.thumb
 699              		.syntax unified
 700              	.LBE135:
 701              	.LBE134:
 702              	.LBB136:
 703              	.LBB137:
 325:Generated_Source\PSoC5/ErikaOS_1_cortex_mx_ee_cpu.inc **** #else
 704              		.loc 1 325 0
 705              		.syntax unified
 706              	@ 325 "Generated_Source\PSoC5/ErikaOS_1_cortex_mx_ee_cpu.inc" 1
 707 000c EFF31185 		MRS r5, BASEPRI
 708              	@ 0 "" 2
 709              	.LVL52:
 710              		.thumb
 711              		.syntax unified
 712              	.LBE137:
 713              	.LBE136:
 164:source\asw/main.c **** {
 714              		.loc 2 164 0
 715 0010 FFF7FEFF 		bl	EE_cortex_mx_get_isr_prio
 716              	.LVL53:
 717              	.LBB138:
 718              	.LBB139:
 358:Generated_Source\PSoC5/ErikaOS_1_cortex_mx_ee_cpu.inc **** #else
 719              		.loc 1 358 0
 720              		.syntax unified
 721              	@ 358 "Generated_Source\PSoC5/ErikaOS_1_cortex_mx_ee_cpu.inc" 1
 722 0014 80F31188 		MSR BASEPRI, r0
 723              	@ 0 "" 2
 724              	.LVL54:
 725              		.thumb
 726              		.syntax unified
 727              	.LBE139:
 728              	.LBE138:
 729              	.LBB140:
 730              	.LBB141:
  85:Generated_Source\PSoC5/ErikaOS_1_common_ee_irqstub.inc **** /*  EE_std_enableIRQ_nested() and EE_std_disableIRQ_nested() must be defined in
 731              		.loc 3 85 0
 732 0018 0E4B     		ldr	r3, .L47
 733 001a 1A68     		ldr	r2, [r3]
 734 001c 1C46     		mov	r4, r3
 735 001e 0132     		adds	r2, r2, #1
 736              	.LBE141:
 737              	.LBE140:
 164:source\asw/main.c **** {
 738              		.loc 2 164 0
 739 0020 012A     		cmp	r2, #1
 740              	.LBB143:
 741              	.LBB142:
  85:Generated_Source\PSoC5/ErikaOS_1_common_ee_irqstub.inc **** /*  EE_std_enableIRQ_nested() and EE_std_disableIRQ_nested() must be defined in
 742              		.loc 3 85 0
 743 0022 1A60     		str	r2, [r3]
 744              	.LBE142:
 745              	.LBE143:
 164:source\asw/main.c **** {
 746              		.loc 2 164 0
ARM GAS  C:\Users\Reza\AppData\Local\Temp\ccJx7wfd.s 			page 30


 747 0024 01D1     		bne	.L45
 164:source\asw/main.c **** {
 748              		.loc 2 164 0 is_stmt 0 discriminator 1
 749 0026 FFF7FEFF 		bl	EE_cortex_mx_change_IRQ_stack
 750              	.LVL55:
 751              	.L45:
 752              	.LBB144:
 753              	.LBB145:
 191:Generated_Source\PSoC5/ErikaOS_1_cortex_mx_ee_cpu.inc **** #endif	/* !__KEIL__ */
 754              		.loc 1 191 0 is_stmt 1 discriminator 3
 755              		.syntax unified
 756              	@ 191 "Generated_Source\PSoC5/ErikaOS_1_cortex_mx_ee_cpu.inc" 1
 757 002a 62B6     		cpsie i
 758              	@ 0 "" 2
 759              		.thumb
 760              		.syntax unified
 761              	.LBE145:
 762              	.LBE144:
 164:source\asw/main.c **** {
 763              		.loc 2 164 0 discriminator 3
 764 002c FFF7FEFF 		bl	ISR2_isr_Button
 765              	.LVL56:
 766              	.LBB146:
 767              	.LBB147:
 211:Generated_Source\PSoC5/ErikaOS_1_cortex_mx_ee_cpu.inc **** #endif	/* !__KEIL__ */
 768              		.loc 1 211 0 discriminator 3
 769              		.syntax unified
 770              	@ 211 "Generated_Source\PSoC5/ErikaOS_1_cortex_mx_ee_cpu.inc" 1
 771 0030 72B6     		cpsid i
 772              	@ 0 "" 2
 773              	.LVL57:
 774              		.thumb
 775              		.syntax unified
 776              	.LBE147:
 777              	.LBE146:
 778              	.LBB148:
 779              	.LBB149:
 358:Generated_Source\PSoC5/ErikaOS_1_cortex_mx_ee_cpu.inc **** #else
 780              		.loc 1 358 0 discriminator 3
 781              		.syntax unified
 782              	@ 358 "Generated_Source\PSoC5/ErikaOS_1_cortex_mx_ee_cpu.inc" 1
 783 0032 85F31188 		MSR BASEPRI, r5
 784              	@ 0 "" 2
 785              	.LVL58:
 786              		.thumb
 787              		.syntax unified
 788              	.LBE149:
 789              	.LBE148:
 790              	.LBB150:
 791              	.LBB151:
 792              		.loc 3 102 0 discriminator 3
 793 0036 FFF7FEFF 		bl	EE_IRQ_end_post_stub
 794              	.LVL59:
 795              	.LBE151:
 796              	.LBE150:
 797              	.LBB152:
 798              	.LBB153:
ARM GAS  C:\Users\Reza\AppData\Local\Temp\ccJx7wfd.s 			page 31


  84:Generated_Source\PSoC5/ErikaOS_1_common_ee_irqstub.inc **** __INLINE__ void  EE_increment_IRQ_nesting_level(void) { ++EE_IRQ_nesting_level; }
 799              		.loc 3 84 0 discriminator 3
 800 003a 2368     		ldr	r3, [r4]
 801 003c 013B     		subs	r3, r3, #1
 802 003e 2360     		str	r3, [r4]
 803              	.LBE153:
 804              	.LBE152:
 164:source\asw/main.c **** {
 805              		.loc 2 164 0 discriminator 3
 806 0040 1BB9     		cbnz	r3, .L46
 164:source\asw/main.c **** {
 807              		.loc 2 164 0 is_stmt 0 discriminator 4
 808 0042 FFF7FEFF 		bl	EE_cortex_mx_change_IRQ_stack_back
 809              	.LVL60:
 810              	.LBB154:
 811              	.LBB155:
 812              		.loc 4 68 0 is_stmt 1 discriminator 4
 813 0046 FFF7FEFF 		bl	EE_switch_context
 814              	.LVL61:
 815              	.L46:
 816              	.LBE155:
 817              	.LBE154:
 818              	.LBB156:
 819              	.LBB157:
 191:Generated_Source\PSoC5/ErikaOS_1_cortex_mx_ee_cpu.inc **** #endif	/* !__KEIL__ */
 820              		.loc 1 191 0 discriminator 6
 821              		.syntax unified
 822              	@ 191 "Generated_Source\PSoC5/ErikaOS_1_cortex_mx_ee_cpu.inc" 1
 823 004a 62B6     		cpsie i
 824              	@ 0 "" 2
 825              		.thumb
 826              		.syntax unified
 827              	.LBE157:
 828              	.LBE156:
 164:source\asw/main.c **** {
 829              		.loc 2 164 0 discriminator 6
 830 004c BDE83140 		pop	{r0, r4, r5, lr}
 831              		.cfi_restore 14
 832              		.cfi_restore 5
 833              		.cfi_restore 4
 834              		.cfi_restore 0
 835              		.cfi_def_cfa_offset 0
 836 0050 8546     		mov	sp, r0
 837 0052 7047     		bx	lr
 838              	.L48:
 839              		.align	2
 840              	.L47:
 841 0054 00000000 		.word	EE_IRQ_nesting_level
 842              		.cfi_endproc
 843              	.LFE118:
 844              		.size	isr_Button, .-isr_Button
 845              		.text
 846              	.Letext0:
 847              		.file 6 "c:\\program files (x86)\\cypress\\psoc creator\\4.2\\psoc creator\\import\\gnu\\arm\\5.4.
 848              		.file 7 "c:\\program files (x86)\\cypress\\psoc creator\\4.2\\psoc creator\\import\\gnu\\arm\\5.4.
 849              		.file 8 "Generated_Source\\PSoC5/ErikaOS_1_common_ee_types.inc"
 850              		.file 9 "Generated_Source\\PSoC5/ErikaOS_1_ee_oo_common.inc"
ARM GAS  C:\Users\Reza\AppData\Local\Temp\ccJx7wfd.s 			page 32


 851              		.file 10 ".\\source\\bsw/global.h"
 852              		.file 11 ".\\source\\bsw/button.h"
 853              		.file 12 "source\\asw\\blinker.h"
 854              		.file 13 "Generated_Source\\PSoC5/ErikaOS_1_ee_oo_intfunc.inc"
 855              		.file 14 "Generated_Source\\PSoC5/ErikaOS_1_cortex_mx_ee_context.inc"
 856              		.file 15 "Generated_Source\\PSoC5/ErikaOS_1_common_ee_primitives.inc"
 857              		.file 16 "Generated_Source\\PSoC5/core_cm3.h"
 858              		.file 17 "Generated_Source\\PSoC5/ErikaOS_1_ee_oo_kernel.inc"
 859              		.file 18 "Generated_Source\\PSoC5/ErikaOS_1_ee_oo_irq.inc"
 860              		.file 19 "Generated_Source\\PSoC5/ErikaOS_1_cortex_mx_ee_irq.inc"
 861              		.file 20 ".\\source\\bsw/led.h"
 862              		.file 21 ".\\source\\bsw/seven.h"