ARM GAS  C:\Users\Reza\AppData\Local\Temp\ccyUUHbN.s 			page 1


   1              		.syntax unified
   2              		.cpu cortex-m3
   3              		.fpu softvfp
   4              		.eabi_attribute 20, 1
   5              		.eabi_attribute 21, 1
   6              		.eabi_attribute 23, 3
   7              		.eabi_attribute 24, 1
   8              		.eabi_attribute 25, 1
   9              		.eabi_attribute 26, 1
  10              		.eabi_attribute 30, 4
  11              		.eabi_attribute 34, 1
  12              		.eabi_attribute 18, 4
  13              		.thumb
  14              		.syntax unified
  15              		.file	"reactionGame.c"
  16              		.text
  17              	.Ltext0:
  18              		.cfi_sections	.debug_frame
  19              		.section	.text.REACTIONGAME_Init,"ax",%progbits
  20              		.align	1
  21              		.global	REACTIONGAME_Init
  22              		.thumb
  23              		.thumb_func
  24              		.type	REACTIONGAME_Init, %function
  25              	REACTIONGAME_Init:
  26              	.LFB110:
  27              		.file 1 "source\\asw\\reactionGame.c"
   1:source\asw/reactionGame.c **** /**
   2:source\asw/reactionGame.c **** * \file <filename>
   3:source\asw/reactionGame.c **** * \author <author-name>
   4:source\asw/reactionGame.c **** * \date <date>
   5:source\asw/reactionGame.c **** *
   6:source\asw/reactionGame.c **** * \brief <Symbolic File name>
   7:source\asw/reactionGame.c **** *
   8:source\asw/reactionGame.c **** * \copyright Copyright ©2016
   9:source\asw/reactionGame.c **** * Department of electrical engineering and information technology, Hochschule Darmstadt - Universit
  10:source\asw/reactionGame.c **** * Permission to use, copy, modify, and distribute this software and its documentation for education
  11:source\asw/reactionGame.c **** * (unless permitted by h_da) and official h_da projects, is hereby granted for enrolled students of
  12:source\asw/reactionGame.c **** * this paragraph and the following paragraph appear in all copies, modifications, and distributions
  13:source\asw/reactionGame.c **** * Contact Prof.Dr.-Ing. Peter Fromm, peter.fromm@h-da.de, Birkenweg 8 64295 Darmstadt - GERMANY for
  14:source\asw/reactionGame.c **** *
  15:source\asw/reactionGame.c **** * \warning This software is a PROTOTYPE version and is not designed or intended for use in producti
  16:source\asw/reactionGame.c **** * The user represents and warrants that it will NOT use or redistribute the Software for such purpo
  17:source\asw/reactionGame.c **** * This prototype is for research purposes only. This software is provided "AS IS," without a warran
  18:source\asw/reactionGame.c **** */
  19:source\asw/reactionGame.c **** 
  20:source\asw/reactionGame.c **** /*****************************************************************************/
  21:source\asw/reactionGame.c **** /* Include files                                                             */
  22:source\asw/reactionGame.c **** /*****************************************************************************/
  23:source\asw/reactionGame.c **** #include "reactionGame.h"
  24:source\asw/reactionGame.c **** 
  25:source\asw/reactionGame.c **** #include "seven.h"
  26:source\asw/reactionGame.c **** #include "led.h"
  27:source\asw/reactionGame.c **** #include "uart.h"
  28:source\asw/reactionGame.c **** #include <stdlib.h> 
  29:source\asw/reactionGame.c **** 
  30:source\asw/reactionGame.c **** /*****************************************************************************/
ARM GAS  C:\Users\Reza\AppData\Local\Temp\ccyUUHbN.s 			page 2


  31:source\asw/reactionGame.c **** /* Local pre-processor symbols/macros ('#define')                            */
  32:source\asw/reactionGame.c **** /*****************************************************************************/
  33:source\asw/reactionGame.c **** 
  34:source\asw/reactionGame.c **** /*****************************************************************************/
  35:source\asw/reactionGame.c **** /* Global variable definitions (declared in header file with 'extern')       */
  36:source\asw/reactionGame.c **** /*****************************************************************************/
  37:source\asw/reactionGame.c **** uint32 ticks=0;
  38:source\asw/reactionGame.c **** uint32 RandomTim=0;
  39:source\asw/reactionGame.c **** static uint8 Score=0;
  40:source\asw/reactionGame.c **** uint32 Time[10]={0};
  41:source\asw/reactionGame.c **** BUTTON_id_t RandButton;
  42:source\asw/reactionGame.c **** uint8 Round=0;
  43:source\asw/reactionGame.c **** uint8 MaxRound=10;
  44:source\asw/reactionGame.c **** 
  45:source\asw/reactionGame.c **** /*****************************************************************************/
  46:source\asw/reactionGame.c **** /* Local type definitions ('typedef')                                        */
  47:source\asw/reactionGame.c **** /*****************************************************************************/
  48:source\asw/reactionGame.c **** 
  49:source\asw/reactionGame.c **** /*****************************************************************************/
  50:source\asw/reactionGame.c **** /* Local variable definitions ('static')                                     */
  51:source\asw/reactionGame.c **** /*****************************************************************************/
  52:source\asw/reactionGame.c **** 
  53:source\asw/reactionGame.c **** 
  54:source\asw/reactionGame.c **** 
  55:source\asw/reactionGame.c **** /*****************************************************************************/
  56:source\asw/reactionGame.c **** /* Local function prototypes ('static')                                      */
  57:source\asw/reactionGame.c **** /*****************************************************************************/
  58:source\asw/reactionGame.c **** 
  59:source\asw/reactionGame.c **** 
  60:source\asw/reactionGame.c **** /*****************************************************************************/
  61:source\asw/reactionGame.c **** /* Function implementation - global ('extern') and local ('static')          */
  62:source\asw/reactionGame.c **** /*****************************************************************************/
  63:source\asw/reactionGame.c **** 
  64:source\asw/reactionGame.c **** /**
  65:source\asw/reactionGame.c ****  * Blinker Initialisation
  66:source\asw/reactionGame.c ****  * @param BLINKER_t *const me   - blinker object
  67:source\asw/reactionGame.c ****  * @param BLINKER_Id_t led      - left/right blinker
  68:source\asw/reactionGame.c ****  * @return RC_SUCCESS
  69:source\asw/reactionGame.c ****  */
  70:source\asw/reactionGame.c **** 
  71:source\asw/reactionGame.c **** RC_t REACTIONGAME_Init(uint8 score)
  72:source\asw/reactionGame.c **** {
  28              		.loc 1 72 0
  29              		.cfi_startproc
  30              		@ args = 0, pretend = 0, frame = 0
  31              		@ frame_needed = 0, uses_anonymous_args = 0
  32              		@ link register save eliminated.
  33              	.LVL0:
  73:source\asw/reactionGame.c ****     Score=score;
  34              		.loc 1 73 0
  35 0000 014B     		ldr	r3, .L2
  36 0002 1870     		strb	r0, [r3]
  74:source\asw/reactionGame.c ****     return RC_SUCCESS;
  75:source\asw/reactionGame.c **** }
  37              		.loc 1 75 0
  38 0004 0020     		movs	r0, #0
  39              	.LVL1:
ARM GAS  C:\Users\Reza\AppData\Local\Temp\ccyUUHbN.s 			page 3


  40 0006 7047     		bx	lr
  41              	.L3:
  42              		.align	2
  43              	.L2:
  44 0008 00000000 		.word	.LANCHOR0
  45              		.cfi_endproc
  46              	.LFE110:
  47              		.size	REACTIONGAME_Init, .-REACTIONGAME_Init
  48              		.section	.text.REACTIONGAME_DisplayButton,"ax",%progbits
  49              		.align	1
  50              		.global	REACTIONGAME_DisplayButton
  51              		.thumb
  52              		.thumb_func
  53              		.type	REACTIONGAME_DisplayButton, %function
  54              	REACTIONGAME_DisplayButton:
  55              	.LFB111:
  76:source\asw/reactionGame.c ****     
  77:source\asw/reactionGame.c **** 
  78:source\asw/reactionGame.c **** /**
  79:source\asw/reactionGame.c ****  * Set Blinker depending on button press
  80:source\asw/reactionGame.c ****  * @param BLINKER_t *const me   - blinker object
  81:source\asw/reactionGame.c ****  * @param uint8_t noBlinks      - number of blinks to go
  82:source\asw/reactionGame.c ****  * @return RC_SUCCESS
  83:source\asw/reactionGame.c ****  */
  84:source\asw/reactionGame.c **** 
  85:source\asw/reactionGame.c **** RC_t REACTIONGAME_DisplayButton(BUTTON_id_t button)
  86:source\asw/reactionGame.c **** {
  56              		.loc 1 86 0
  57              		.cfi_startproc
  58              		@ args = 0, pretend = 0, frame = 0
  59              		@ frame_needed = 0, uses_anonymous_args = 0
  60              		@ link register save eliminated.
  61              	.LVL2:
  87:source\asw/reactionGame.c ****     UART_ShowRandButton(button);  
  62              		.loc 1 87 0
  63 0000 FFF7FEBF 		b	UART_ShowRandButton
  64              	.LVL3:
  65              		.cfi_endproc
  66              	.LFE111:
  67              		.size	REACTIONGAME_DisplayButton, .-REACTIONGAME_DisplayButton
  68              		.section	.text.REACTIONGAME_RandTime,"ax",%progbits
  69              		.align	1
  70              		.global	REACTIONGAME_RandTime
  71              		.thumb
  72              		.thumb_func
  73              		.type	REACTIONGAME_RandTime, %function
  74              	REACTIONGAME_RandTime:
  75              	.LFB112:
  88:source\asw/reactionGame.c **** }
  89:source\asw/reactionGame.c **** 
  90:source\asw/reactionGame.c **** RC_t REACTIONGAME_RandTime()
  91:source\asw/reactionGame.c **** {
  76              		.loc 1 91 0
  77              		.cfi_startproc
  78              		@ args = 0, pretend = 0, frame = 0
  79              		@ frame_needed = 0, uses_anonymous_args = 0
  80 0000 08B5     		push	{r3, lr}
ARM GAS  C:\Users\Reza\AppData\Local\Temp\ccyUUHbN.s 			page 4


  81              		.cfi_def_cfa_offset 8
  82              		.cfi_offset 3, -8
  83              		.cfi_offset 14, -4
  92:source\asw/reactionGame.c ****     RandomTim=(rand()%3000)+1;
  84              		.loc 1 92 0
  85 0002 FFF7FEFF 		bl	rand
  86              	.LVL4:
  87 0006 40F6B833 		movw	r3, #3000
  88 000a 90FBF3F2 		sdiv	r2, r0, r3
  89 000e 02FB1300 		mls	r0, r2, r3, r0
  90 0012 024B     		ldr	r3, .L6
  91 0014 0130     		adds	r0, r0, #1
  92 0016 5860     		str	r0, [r3, #4]
  93:source\asw/reactionGame.c **** }
  93              		.loc 1 93 0
  94 0018 08BD     		pop	{r3, pc}
  95              	.L7:
  96 001a 00BF     		.align	2
  97              	.L6:
  98 001c 00000000 		.word	.LANCHOR0
  99              		.cfi_endproc
 100              	.LFE112:
 101              		.size	REACTIONGAME_RandTime, .-REACTIONGAME_RandTime
 102              		.section	.text.REACTIONGAME_RandButtonSelect,"ax",%progbits
 103              		.align	1
 104              		.global	REACTIONGAME_RandButtonSelect
 105              		.thumb
 106              		.thumb_func
 107              		.type	REACTIONGAME_RandButtonSelect, %function
 108              	REACTIONGAME_RandButtonSelect:
 109              	.LFB113:
  94:source\asw/reactionGame.c **** 
  95:source\asw/reactionGame.c **** RC_t REACTIONGAME_RandButtonSelect()
  96:source\asw/reactionGame.c **** {
 110              		.loc 1 96 0
 111              		.cfi_startproc
 112              		@ args = 0, pretend = 0, frame = 0
 113              		@ frame_needed = 0, uses_anonymous_args = 0
 114              	.LVL5:
 115 0000 10B5     		push	{r4, lr}
 116              		.cfi_def_cfa_offset 8
 117              		.cfi_offset 4, -8
 118              		.cfi_offset 14, -4
  97:source\asw/reactionGame.c ****     SEVEN_id_t seven = SEVEN_0;
  98:source\asw/reactionGame.c ****     uint8 RandButton=(rand()%2)+1;
 119              		.loc 1 98 0
 120 0002 FFF7FEFF 		bl	rand
 121              	.LVL6:
  99:source\asw/reactionGame.c ****      switch (RandButton)
 122              		.loc 1 99 0
 123 0006 104B     		ldr	r3, .L16
 124 0008 0340     		ands	r3, r3, r0
 125 000a 002B     		cmp	r3, #0
 126 000c BEBF     		ittt	lt
 127 000e 03F1FF33 		addlt	r3, r3, #-1
 128 0012 63F00103 		ornlt	r3, r3, #1
 129 0016 0133     		addlt	r3, r3, #1
ARM GAS  C:\Users\Reza\AppData\Local\Temp\ccyUUHbN.s 			page 5


 130 0018 0133     		adds	r3, r3, #1
 131 001a DCB2     		uxtb	r4, r3
 132 001c 012C     		cmp	r4, #1
 133 001e 02D0     		beq	.L11
 134 0020 022C     		cmp	r4, #2
 135 0022 07D0     		beq	.L12
 136 0024 10BD     		pop	{r4, pc}
 137              	.L11:
 138              	.LVL7:
 100:source\asw/reactionGame.c ****     {
 101:source\asw/reactionGame.c ****         case 1 : 
 102:source\asw/reactionGame.c ****             RandButton = BUTTON_1;
 103:source\asw/reactionGame.c ****             seven = SEVEN_0;
 104:source\asw/reactionGame.c ****             SEVEN_Set(seven,RandButton);
 139              		.loc 1 104 0
 140 0026 0021     		movs	r1, #0
 141 0028 0846     		mov	r0, r1
 142 002a FFF7FEFF 		bl	SEVEN_Set
 143              	.LVL8:
 105:source\asw/reactionGame.c ****             seven = SEVEN_1;
 106:source\asw/reactionGame.c ****             SEVEN_Set(seven,RandButton);
 144              		.loc 1 106 0
 145 002e 0021     		movs	r1, #0
 146 0030 2046     		mov	r0, r4
 147 0032 05E0     		b	.L14
 148              	.LVL9:
 149              	.L12:
 107:source\asw/reactionGame.c ****             break;
 108:source\asw/reactionGame.c ****         case 2 : 
 109:source\asw/reactionGame.c ****             RandButton = BUTTON_2;
 110:source\asw/reactionGame.c ****             seven = SEVEN_0;
 111:source\asw/reactionGame.c ****             SEVEN_Set(seven,RandButton);
 150              		.loc 1 111 0
 151 0034 0121     		movs	r1, #1
 152 0036 0020     		movs	r0, #0
 153 0038 FFF7FEFF 		bl	SEVEN_Set
 154              	.LVL10:
 112:source\asw/reactionGame.c ****             seven = SEVEN_1;
 113:source\asw/reactionGame.c ****             SEVEN_Set(seven,RandButton);
 155              		.loc 1 113 0
 156 003c 0121     		movs	r1, #1
 157 003e 0846     		mov	r0, r1
 158              	.LVL11:
 159              	.L14:
 114:source\asw/reactionGame.c ****             break;
 115:source\asw/reactionGame.c ****     }
 116:source\asw/reactionGame.c ****     
 117:source\asw/reactionGame.c **** }
 160              		.loc 1 117 0
 161 0040 BDE81040 		pop	{r4, lr}
 162              		.cfi_restore 14
 163              		.cfi_restore 4
 164              		.cfi_def_cfa_offset 0
 113:source\asw/reactionGame.c ****             break;
 165              		.loc 1 113 0
 166 0044 FFF7FEBF 		b	SEVEN_Set
 167              	.LVL12:
ARM GAS  C:\Users\Reza\AppData\Local\Temp\ccyUUHbN.s 			page 6


 168              	.L17:
 169              		.align	2
 170              	.L16:
 171 0048 01000080 		.word	-2147483647
 172              		.cfi_endproc
 173              	.LFE113:
 174              		.size	REACTIONGAME_RandButtonSelect, .-REACTIONGAME_RandButtonSelect
 175              		.section	.text.REACTIONGAME_ShowScore,"ax",%progbits
 176              		.align	1
 177              		.global	REACTIONGAME_ShowScore
 178              		.thumb
 179              		.thumb_func
 180              		.type	REACTIONGAME_ShowScore, %function
 181              	REACTIONGAME_ShowScore:
 182              	.LFB114:
 118:source\asw/reactionGame.c **** 
 119:source\asw/reactionGame.c **** RC_t REACTIONGAME_ShowScore()
 120:source\asw/reactionGame.c **** {
 183              		.loc 1 120 0
 184              		.cfi_startproc
 185              		@ args = 0, pretend = 0, frame = 0
 186              		@ frame_needed = 0, uses_anonymous_args = 0
 187              		@ link register save eliminated.
 121:source\asw/reactionGame.c ****     UART_ShowScore(Score);
 188              		.loc 1 121 0
 189 0000 014B     		ldr	r3, .L19
 190 0002 1878     		ldrb	r0, [r3]	@ zero_extendqisi2
 191 0004 FFF7FEBF 		b	UART_ShowScore
 192              	.LVL13:
 193              	.L20:
 194              		.align	2
 195              	.L19:
 196 0008 00000000 		.word	.LANCHOR0
 197              		.cfi_endproc
 198              	.LFE114:
 199              		.size	REACTIONGAME_ShowScore, .-REACTIONGAME_ShowScore
 200              		.section	.text.REACTIONGAME_ShowAvgTime,"ax",%progbits
 201              		.align	1
 202              		.global	REACTIONGAME_ShowAvgTime
 203              		.thumb
 204              		.thumb_func
 205              		.type	REACTIONGAME_ShowAvgTime, %function
 206              	REACTIONGAME_ShowAvgTime:
 207              	.LFB115:
 122:source\asw/reactionGame.c **** }
 123:source\asw/reactionGame.c **** 
 124:source\asw/reactionGame.c **** RC_t REACTIONGAME_ShowAvgTime()
 125:source\asw/reactionGame.c **** {
 208              		.loc 1 125 0
 209              		.cfi_startproc
 210              		@ args = 0, pretend = 0, frame = 0
 211              		@ frame_needed = 0, uses_anonymous_args = 0
 212              		@ link register save eliminated.
 213              	.LVL14:
 214 0000 10B4     		push	{r4}
 215              		.cfi_def_cfa_offset 4
 216              		.cfi_offset 4, -4
ARM GAS  C:\Users\Reza\AppData\Local\Temp\ccyUUHbN.s 			page 7


 217              	.LBB2:
 126:source\asw/reactionGame.c ****     uint32 sum=0;
 127:source\asw/reactionGame.c ****     uint32 average=0;
 128:source\asw/reactionGame.c ****     for(uint8 i = 0; i < MaxRound; i++)
 218              		.loc 1 128 0
 219 0002 094B     		ldr	r3, .L25
 220 0004 0022     		movs	r2, #0
 221 0006 1878     		ldrb	r0, [r3]	@ zero_extendqisi2
 222              	.LBE2:
 126:source\asw/reactionGame.c ****     uint32 sum=0;
 223              		.loc 1 126 0
 224 0008 1346     		mov	r3, r2
 225              	.LBB3:
 129:source\asw/reactionGame.c ****     {
 130:source\asw/reactionGame.c ****         sum += Time[i];
 226              		.loc 1 130 0
 227 000a 084C     		ldr	r4, .L25+4
 228              	.LVL15:
 229              	.L22:
 128:source\asw/reactionGame.c ****     {
 230              		.loc 1 128 0 discriminator 1
 231 000c D1B2     		uxtb	r1, r2
 232 000e 8842     		cmp	r0, r1
 233 0010 04D9     		bls	.L24
 234              		.loc 1 130 0 discriminator 3
 235 0012 54F82210 		ldr	r1, [r4, r2, lsl #2]
 236 0016 0132     		adds	r2, r2, #1
 237              	.LVL16:
 238 0018 0B44     		add	r3, r3, r1
 239              	.LVL17:
 240 001a F7E7     		b	.L22
 241              	.LVL18:
 242              	.L24:
 243              	.LBE3:
 131:source\asw/reactionGame.c ****     }
 132:source\asw/reactionGame.c ****     average = sum / MaxRound;
 133:source\asw/reactionGame.c ****     UART_ShowScore(average);
 244              		.loc 1 133 0
 245 001c B3FBF0F0 		udiv	r0, r3, r0
 246              	.LVL19:
 134:source\asw/reactionGame.c **** }
 247              		.loc 1 134 0
 248 0020 10BC     		pop	{r4}
 249              		.cfi_restore 4
 250              		.cfi_def_cfa_offset 0
 133:source\asw/reactionGame.c **** }
 251              		.loc 1 133 0
 252 0022 C0B2     		uxtb	r0, r0
 253 0024 FFF7FEBF 		b	UART_ShowScore
 254              	.LVL20:
 255              	.L26:
 256              		.align	2
 257              	.L25:
 258 0028 00000000 		.word	.LANCHOR1
 259 002c 08000000 		.word	.LANCHOR0+8
 260              		.cfi_endproc
 261              	.LFE115:
ARM GAS  C:\Users\Reza\AppData\Local\Temp\ccyUUHbN.s 			page 8


 262              		.size	REACTIONGAME_ShowAvgTime, .-REACTIONGAME_ShowAvgTime
 263              		.section	.text.REACTIONGAME_IncreaseScore,"ax",%progbits
 264              		.align	1
 265              		.global	REACTIONGAME_IncreaseScore
 266              		.thumb
 267              		.thumb_func
 268              		.type	REACTIONGAME_IncreaseScore, %function
 269              	REACTIONGAME_IncreaseScore:
 270              	.LFB116:
 135:source\asw/reactionGame.c **** 
 136:source\asw/reactionGame.c **** RC_t REACTIONGAME_IncreaseScore()
 137:source\asw/reactionGame.c **** {
 271              		.loc 1 137 0
 272              		.cfi_startproc
 273              		@ args = 0, pretend = 0, frame = 0
 274              		@ frame_needed = 0, uses_anonymous_args = 0
 275              		@ link register save eliminated.
 138:source\asw/reactionGame.c ****     Score++;
 276              		.loc 1 138 0
 277 0000 024A     		ldr	r2, .L28
 278 0002 1378     		ldrb	r3, [r2]	@ zero_extendqisi2
 279 0004 0133     		adds	r3, r3, #1
 280 0006 1370     		strb	r3, [r2]
 139:source\asw/reactionGame.c **** }
 281              		.loc 1 139 0
 282 0008 7047     		bx	lr
 283              	.L29:
 284 000a 00BF     		.align	2
 285              	.L28:
 286 000c 00000000 		.word	.LANCHOR0
 287              		.cfi_endproc
 288              	.LFE116:
 289              		.size	REACTIONGAME_IncreaseScore, .-REACTIONGAME_IncreaseScore
 290              		.section	.text.REACTIONGAME_DecreaseScore,"ax",%progbits
 291              		.align	1
 292              		.global	REACTIONGAME_DecreaseScore
 293              		.thumb
 294              		.thumb_func
 295              		.type	REACTIONGAME_DecreaseScore, %function
 296              	REACTIONGAME_DecreaseScore:
 297              	.LFB117:
 140:source\asw/reactionGame.c **** 
 141:source\asw/reactionGame.c **** RC_t REACTIONGAME_DecreaseScore()
 142:source\asw/reactionGame.c **** {
 298              		.loc 1 142 0
 299              		.cfi_startproc
 300              		@ args = 0, pretend = 0, frame = 0
 301              		@ frame_needed = 0, uses_anonymous_args = 0
 302              		@ link register save eliminated.
 143:source\asw/reactionGame.c ****     Score--;
 303              		.loc 1 143 0
 304 0000 024A     		ldr	r2, .L31
 305 0002 1378     		ldrb	r3, [r2]	@ zero_extendqisi2
 306 0004 013B     		subs	r3, r3, #1
 307 0006 1370     		strb	r3, [r2]
 144:source\asw/reactionGame.c **** }
 308              		.loc 1 144 0
ARM GAS  C:\Users\Reza\AppData\Local\Temp\ccyUUHbN.s 			page 9


 309 0008 7047     		bx	lr
 310              	.L32:
 311 000a 00BF     		.align	2
 312              	.L31:
 313 000c 00000000 		.word	.LANCHOR0
 314              		.cfi_endproc
 315              	.LFE117:
 316              		.size	REACTIONGAME_DecreaseScore, .-REACTIONGAME_DecreaseScore
 317              		.global	MaxRound
 318              		.global	Round
 319              		.comm	RandButton,1,1
 320              		.global	Time
 321              		.global	RandomTim
 322              		.global	ticks
 323              		.data
 324              		.set	.LANCHOR1,. + 0
 325              		.type	MaxRound, %object
 326              		.size	MaxRound, 1
 327              	MaxRound:
 328 0000 0A       		.byte	10
 329              		.bss
 330              		.align	2
 331              		.set	.LANCHOR0,. + 0
 332              		.type	Score, %object
 333              		.size	Score, 1
 334              	Score:
 335 0000 00       		.space	1
 336 0001 000000   		.space	3
 337              		.type	RandomTim, %object
 338              		.size	RandomTim, 4
 339              	RandomTim:
 340 0004 00000000 		.space	4
 341              		.type	Time, %object
 342              		.size	Time, 40
 343              	Time:
 344 0008 00000000 		.space	40
 344      00000000 
 344      00000000 
 344      00000000 
 344      00000000 
 345              		.type	Round, %object
 346              		.size	Round, 1
 347              	Round:
 348 0030 00       		.space	1
 349 0031 000000   		.space	3
 350              		.type	ticks, %object
 351              		.size	ticks, 4
 352              	ticks:
 353 0034 00000000 		.space	4
 354              		.text
 355              	.Letext0:
 356              		.file 2 "c:\\program files (x86)\\cypress\\psoc creator\\4.2\\psoc creator\\import\\gnu\\arm\\5.4.
 357              		.file 3 "c:\\program files (x86)\\cypress\\psoc creator\\4.2\\psoc creator\\import\\gnu\\arm\\5.4.
 358              		.file 4 "Generated_Source\\PSoC5/cytypes.h"
 359              		.file 5 "Generated_Source\\PSoC5/ErikaOS_1_common_ee_types.inc"
 360              		.file 6 "Generated_Source\\PSoC5/ErikaOS_1_cortex_mx_ee_cpu.inc"
 361              		.file 7 ".\\source\\bsw/global.h"
ARM GAS  C:\Users\Reza\AppData\Local\Temp\ccyUUHbN.s 			page 10


 362              		.file 8 ".\\source\\bsw/button.h"
 363              		.file 9 ".\\source\\bsw/seven.h"
 364              		.file 10 "Generated_Source\\PSoC5/ErikaOS_1_ee_oo_intfunc.inc"
 365              		.file 11 "Generated_Source\\PSoC5/ErikaOS_1_cortex_mx_ee_context.inc"
 366              		.file 12 "Generated_Source\\PSoC5/ErikaOS_1_common_ee_primitives.inc"
 367              		.file 13 "Generated_Source\\PSoC5/core_cm3.h"
 368              		.file 14 ".\\source\\bsw/uart.h"
 369              		.file 15 "c:\\program files (x86)\\cypress\\psoc creator\\4.2\\psoc creator\\import\\gnu\\arm\\5.4