ARM GAS  C:\Users\Reza\AppData\Local\Temp\ccgubnqn.s 			page 1


   1              		.syntax unified
   2              		.cpu cortex-m3
   3              		.fpu softvfp
   4              		.eabi_attribute 20, 1
   5              		.eabi_attribute 21, 1
   6              		.eabi_attribute 23, 3
   7              		.eabi_attribute 24, 1
   8              		.eabi_attribute 25, 1
   9              		.eabi_attribute 26, 1
  10              		.eabi_attribute 30, 4
  11              		.eabi_attribute 34, 1
  12              		.eabi_attribute 18, 4
  13              		.thumb
  14              		.syntax unified
  15              		.file	"UART_LOG.c"
  16              		.text
  17              	.Ltext0:
  18              		.cfi_sections	.debug_frame
  19              		.section	.text.UART_LOG_Init,"ax",%progbits
  20              		.align	1
  21              		.global	UART_LOG_Init
  22              		.thumb
  23              		.thumb_func
  24              		.type	UART_LOG_Init, %function
  25              	UART_LOG_Init:
  26              	.LFB1:
  27              		.file 1 "Generated_Source\\PSoC5\\UART_LOG.c"
   1:Generated_Source\PSoC5/UART_LOG.c **** /*******************************************************************************
   2:Generated_Source\PSoC5/UART_LOG.c **** * File Name: UART_LOG.c
   3:Generated_Source\PSoC5/UART_LOG.c **** * Version 2.50
   4:Generated_Source\PSoC5/UART_LOG.c **** *
   5:Generated_Source\PSoC5/UART_LOG.c **** * Description:
   6:Generated_Source\PSoC5/UART_LOG.c **** *  This file provides all API functionality of the UART component
   7:Generated_Source\PSoC5/UART_LOG.c **** *
   8:Generated_Source\PSoC5/UART_LOG.c **** * Note:
   9:Generated_Source\PSoC5/UART_LOG.c **** *
  10:Generated_Source\PSoC5/UART_LOG.c **** ********************************************************************************
  11:Generated_Source\PSoC5/UART_LOG.c **** * Copyright 2008-2015, Cypress Semiconductor Corporation.  All rights reserved.
  12:Generated_Source\PSoC5/UART_LOG.c **** * You may use this file only in accordance with the license, terms, conditions,
  13:Generated_Source\PSoC5/UART_LOG.c **** * disclaimers, and limitations in the end user license agreement accompanying
  14:Generated_Source\PSoC5/UART_LOG.c **** * the software package with which this file was provided.
  15:Generated_Source\PSoC5/UART_LOG.c **** *******************************************************************************/
  16:Generated_Source\PSoC5/UART_LOG.c **** 
  17:Generated_Source\PSoC5/UART_LOG.c **** #include "UART_LOG.h"
  18:Generated_Source\PSoC5/UART_LOG.c **** #if (UART_LOG_INTERNAL_CLOCK_USED)
  19:Generated_Source\PSoC5/UART_LOG.c ****     #include "UART_LOG_IntClock.h"
  20:Generated_Source\PSoC5/UART_LOG.c **** #endif /* End UART_LOG_INTERNAL_CLOCK_USED */
  21:Generated_Source\PSoC5/UART_LOG.c **** 
  22:Generated_Source\PSoC5/UART_LOG.c **** 
  23:Generated_Source\PSoC5/UART_LOG.c **** /***************************************
  24:Generated_Source\PSoC5/UART_LOG.c **** * Global data allocation
  25:Generated_Source\PSoC5/UART_LOG.c **** ***************************************/
  26:Generated_Source\PSoC5/UART_LOG.c **** 
  27:Generated_Source\PSoC5/UART_LOG.c **** uint8 UART_LOG_initVar = 0u;
  28:Generated_Source\PSoC5/UART_LOG.c **** 
  29:Generated_Source\PSoC5/UART_LOG.c **** #if (UART_LOG_TX_INTERRUPT_ENABLED && UART_LOG_TX_ENABLED)
  30:Generated_Source\PSoC5/UART_LOG.c ****     volatile uint8 UART_LOG_txBuffer[UART_LOG_TX_BUFFER_SIZE];
ARM GAS  C:\Users\Reza\AppData\Local\Temp\ccgubnqn.s 			page 2


  31:Generated_Source\PSoC5/UART_LOG.c ****     volatile uint8 UART_LOG_txBufferRead = 0u;
  32:Generated_Source\PSoC5/UART_LOG.c ****     uint8 UART_LOG_txBufferWrite = 0u;
  33:Generated_Source\PSoC5/UART_LOG.c **** #endif /* (UART_LOG_TX_INTERRUPT_ENABLED && UART_LOG_TX_ENABLED) */
  34:Generated_Source\PSoC5/UART_LOG.c **** 
  35:Generated_Source\PSoC5/UART_LOG.c **** #if (UART_LOG_RX_INTERRUPT_ENABLED && (UART_LOG_RX_ENABLED || UART_LOG_HD_ENABLED))
  36:Generated_Source\PSoC5/UART_LOG.c ****     uint8 UART_LOG_errorStatus = 0u;
  37:Generated_Source\PSoC5/UART_LOG.c ****     volatile uint8 UART_LOG_rxBuffer[UART_LOG_RX_BUFFER_SIZE];
  38:Generated_Source\PSoC5/UART_LOG.c ****     volatile uint8 UART_LOG_rxBufferRead  = 0u;
  39:Generated_Source\PSoC5/UART_LOG.c ****     volatile uint8 UART_LOG_rxBufferWrite = 0u;
  40:Generated_Source\PSoC5/UART_LOG.c ****     volatile uint8 UART_LOG_rxBufferLoopDetect = 0u;
  41:Generated_Source\PSoC5/UART_LOG.c ****     volatile uint8 UART_LOG_rxBufferOverflow   = 0u;
  42:Generated_Source\PSoC5/UART_LOG.c ****     #if (UART_LOG_RXHW_ADDRESS_ENABLED)
  43:Generated_Source\PSoC5/UART_LOG.c ****         volatile uint8 UART_LOG_rxAddressMode = UART_LOG_RX_ADDRESS_MODE;
  44:Generated_Source\PSoC5/UART_LOG.c ****         volatile uint8 UART_LOG_rxAddressDetected = 0u;
  45:Generated_Source\PSoC5/UART_LOG.c ****     #endif /* (UART_LOG_RXHW_ADDRESS_ENABLED) */
  46:Generated_Source\PSoC5/UART_LOG.c **** #endif /* (UART_LOG_RX_INTERRUPT_ENABLED && (UART_LOG_RX_ENABLED || UART_LOG_HD_ENABLED)) */
  47:Generated_Source\PSoC5/UART_LOG.c **** 
  48:Generated_Source\PSoC5/UART_LOG.c **** 
  49:Generated_Source\PSoC5/UART_LOG.c **** /*******************************************************************************
  50:Generated_Source\PSoC5/UART_LOG.c **** * Function Name: UART_LOG_Start
  51:Generated_Source\PSoC5/UART_LOG.c **** ********************************************************************************
  52:Generated_Source\PSoC5/UART_LOG.c **** *
  53:Generated_Source\PSoC5/UART_LOG.c **** * Summary:
  54:Generated_Source\PSoC5/UART_LOG.c **** *  This is the preferred method to begin component operation.
  55:Generated_Source\PSoC5/UART_LOG.c **** *  UART_LOG_Start() sets the initVar variable, calls the
  56:Generated_Source\PSoC5/UART_LOG.c **** *  UART_LOG_Init() function, and then calls the
  57:Generated_Source\PSoC5/UART_LOG.c **** *  UART_LOG_Enable() function.
  58:Generated_Source\PSoC5/UART_LOG.c **** *
  59:Generated_Source\PSoC5/UART_LOG.c **** * Parameters:
  60:Generated_Source\PSoC5/UART_LOG.c **** *  None.
  61:Generated_Source\PSoC5/UART_LOG.c **** *
  62:Generated_Source\PSoC5/UART_LOG.c **** * Return:
  63:Generated_Source\PSoC5/UART_LOG.c **** *  None.
  64:Generated_Source\PSoC5/UART_LOG.c **** *
  65:Generated_Source\PSoC5/UART_LOG.c **** * Global variables:
  66:Generated_Source\PSoC5/UART_LOG.c **** *  The UART_LOG_intiVar variable is used to indicate initial
  67:Generated_Source\PSoC5/UART_LOG.c **** *  configuration of this component. The variable is initialized to zero (0u)
  68:Generated_Source\PSoC5/UART_LOG.c **** *  and set to one (1u) the first time UART_LOG_Start() is called. This
  69:Generated_Source\PSoC5/UART_LOG.c **** *  allows for component initialization without re-initialization in all
  70:Generated_Source\PSoC5/UART_LOG.c **** *  subsequent calls to the UART_LOG_Start() routine.
  71:Generated_Source\PSoC5/UART_LOG.c **** *
  72:Generated_Source\PSoC5/UART_LOG.c **** * Reentrant:
  73:Generated_Source\PSoC5/UART_LOG.c **** *  No.
  74:Generated_Source\PSoC5/UART_LOG.c **** *
  75:Generated_Source\PSoC5/UART_LOG.c **** *******************************************************************************/
  76:Generated_Source\PSoC5/UART_LOG.c **** void UART_LOG_Start(void) 
  77:Generated_Source\PSoC5/UART_LOG.c **** {
  78:Generated_Source\PSoC5/UART_LOG.c ****     /* If not initialized then initialize all required hardware and software */
  79:Generated_Source\PSoC5/UART_LOG.c ****     if(UART_LOG_initVar == 0u)
  80:Generated_Source\PSoC5/UART_LOG.c ****     {
  81:Generated_Source\PSoC5/UART_LOG.c ****         UART_LOG_Init();
  82:Generated_Source\PSoC5/UART_LOG.c ****         UART_LOG_initVar = 1u;
  83:Generated_Source\PSoC5/UART_LOG.c ****     }
  84:Generated_Source\PSoC5/UART_LOG.c **** 
  85:Generated_Source\PSoC5/UART_LOG.c ****     UART_LOG_Enable();
  86:Generated_Source\PSoC5/UART_LOG.c **** }
  87:Generated_Source\PSoC5/UART_LOG.c **** 
ARM GAS  C:\Users\Reza\AppData\Local\Temp\ccgubnqn.s 			page 3


  88:Generated_Source\PSoC5/UART_LOG.c **** 
  89:Generated_Source\PSoC5/UART_LOG.c **** /*******************************************************************************
  90:Generated_Source\PSoC5/UART_LOG.c **** * Function Name: UART_LOG_Init
  91:Generated_Source\PSoC5/UART_LOG.c **** ********************************************************************************
  92:Generated_Source\PSoC5/UART_LOG.c **** *
  93:Generated_Source\PSoC5/UART_LOG.c **** * Summary:
  94:Generated_Source\PSoC5/UART_LOG.c **** *  Initializes or restores the component according to the customizer Configure
  95:Generated_Source\PSoC5/UART_LOG.c **** *  dialog settings. It is not necessary to call UART_LOG_Init() because
  96:Generated_Source\PSoC5/UART_LOG.c **** *  the UART_LOG_Start() API calls this function and is the preferred
  97:Generated_Source\PSoC5/UART_LOG.c **** *  method to begin component operation.
  98:Generated_Source\PSoC5/UART_LOG.c **** *
  99:Generated_Source\PSoC5/UART_LOG.c **** * Parameters:
 100:Generated_Source\PSoC5/UART_LOG.c **** *  None.
 101:Generated_Source\PSoC5/UART_LOG.c **** *
 102:Generated_Source\PSoC5/UART_LOG.c **** * Return:
 103:Generated_Source\PSoC5/UART_LOG.c **** *  None.
 104:Generated_Source\PSoC5/UART_LOG.c **** *
 105:Generated_Source\PSoC5/UART_LOG.c **** *******************************************************************************/
 106:Generated_Source\PSoC5/UART_LOG.c **** void UART_LOG_Init(void) 
 107:Generated_Source\PSoC5/UART_LOG.c **** {
  28              		.loc 1 107 0
  29              		.cfi_startproc
  30              		@ args = 0, pretend = 0, frame = 0
  31              		@ frame_needed = 0, uses_anonymous_args = 0
  32              		@ link register save eliminated.
 108:Generated_Source\PSoC5/UART_LOG.c ****     #if(UART_LOG_RX_ENABLED || UART_LOG_HD_ENABLED)
 109:Generated_Source\PSoC5/UART_LOG.c **** 
 110:Generated_Source\PSoC5/UART_LOG.c ****         #if (UART_LOG_RX_INTERRUPT_ENABLED)
 111:Generated_Source\PSoC5/UART_LOG.c ****             /* Set RX interrupt vector and priority */
 112:Generated_Source\PSoC5/UART_LOG.c ****             (void) CyIntSetVector(UART_LOG_RX_VECT_NUM, &UART_LOG_RXISR);
 113:Generated_Source\PSoC5/UART_LOG.c ****             CyIntSetPriority(UART_LOG_RX_VECT_NUM, UART_LOG_RX_PRIOR_NUM);
 114:Generated_Source\PSoC5/UART_LOG.c ****             UART_LOG_errorStatus = 0u;
 115:Generated_Source\PSoC5/UART_LOG.c ****         #endif /* (UART_LOG_RX_INTERRUPT_ENABLED) */
 116:Generated_Source\PSoC5/UART_LOG.c **** 
 117:Generated_Source\PSoC5/UART_LOG.c ****         #if (UART_LOG_RXHW_ADDRESS_ENABLED)
 118:Generated_Source\PSoC5/UART_LOG.c ****             UART_LOG_SetRxAddressMode(UART_LOG_RX_ADDRESS_MODE);
 119:Generated_Source\PSoC5/UART_LOG.c ****             UART_LOG_SetRxAddress1(UART_LOG_RX_HW_ADDRESS1);
 120:Generated_Source\PSoC5/UART_LOG.c ****             UART_LOG_SetRxAddress2(UART_LOG_RX_HW_ADDRESS2);
 121:Generated_Source\PSoC5/UART_LOG.c ****         #endif /* End UART_LOG_RXHW_ADDRESS_ENABLED */
 122:Generated_Source\PSoC5/UART_LOG.c **** 
 123:Generated_Source\PSoC5/UART_LOG.c ****         /* Init Count7 period */
 124:Generated_Source\PSoC5/UART_LOG.c ****         UART_LOG_RXBITCTR_PERIOD_REG = UART_LOG_RXBITCTR_INIT;
  33              		.loc 1 124 0
  34 0000 084B     		ldr	r3, .L2
  35 0002 7222     		movs	r2, #114
  36 0004 1A70     		strb	r2, [r3]
 125:Generated_Source\PSoC5/UART_LOG.c ****         /* Configure the Initial RX interrupt mask */
 126:Generated_Source\PSoC5/UART_LOG.c ****         UART_LOG_RXSTATUS_MASK_REG  = UART_LOG_INIT_RX_INTERRUPTS_MASK;
  37              		.loc 1 126 0
  38 0006 2022     		movs	r2, #32
  39 0008 83F8FF20 		strb	r2, [r3, #255]
 127:Generated_Source\PSoC5/UART_LOG.c ****     #endif /* End UART_LOG_RX_ENABLED || UART_LOG_HD_ENABLED*/
 128:Generated_Source\PSoC5/UART_LOG.c **** 
 129:Generated_Source\PSoC5/UART_LOG.c ****     #if(UART_LOG_TX_ENABLED)
 130:Generated_Source\PSoC5/UART_LOG.c ****         #if (UART_LOG_TX_INTERRUPT_ENABLED)
 131:Generated_Source\PSoC5/UART_LOG.c ****             /* Set TX interrupt vector and priority */
 132:Generated_Source\PSoC5/UART_LOG.c ****             (void) CyIntSetVector(UART_LOG_TX_VECT_NUM, &UART_LOG_TXISR);
ARM GAS  C:\Users\Reza\AppData\Local\Temp\ccgubnqn.s 			page 4


 133:Generated_Source\PSoC5/UART_LOG.c ****             CyIntSetPriority(UART_LOG_TX_VECT_NUM, UART_LOG_TX_PRIOR_NUM);
 134:Generated_Source\PSoC5/UART_LOG.c ****         #endif /* (UART_LOG_TX_INTERRUPT_ENABLED) */
 135:Generated_Source\PSoC5/UART_LOG.c **** 
 136:Generated_Source\PSoC5/UART_LOG.c ****         /* Write Counter Value for TX Bit Clk Generator*/
 137:Generated_Source\PSoC5/UART_LOG.c ****         #if (UART_LOG_TXCLKGEN_DP)
 138:Generated_Source\PSoC5/UART_LOG.c ****             UART_LOG_TXBITCLKGEN_CTR_REG = UART_LOG_BIT_CENTER;
  40              		.loc 1 138 0
  41 000c 0622     		movs	r2, #6
  42 000e 83F89D20 		strb	r2, [r3, #157]
 139:Generated_Source\PSoC5/UART_LOG.c ****             UART_LOG_TXBITCLKTX_COMPLETE_REG = ((UART_LOG_NUMBER_OF_DATA_BITS +
  43              		.loc 1 139 0
  44 0012 4722     		movs	r2, #71
  45 0014 83F8AD20 		strb	r2, [r3, #173]
 138:Generated_Source\PSoC5/UART_LOG.c ****             UART_LOG_TXBITCLKTX_COMPLETE_REG = ((UART_LOG_NUMBER_OF_DATA_BITS +
  46              		.loc 1 138 0
  47 0018 9D33     		adds	r3, r3, #157
 140:Generated_Source\PSoC5/UART_LOG.c ****                         UART_LOG_NUMBER_OF_START_BIT) * UART_LOG_OVER_SAMPLE_COUNT) - 1u;
 141:Generated_Source\PSoC5/UART_LOG.c ****         #else
 142:Generated_Source\PSoC5/UART_LOG.c ****             UART_LOG_TXBITCTR_PERIOD_REG = ((UART_LOG_NUMBER_OF_DATA_BITS +
 143:Generated_Source\PSoC5/UART_LOG.c ****                         UART_LOG_NUMBER_OF_START_BIT) * UART_LOG_OVER_SAMPLE_8) - 1u;
 144:Generated_Source\PSoC5/UART_LOG.c ****         #endif /* End UART_LOG_TXCLKGEN_DP */
 145:Generated_Source\PSoC5/UART_LOG.c **** 
 146:Generated_Source\PSoC5/UART_LOG.c ****         /* Configure the Initial TX interrupt mask */
 147:Generated_Source\PSoC5/UART_LOG.c ****         #if (UART_LOG_TX_INTERRUPT_ENABLED)
 148:Generated_Source\PSoC5/UART_LOG.c ****             UART_LOG_TXSTATUS_MASK_REG = UART_LOG_TX_STS_FIFO_EMPTY;
 149:Generated_Source\PSoC5/UART_LOG.c ****         #else
 150:Generated_Source\PSoC5/UART_LOG.c ****             UART_LOG_TXSTATUS_MASK_REG = UART_LOG_INIT_TX_INTERRUPTS_MASK;
  48              		.loc 1 150 0
  49 001a 0022     		movs	r2, #0
  50 001c 03F8A02C 		strb	r2, [r3, #-160]
  51 0020 7047     		bx	lr
  52              	.L3:
  53 0022 00BF     		.align	2
  54              	.L2:
  55 0024 89640040 		.word	1073767561
  56              		.cfi_endproc
  57              	.LFE1:
  58              		.size	UART_LOG_Init, .-UART_LOG_Init
  59              		.section	.text.UART_LOG_Enable,"ax",%progbits
  60              		.align	1
  61              		.global	UART_LOG_Enable
  62              		.thumb
  63              		.thumb_func
  64              		.type	UART_LOG_Enable, %function
  65              	UART_LOG_Enable:
  66              	.LFB2:
 151:Generated_Source\PSoC5/UART_LOG.c ****         #endif /*End UART_LOG_TX_INTERRUPT_ENABLED*/
 152:Generated_Source\PSoC5/UART_LOG.c **** 
 153:Generated_Source\PSoC5/UART_LOG.c ****     #endif /* End UART_LOG_TX_ENABLED */
 154:Generated_Source\PSoC5/UART_LOG.c **** 
 155:Generated_Source\PSoC5/UART_LOG.c ****     #if(UART_LOG_PARITY_TYPE_SW)  /* Write Parity to Control Register */
 156:Generated_Source\PSoC5/UART_LOG.c ****         UART_LOG_WriteControlRegister( \
 157:Generated_Source\PSoC5/UART_LOG.c ****             (UART_LOG_ReadControlRegister() & (uint8)~UART_LOG_CTRL_PARITY_TYPE_MASK) | \
 158:Generated_Source\PSoC5/UART_LOG.c ****             (uint8)(UART_LOG_PARITY_TYPE << UART_LOG_CTRL_PARITY_TYPE0_SHIFT) );
 159:Generated_Source\PSoC5/UART_LOG.c ****     #endif /* End UART_LOG_PARITY_TYPE_SW */
 160:Generated_Source\PSoC5/UART_LOG.c **** }
 161:Generated_Source\PSoC5/UART_LOG.c **** 
ARM GAS  C:\Users\Reza\AppData\Local\Temp\ccgubnqn.s 			page 5


 162:Generated_Source\PSoC5/UART_LOG.c **** 
 163:Generated_Source\PSoC5/UART_LOG.c **** /*******************************************************************************
 164:Generated_Source\PSoC5/UART_LOG.c **** * Function Name: UART_LOG_Enable
 165:Generated_Source\PSoC5/UART_LOG.c **** ********************************************************************************
 166:Generated_Source\PSoC5/UART_LOG.c **** *
 167:Generated_Source\PSoC5/UART_LOG.c **** * Summary:
 168:Generated_Source\PSoC5/UART_LOG.c **** *  Activates the hardware and begins component operation. It is not necessary
 169:Generated_Source\PSoC5/UART_LOG.c **** *  to call UART_LOG_Enable() because the UART_LOG_Start() API
 170:Generated_Source\PSoC5/UART_LOG.c **** *  calls this function, which is the preferred method to begin component
 171:Generated_Source\PSoC5/UART_LOG.c **** *  operation.
 172:Generated_Source\PSoC5/UART_LOG.c **** 
 173:Generated_Source\PSoC5/UART_LOG.c **** * Parameters:
 174:Generated_Source\PSoC5/UART_LOG.c **** *  None.
 175:Generated_Source\PSoC5/UART_LOG.c **** *
 176:Generated_Source\PSoC5/UART_LOG.c **** * Return:
 177:Generated_Source\PSoC5/UART_LOG.c **** *  None.
 178:Generated_Source\PSoC5/UART_LOG.c **** *
 179:Generated_Source\PSoC5/UART_LOG.c **** * Global Variables:
 180:Generated_Source\PSoC5/UART_LOG.c **** *  UART_LOG_rxAddressDetected - set to initial state (0).
 181:Generated_Source\PSoC5/UART_LOG.c **** *
 182:Generated_Source\PSoC5/UART_LOG.c **** *******************************************************************************/
 183:Generated_Source\PSoC5/UART_LOG.c **** void UART_LOG_Enable(void) 
 184:Generated_Source\PSoC5/UART_LOG.c **** {
  67              		.loc 1 184 0
  68              		.cfi_startproc
  69              		@ args = 0, pretend = 0, frame = 0
  70              		@ frame_needed = 0, uses_anonymous_args = 0
  71 0000 10B5     		push	{r4, lr}
  72              		.cfi_def_cfa_offset 8
  73              		.cfi_offset 4, -8
  74              		.cfi_offset 14, -4
 185:Generated_Source\PSoC5/UART_LOG.c ****     uint8 enableInterrupts;
 186:Generated_Source\PSoC5/UART_LOG.c ****     enableInterrupts = CyEnterCriticalSection();
  75              		.loc 1 186 0
  76 0002 FFF7FEFF 		bl	CyEnterCriticalSection
  77              	.LVL0:
  78 0006 0446     		mov	r4, r0
  79              	.LVL1:
 187:Generated_Source\PSoC5/UART_LOG.c **** 
 188:Generated_Source\PSoC5/UART_LOG.c ****     #if (UART_LOG_RX_ENABLED || UART_LOG_HD_ENABLED)
 189:Generated_Source\PSoC5/UART_LOG.c ****         /* RX Counter (Count7) Enable */
 190:Generated_Source\PSoC5/UART_LOG.c ****         UART_LOG_RXBITCTR_CONTROL_REG |= UART_LOG_CNTR_ENABLE;
  80              		.loc 1 190 0
  81 0008 0B4A     		ldr	r2, .L5
  82 000a 1378     		ldrb	r3, [r2]	@ zero_extendqisi2
 191:Generated_Source\PSoC5/UART_LOG.c **** 
 192:Generated_Source\PSoC5/UART_LOG.c ****         /* Enable the RX Interrupt */
 193:Generated_Source\PSoC5/UART_LOG.c ****         UART_LOG_RXSTATUS_ACTL_REG  |= UART_LOG_INT_ENABLE;
 194:Generated_Source\PSoC5/UART_LOG.c **** 
 195:Generated_Source\PSoC5/UART_LOG.c ****         #if (UART_LOG_RX_INTERRUPT_ENABLED)
 196:Generated_Source\PSoC5/UART_LOG.c ****             UART_LOG_EnableRxInt();
 197:Generated_Source\PSoC5/UART_LOG.c **** 
 198:Generated_Source\PSoC5/UART_LOG.c ****             #if (UART_LOG_RXHW_ADDRESS_ENABLED)
 199:Generated_Source\PSoC5/UART_LOG.c ****                 UART_LOG_rxAddressDetected = 0u;
 200:Generated_Source\PSoC5/UART_LOG.c ****             #endif /* (UART_LOG_RXHW_ADDRESS_ENABLED) */
 201:Generated_Source\PSoC5/UART_LOG.c ****         #endif /* (UART_LOG_RX_INTERRUPT_ENABLED) */
 202:Generated_Source\PSoC5/UART_LOG.c ****     #endif /* (UART_LOG_RX_ENABLED || UART_LOG_HD_ENABLED) */
ARM GAS  C:\Users\Reza\AppData\Local\Temp\ccgubnqn.s 			page 6


 203:Generated_Source\PSoC5/UART_LOG.c **** 
 204:Generated_Source\PSoC5/UART_LOG.c ****     #if(UART_LOG_TX_ENABLED)
 205:Generated_Source\PSoC5/UART_LOG.c ****         /* TX Counter (DP/Count7) Enable */
 206:Generated_Source\PSoC5/UART_LOG.c ****         #if(!UART_LOG_TXCLKGEN_DP)
 207:Generated_Source\PSoC5/UART_LOG.c ****             UART_LOG_TXBITCTR_CONTROL_REG |= UART_LOG_CNTR_ENABLE;
 208:Generated_Source\PSoC5/UART_LOG.c ****         #endif /* End UART_LOG_TXCLKGEN_DP */
 209:Generated_Source\PSoC5/UART_LOG.c **** 
 210:Generated_Source\PSoC5/UART_LOG.c ****         /* Enable the TX Interrupt */
 211:Generated_Source\PSoC5/UART_LOG.c ****         UART_LOG_TXSTATUS_ACTL_REG |= UART_LOG_INT_ENABLE;
  83              		.loc 1 211 0
  84 000c 033A     		subs	r2, r2, #3
 190:Generated_Source\PSoC5/UART_LOG.c **** 
  85              		.loc 1 190 0
  86 000e 43F02003 		orr	r3, r3, #32
  87 0012 D370     		strb	r3, [r2, #3]
 193:Generated_Source\PSoC5/UART_LOG.c **** 
  88              		.loc 1 193 0
  89 0014 92F80231 		ldrb	r3, [r2, #258]	@ zero_extendqisi2
  90 0018 43F01003 		orr	r3, r3, #16
  91 001c 82F80231 		strb	r3, [r2, #258]
  92              		.loc 1 211 0
  93 0020 1378     		ldrb	r3, [r2]	@ zero_extendqisi2
  94 0022 43F01003 		orr	r3, r3, #16
  95 0026 1370     		strb	r3, [r2]
 212:Generated_Source\PSoC5/UART_LOG.c ****         #if (UART_LOG_TX_INTERRUPT_ENABLED)
 213:Generated_Source\PSoC5/UART_LOG.c ****             UART_LOG_ClearPendingTxInt(); /* Clear history of TX_NOT_EMPTY */
 214:Generated_Source\PSoC5/UART_LOG.c ****             UART_LOG_EnableTxInt();
 215:Generated_Source\PSoC5/UART_LOG.c ****         #endif /* (UART_LOG_TX_INTERRUPT_ENABLED) */
 216:Generated_Source\PSoC5/UART_LOG.c ****      #endif /* (UART_LOG_TX_INTERRUPT_ENABLED) */
 217:Generated_Source\PSoC5/UART_LOG.c **** 
 218:Generated_Source\PSoC5/UART_LOG.c ****     #if (UART_LOG_INTERNAL_CLOCK_USED)
 219:Generated_Source\PSoC5/UART_LOG.c ****         UART_LOG_IntClock_Start();  /* Enable the clock */
  96              		.loc 1 219 0
  97 0028 FFF7FEFF 		bl	UART_LOG_IntClock_Start
  98              	.LVL2:
 220:Generated_Source\PSoC5/UART_LOG.c ****     #endif /* (UART_LOG_INTERNAL_CLOCK_USED) */
 221:Generated_Source\PSoC5/UART_LOG.c **** 
 222:Generated_Source\PSoC5/UART_LOG.c ****     CyExitCriticalSection(enableInterrupts);
  99              		.loc 1 222 0
 100 002c 2046     		mov	r0, r4
 223:Generated_Source\PSoC5/UART_LOG.c **** }
 101              		.loc 1 223 0
 102 002e BDE81040 		pop	{r4, lr}
 103              		.cfi_restore 14
 104              		.cfi_restore 4
 105              		.cfi_def_cfa_offset 0
 106              	.LVL3:
 222:Generated_Source\PSoC5/UART_LOG.c **** }
 107              		.loc 1 222 0
 108 0032 FFF7FEBF 		b	CyExitCriticalSection
 109              	.LVL4:
 110              	.L6:
 111 0036 00BF     		.align	2
 112              	.L5:
 113 0038 99640040 		.word	1073767577
 114              		.cfi_endproc
 115              	.LFE2:
ARM GAS  C:\Users\Reza\AppData\Local\Temp\ccgubnqn.s 			page 7


 116              		.size	UART_LOG_Enable, .-UART_LOG_Enable
 117              		.section	.text.UART_LOG_Start,"ax",%progbits
 118              		.align	1
 119              		.global	UART_LOG_Start
 120              		.thumb
 121              		.thumb_func
 122              		.type	UART_LOG_Start, %function
 123              	UART_LOG_Start:
 124              	.LFB0:
  77:Generated_Source\PSoC5/UART_LOG.c ****     /* If not initialized then initialize all required hardware and software */
 125              		.loc 1 77 0
 126              		.cfi_startproc
 127              		@ args = 0, pretend = 0, frame = 0
 128              		@ frame_needed = 0, uses_anonymous_args = 0
 129 0000 08B5     		push	{r3, lr}
 130              		.cfi_def_cfa_offset 8
 131              		.cfi_offset 3, -8
 132              		.cfi_offset 14, -4
  79:Generated_Source\PSoC5/UART_LOG.c ****     {
 133              		.loc 1 79 0
 134 0002 0549     		ldr	r1, .L10
 135 0004 0B78     		ldrb	r3, [r1]	@ zero_extendqisi2
 136 0006 1BB9     		cbnz	r3, .L8
  81:Generated_Source\PSoC5/UART_LOG.c ****         UART_LOG_initVar = 1u;
 137              		.loc 1 81 0
 138 0008 FFF7FEFF 		bl	UART_LOG_Init
 139              	.LVL5:
  82:Generated_Source\PSoC5/UART_LOG.c ****     }
 140              		.loc 1 82 0
 141 000c 0123     		movs	r3, #1
 142 000e 0B70     		strb	r3, [r1]
 143              	.L8:
  86:Generated_Source\PSoC5/UART_LOG.c **** 
 144              		.loc 1 86 0
 145 0010 BDE80840 		pop	{r3, lr}
 146              		.cfi_restore 14
 147              		.cfi_restore 3
 148              		.cfi_def_cfa_offset 0
  85:Generated_Source\PSoC5/UART_LOG.c **** }
 149              		.loc 1 85 0
 150 0014 FFF7FEBF 		b	UART_LOG_Enable
 151              	.LVL6:
 152              	.L11:
 153              		.align	2
 154              	.L10:
 155 0018 00000000 		.word	.LANCHOR0
 156              		.cfi_endproc
 157              	.LFE0:
 158              		.size	UART_LOG_Start, .-UART_LOG_Start
 159              		.section	.text.UART_LOG_Stop,"ax",%progbits
 160              		.align	1
 161              		.global	UART_LOG_Stop
 162              		.thumb
 163              		.thumb_func
 164              		.type	UART_LOG_Stop, %function
 165              	UART_LOG_Stop:
 166              	.LFB3:
ARM GAS  C:\Users\Reza\AppData\Local\Temp\ccgubnqn.s 			page 8


 224:Generated_Source\PSoC5/UART_LOG.c **** 
 225:Generated_Source\PSoC5/UART_LOG.c **** 
 226:Generated_Source\PSoC5/UART_LOG.c **** /*******************************************************************************
 227:Generated_Source\PSoC5/UART_LOG.c **** * Function Name: UART_LOG_Stop
 228:Generated_Source\PSoC5/UART_LOG.c **** ********************************************************************************
 229:Generated_Source\PSoC5/UART_LOG.c **** *
 230:Generated_Source\PSoC5/UART_LOG.c **** * Summary:
 231:Generated_Source\PSoC5/UART_LOG.c **** *  Disables the UART operation.
 232:Generated_Source\PSoC5/UART_LOG.c **** *
 233:Generated_Source\PSoC5/UART_LOG.c **** * Parameters:
 234:Generated_Source\PSoC5/UART_LOG.c **** *  None.
 235:Generated_Source\PSoC5/UART_LOG.c **** *
 236:Generated_Source\PSoC5/UART_LOG.c **** * Return:
 237:Generated_Source\PSoC5/UART_LOG.c **** *  None.
 238:Generated_Source\PSoC5/UART_LOG.c **** *
 239:Generated_Source\PSoC5/UART_LOG.c **** *******************************************************************************/
 240:Generated_Source\PSoC5/UART_LOG.c **** void UART_LOG_Stop(void) 
 241:Generated_Source\PSoC5/UART_LOG.c **** {
 167              		.loc 1 241 0
 168              		.cfi_startproc
 169              		@ args = 0, pretend = 0, frame = 0
 170              		@ frame_needed = 0, uses_anonymous_args = 0
 171 0000 10B5     		push	{r4, lr}
 172              		.cfi_def_cfa_offset 8
 173              		.cfi_offset 4, -8
 174              		.cfi_offset 14, -4
 242:Generated_Source\PSoC5/UART_LOG.c ****     uint8 enableInterrupts;
 243:Generated_Source\PSoC5/UART_LOG.c ****     enableInterrupts = CyEnterCriticalSection();
 175              		.loc 1 243 0
 176 0002 FFF7FEFF 		bl	CyEnterCriticalSection
 177              	.LVL7:
 178 0006 0446     		mov	r4, r0
 179              	.LVL8:
 244:Generated_Source\PSoC5/UART_LOG.c **** 
 245:Generated_Source\PSoC5/UART_LOG.c ****     /* Write Bit Counter Disable */
 246:Generated_Source\PSoC5/UART_LOG.c ****     #if (UART_LOG_RX_ENABLED || UART_LOG_HD_ENABLED)
 247:Generated_Source\PSoC5/UART_LOG.c ****         UART_LOG_RXBITCTR_CONTROL_REG &= (uint8) ~UART_LOG_CNTR_ENABLE;
 180              		.loc 1 247 0
 181 0008 0B4A     		ldr	r2, .L13
 182 000a 1378     		ldrb	r3, [r2]	@ zero_extendqisi2
 183 000c 03F0DF03 		and	r3, r3, #223
 184 0010 1370     		strb	r3, [r2]
 248:Generated_Source\PSoC5/UART_LOG.c ****     #endif /* (UART_LOG_RX_ENABLED || UART_LOG_HD_ENABLED) */
 249:Generated_Source\PSoC5/UART_LOG.c **** 
 250:Generated_Source\PSoC5/UART_LOG.c ****     #if (UART_LOG_TX_ENABLED)
 251:Generated_Source\PSoC5/UART_LOG.c ****         #if(!UART_LOG_TXCLKGEN_DP)
 252:Generated_Source\PSoC5/UART_LOG.c ****             UART_LOG_TXBITCTR_CONTROL_REG &= (uint8) ~UART_LOG_CNTR_ENABLE;
 253:Generated_Source\PSoC5/UART_LOG.c ****         #endif /* (!UART_LOG_TXCLKGEN_DP) */
 254:Generated_Source\PSoC5/UART_LOG.c ****     #endif /* (UART_LOG_TX_ENABLED) */
 255:Generated_Source\PSoC5/UART_LOG.c **** 
 256:Generated_Source\PSoC5/UART_LOG.c ****     #if (UART_LOG_INTERNAL_CLOCK_USED)
 257:Generated_Source\PSoC5/UART_LOG.c ****         UART_LOG_IntClock_Stop();   /* Disable the clock */
 185              		.loc 1 257 0
 186 0012 FFF7FEFF 		bl	UART_LOG_IntClock_Stop
 187              	.LVL9:
 258:Generated_Source\PSoC5/UART_LOG.c ****     #endif /* (UART_LOG_INTERNAL_CLOCK_USED) */
 259:Generated_Source\PSoC5/UART_LOG.c **** 
ARM GAS  C:\Users\Reza\AppData\Local\Temp\ccgubnqn.s 			page 9


 260:Generated_Source\PSoC5/UART_LOG.c ****     /* Disable internal interrupt component */
 261:Generated_Source\PSoC5/UART_LOG.c ****     #if (UART_LOG_RX_ENABLED || UART_LOG_HD_ENABLED)
 262:Generated_Source\PSoC5/UART_LOG.c ****         UART_LOG_RXSTATUS_ACTL_REG  &= (uint8) ~UART_LOG_INT_ENABLE;
 188              		.loc 1 262 0
 189 0016 094A     		ldr	r2, .L13+4
 263:Generated_Source\PSoC5/UART_LOG.c **** 
 264:Generated_Source\PSoC5/UART_LOG.c ****         #if (UART_LOG_RX_INTERRUPT_ENABLED)
 265:Generated_Source\PSoC5/UART_LOG.c ****             UART_LOG_DisableRxInt();
 266:Generated_Source\PSoC5/UART_LOG.c ****         #endif /* (UART_LOG_RX_INTERRUPT_ENABLED) */
 267:Generated_Source\PSoC5/UART_LOG.c ****     #endif /* (UART_LOG_RX_ENABLED || UART_LOG_HD_ENABLED) */
 268:Generated_Source\PSoC5/UART_LOG.c **** 
 269:Generated_Source\PSoC5/UART_LOG.c ****     #if (UART_LOG_TX_ENABLED)
 270:Generated_Source\PSoC5/UART_LOG.c ****         UART_LOG_TXSTATUS_ACTL_REG &= (uint8) ~UART_LOG_INT_ENABLE;
 271:Generated_Source\PSoC5/UART_LOG.c **** 
 272:Generated_Source\PSoC5/UART_LOG.c ****         #if (UART_LOG_TX_INTERRUPT_ENABLED)
 273:Generated_Source\PSoC5/UART_LOG.c ****             UART_LOG_DisableTxInt();
 274:Generated_Source\PSoC5/UART_LOG.c ****         #endif /* (UART_LOG_TX_INTERRUPT_ENABLED) */
 275:Generated_Source\PSoC5/UART_LOG.c ****     #endif /* (UART_LOG_TX_ENABLED) */
 276:Generated_Source\PSoC5/UART_LOG.c **** 
 277:Generated_Source\PSoC5/UART_LOG.c ****     CyExitCriticalSection(enableInterrupts);
 190              		.loc 1 277 0
 191 0018 2046     		mov	r0, r4
 262:Generated_Source\PSoC5/UART_LOG.c **** 
 192              		.loc 1 262 0
 193 001a 1378     		ldrb	r3, [r2]	@ zero_extendqisi2
 270:Generated_Source\PSoC5/UART_LOG.c **** 
 194              		.loc 1 270 0
 195 001c A2F58172 		sub	r2, r2, #258
 262:Generated_Source\PSoC5/UART_LOG.c **** 
 196              		.loc 1 262 0
 197 0020 03F0EF03 		and	r3, r3, #239
 198 0024 82F80231 		strb	r3, [r2, #258]
 270:Generated_Source\PSoC5/UART_LOG.c **** 
 199              		.loc 1 270 0
 200 0028 1378     		ldrb	r3, [r2]	@ zero_extendqisi2
 201 002a 03F0EF03 		and	r3, r3, #239
 202 002e 1370     		strb	r3, [r2]
 278:Generated_Source\PSoC5/UART_LOG.c **** }
 203              		.loc 1 278 0
 204 0030 BDE81040 		pop	{r4, lr}
 205              		.cfi_restore 14
 206              		.cfi_restore 4
 207              		.cfi_def_cfa_offset 0
 208              	.LVL10:
 277:Generated_Source\PSoC5/UART_LOG.c **** }
 209              		.loc 1 277 0
 210 0034 FFF7FEBF 		b	CyExitCriticalSection
 211              	.LVL11:
 212              	.L14:
 213              		.align	2
 214              	.L13:
 215 0038 99640040 		.word	1073767577
 216 003c 98650040 		.word	1073767832
 217              		.cfi_endproc
 218              	.LFE3:
 219              		.size	UART_LOG_Stop, .-UART_LOG_Stop
 220              		.section	.text.UART_LOG_ReadControlRegister,"ax",%progbits
ARM GAS  C:\Users\Reza\AppData\Local\Temp\ccgubnqn.s 			page 10


 221              		.align	1
 222              		.global	UART_LOG_ReadControlRegister
 223              		.thumb
 224              		.thumb_func
 225              		.type	UART_LOG_ReadControlRegister, %function
 226              	UART_LOG_ReadControlRegister:
 227              	.LFB4:
 279:Generated_Source\PSoC5/UART_LOG.c **** 
 280:Generated_Source\PSoC5/UART_LOG.c **** 
 281:Generated_Source\PSoC5/UART_LOG.c **** /*******************************************************************************
 282:Generated_Source\PSoC5/UART_LOG.c **** * Function Name: UART_LOG_ReadControlRegister
 283:Generated_Source\PSoC5/UART_LOG.c **** ********************************************************************************
 284:Generated_Source\PSoC5/UART_LOG.c **** *
 285:Generated_Source\PSoC5/UART_LOG.c **** * Summary:
 286:Generated_Source\PSoC5/UART_LOG.c **** *  Returns the current value of the control register.
 287:Generated_Source\PSoC5/UART_LOG.c **** *
 288:Generated_Source\PSoC5/UART_LOG.c **** * Parameters:
 289:Generated_Source\PSoC5/UART_LOG.c **** *  None.
 290:Generated_Source\PSoC5/UART_LOG.c **** *
 291:Generated_Source\PSoC5/UART_LOG.c **** * Return:
 292:Generated_Source\PSoC5/UART_LOG.c **** *  Contents of the control register.
 293:Generated_Source\PSoC5/UART_LOG.c **** *
 294:Generated_Source\PSoC5/UART_LOG.c **** *******************************************************************************/
 295:Generated_Source\PSoC5/UART_LOG.c **** uint8 UART_LOG_ReadControlRegister(void) 
 296:Generated_Source\PSoC5/UART_LOG.c **** {
 228              		.loc 1 296 0
 229              		.cfi_startproc
 230              		@ args = 0, pretend = 0, frame = 0
 231              		@ frame_needed = 0, uses_anonymous_args = 0
 232              		@ link register save eliminated.
 297:Generated_Source\PSoC5/UART_LOG.c ****     #if (UART_LOG_CONTROL_REG_REMOVED)
 298:Generated_Source\PSoC5/UART_LOG.c ****         return(0u);
 299:Generated_Source\PSoC5/UART_LOG.c ****     #else
 300:Generated_Source\PSoC5/UART_LOG.c ****         return(UART_LOG_CONTROL_REG);
 301:Generated_Source\PSoC5/UART_LOG.c ****     #endif /* (UART_LOG_CONTROL_REG_REMOVED) */
 302:Generated_Source\PSoC5/UART_LOG.c **** }
 233              		.loc 1 302 0
 234 0000 0020     		movs	r0, #0
 235 0002 7047     		bx	lr
 236              		.cfi_endproc
 237              	.LFE4:
 238              		.size	UART_LOG_ReadControlRegister, .-UART_LOG_ReadControlRegister
 239              		.section	.text.UART_LOG_WriteControlRegister,"ax",%progbits
 240              		.align	1
 241              		.global	UART_LOG_WriteControlRegister
 242              		.thumb
 243              		.thumb_func
 244              		.type	UART_LOG_WriteControlRegister, %function
 245              	UART_LOG_WriteControlRegister:
 246              	.LFB30:
 247              		.cfi_startproc
 248              		@ args = 0, pretend = 0, frame = 0
 249              		@ frame_needed = 0, uses_anonymous_args = 0
 250              		@ link register save eliminated.
 251 0000 7047     		bx	lr
 252              		.cfi_endproc
 253              	.LFE30:
ARM GAS  C:\Users\Reza\AppData\Local\Temp\ccgubnqn.s 			page 11


 254              		.size	UART_LOG_WriteControlRegister, .-UART_LOG_WriteControlRegister
 255              		.section	.text.UART_LOG_SetRxInterruptMode,"ax",%progbits
 256              		.align	1
 257              		.global	UART_LOG_SetRxInterruptMode
 258              		.thumb
 259              		.thumb_func
 260              		.type	UART_LOG_SetRxInterruptMode, %function
 261              	UART_LOG_SetRxInterruptMode:
 262              	.LFB6:
 303:Generated_Source\PSoC5/UART_LOG.c **** 
 304:Generated_Source\PSoC5/UART_LOG.c **** 
 305:Generated_Source\PSoC5/UART_LOG.c **** /*******************************************************************************
 306:Generated_Source\PSoC5/UART_LOG.c **** * Function Name: UART_LOG_WriteControlRegister
 307:Generated_Source\PSoC5/UART_LOG.c **** ********************************************************************************
 308:Generated_Source\PSoC5/UART_LOG.c **** *
 309:Generated_Source\PSoC5/UART_LOG.c **** * Summary:
 310:Generated_Source\PSoC5/UART_LOG.c **** *  Writes an 8-bit value into the control register
 311:Generated_Source\PSoC5/UART_LOG.c **** *
 312:Generated_Source\PSoC5/UART_LOG.c **** * Parameters:
 313:Generated_Source\PSoC5/UART_LOG.c **** *  control:  control register value
 314:Generated_Source\PSoC5/UART_LOG.c **** *
 315:Generated_Source\PSoC5/UART_LOG.c **** * Return:
 316:Generated_Source\PSoC5/UART_LOG.c **** *  None.
 317:Generated_Source\PSoC5/UART_LOG.c **** *
 318:Generated_Source\PSoC5/UART_LOG.c **** *******************************************************************************/
 319:Generated_Source\PSoC5/UART_LOG.c **** void  UART_LOG_WriteControlRegister(uint8 control) 
 320:Generated_Source\PSoC5/UART_LOG.c **** {
 321:Generated_Source\PSoC5/UART_LOG.c ****     #if (UART_LOG_CONTROL_REG_REMOVED)
 322:Generated_Source\PSoC5/UART_LOG.c ****         if(0u != control)
 323:Generated_Source\PSoC5/UART_LOG.c ****         {
 324:Generated_Source\PSoC5/UART_LOG.c ****             /* Suppress compiler warning */
 325:Generated_Source\PSoC5/UART_LOG.c ****         }
 326:Generated_Source\PSoC5/UART_LOG.c ****     #else
 327:Generated_Source\PSoC5/UART_LOG.c ****        UART_LOG_CONTROL_REG = control;
 328:Generated_Source\PSoC5/UART_LOG.c ****     #endif /* (UART_LOG_CONTROL_REG_REMOVED) */
 329:Generated_Source\PSoC5/UART_LOG.c **** }
 330:Generated_Source\PSoC5/UART_LOG.c **** 
 331:Generated_Source\PSoC5/UART_LOG.c **** 
 332:Generated_Source\PSoC5/UART_LOG.c **** #if(UART_LOG_RX_ENABLED || UART_LOG_HD_ENABLED)
 333:Generated_Source\PSoC5/UART_LOG.c ****     /*******************************************************************************
 334:Generated_Source\PSoC5/UART_LOG.c ****     * Function Name: UART_LOG_SetRxInterruptMode
 335:Generated_Source\PSoC5/UART_LOG.c ****     ********************************************************************************
 336:Generated_Source\PSoC5/UART_LOG.c ****     *
 337:Generated_Source\PSoC5/UART_LOG.c ****     * Summary:
 338:Generated_Source\PSoC5/UART_LOG.c ****     *  Configures the RX interrupt sources enabled.
 339:Generated_Source\PSoC5/UART_LOG.c ****     *
 340:Generated_Source\PSoC5/UART_LOG.c ****     * Parameters:
 341:Generated_Source\PSoC5/UART_LOG.c ****     *  IntSrc:  Bit field containing the RX interrupts to enable. Based on the 
 342:Generated_Source\PSoC5/UART_LOG.c ****     *  bit-field arrangement of the status register. This value must be a 
 343:Generated_Source\PSoC5/UART_LOG.c ****     *  combination of status register bit-masks shown below:
 344:Generated_Source\PSoC5/UART_LOG.c ****     *      UART_LOG_RX_STS_FIFO_NOTEMPTY    Interrupt on byte received.
 345:Generated_Source\PSoC5/UART_LOG.c ****     *      UART_LOG_RX_STS_PAR_ERROR        Interrupt on parity error.
 346:Generated_Source\PSoC5/UART_LOG.c ****     *      UART_LOG_RX_STS_STOP_ERROR       Interrupt on stop error.
 347:Generated_Source\PSoC5/UART_LOG.c ****     *      UART_LOG_RX_STS_BREAK            Interrupt on break.
 348:Generated_Source\PSoC5/UART_LOG.c ****     *      UART_LOG_RX_STS_OVERRUN          Interrupt on overrun error.
 349:Generated_Source\PSoC5/UART_LOG.c ****     *      UART_LOG_RX_STS_ADDR_MATCH       Interrupt on address match.
 350:Generated_Source\PSoC5/UART_LOG.c ****     *      UART_LOG_RX_STS_MRKSPC           Interrupt on address detect.
ARM GAS  C:\Users\Reza\AppData\Local\Temp\ccgubnqn.s 			page 12


 351:Generated_Source\PSoC5/UART_LOG.c ****     *
 352:Generated_Source\PSoC5/UART_LOG.c ****     * Return:
 353:Generated_Source\PSoC5/UART_LOG.c ****     *  None.
 354:Generated_Source\PSoC5/UART_LOG.c ****     *
 355:Generated_Source\PSoC5/UART_LOG.c ****     * Theory:
 356:Generated_Source\PSoC5/UART_LOG.c ****     *  Enables the output of specific status bits to the interrupt controller
 357:Generated_Source\PSoC5/UART_LOG.c ****     *
 358:Generated_Source\PSoC5/UART_LOG.c ****     *******************************************************************************/
 359:Generated_Source\PSoC5/UART_LOG.c ****     void UART_LOG_SetRxInterruptMode(uint8 intSrc) 
 360:Generated_Source\PSoC5/UART_LOG.c ****     {
 263              		.loc 1 360 0
 264              		.cfi_startproc
 265              		@ args = 0, pretend = 0, frame = 0
 266              		@ frame_needed = 0, uses_anonymous_args = 0
 267              		@ link register save eliminated.
 268              	.LVL12:
 361:Generated_Source\PSoC5/UART_LOG.c ****         UART_LOG_RXSTATUS_MASK_REG  = intSrc;
 269              		.loc 1 361 0
 270 0000 014B     		ldr	r3, .L18
 271 0002 1870     		strb	r0, [r3]
 272 0004 7047     		bx	lr
 273              	.L19:
 274 0006 00BF     		.align	2
 275              	.L18:
 276 0008 88650040 		.word	1073767816
 277              		.cfi_endproc
 278              	.LFE6:
 279              		.size	UART_LOG_SetRxInterruptMode, .-UART_LOG_SetRxInterruptMode
 280              		.section	.text.UART_LOG_ReadRxData,"ax",%progbits
 281              		.align	1
 282              		.global	UART_LOG_ReadRxData
 283              		.thumb
 284              		.thumb_func
 285              		.type	UART_LOG_ReadRxData, %function
 286              	UART_LOG_ReadRxData:
 287              	.LFB7:
 362:Generated_Source\PSoC5/UART_LOG.c ****     }
 363:Generated_Source\PSoC5/UART_LOG.c **** 
 364:Generated_Source\PSoC5/UART_LOG.c **** 
 365:Generated_Source\PSoC5/UART_LOG.c ****     /*******************************************************************************
 366:Generated_Source\PSoC5/UART_LOG.c ****     * Function Name: UART_LOG_ReadRxData
 367:Generated_Source\PSoC5/UART_LOG.c ****     ********************************************************************************
 368:Generated_Source\PSoC5/UART_LOG.c ****     *
 369:Generated_Source\PSoC5/UART_LOG.c ****     * Summary:
 370:Generated_Source\PSoC5/UART_LOG.c ****     *  Returns the next byte of received data. This function returns data without
 371:Generated_Source\PSoC5/UART_LOG.c ****     *  checking the status. You must check the status separately.
 372:Generated_Source\PSoC5/UART_LOG.c ****     *
 373:Generated_Source\PSoC5/UART_LOG.c ****     * Parameters:
 374:Generated_Source\PSoC5/UART_LOG.c ****     *  None.
 375:Generated_Source\PSoC5/UART_LOG.c ****     *
 376:Generated_Source\PSoC5/UART_LOG.c ****     * Return:
 377:Generated_Source\PSoC5/UART_LOG.c ****     *  Received data from RX register
 378:Generated_Source\PSoC5/UART_LOG.c ****     *
 379:Generated_Source\PSoC5/UART_LOG.c ****     * Global Variables:
 380:Generated_Source\PSoC5/UART_LOG.c ****     *  UART_LOG_rxBuffer - RAM buffer pointer for save received data.
 381:Generated_Source\PSoC5/UART_LOG.c ****     *  UART_LOG_rxBufferWrite - cyclic index for write to rxBuffer,
 382:Generated_Source\PSoC5/UART_LOG.c ****     *     checked to identify new data.
ARM GAS  C:\Users\Reza\AppData\Local\Temp\ccgubnqn.s 			page 13


 383:Generated_Source\PSoC5/UART_LOG.c ****     *  UART_LOG_rxBufferRead - cyclic index for read from rxBuffer,
 384:Generated_Source\PSoC5/UART_LOG.c ****     *     incremented after each byte has been read from buffer.
 385:Generated_Source\PSoC5/UART_LOG.c ****     *  UART_LOG_rxBufferLoopDetect - cleared if loop condition was detected
 386:Generated_Source\PSoC5/UART_LOG.c ****     *     in RX ISR.
 387:Generated_Source\PSoC5/UART_LOG.c ****     *
 388:Generated_Source\PSoC5/UART_LOG.c ****     * Reentrant:
 389:Generated_Source\PSoC5/UART_LOG.c ****     *  No.
 390:Generated_Source\PSoC5/UART_LOG.c ****     *
 391:Generated_Source\PSoC5/UART_LOG.c ****     *******************************************************************************/
 392:Generated_Source\PSoC5/UART_LOG.c ****     uint8 UART_LOG_ReadRxData(void) 
 393:Generated_Source\PSoC5/UART_LOG.c ****     {
 288              		.loc 1 393 0
 289              		.cfi_startproc
 290              		@ args = 0, pretend = 0, frame = 0
 291              		@ frame_needed = 0, uses_anonymous_args = 0
 292              		@ link register save eliminated.
 394:Generated_Source\PSoC5/UART_LOG.c ****         uint8 rxData;
 395:Generated_Source\PSoC5/UART_LOG.c **** 
 396:Generated_Source\PSoC5/UART_LOG.c ****     #if (UART_LOG_RX_INTERRUPT_ENABLED)
 397:Generated_Source\PSoC5/UART_LOG.c **** 
 398:Generated_Source\PSoC5/UART_LOG.c ****         uint8 locRxBufferRead;
 399:Generated_Source\PSoC5/UART_LOG.c ****         uint8 locRxBufferWrite;
 400:Generated_Source\PSoC5/UART_LOG.c **** 
 401:Generated_Source\PSoC5/UART_LOG.c ****         /* Protect variables that could change on interrupt */
 402:Generated_Source\PSoC5/UART_LOG.c ****         UART_LOG_DisableRxInt();
 403:Generated_Source\PSoC5/UART_LOG.c **** 
 404:Generated_Source\PSoC5/UART_LOG.c ****         locRxBufferRead  = UART_LOG_rxBufferRead;
 405:Generated_Source\PSoC5/UART_LOG.c ****         locRxBufferWrite = UART_LOG_rxBufferWrite;
 406:Generated_Source\PSoC5/UART_LOG.c **** 
 407:Generated_Source\PSoC5/UART_LOG.c ****         if( (UART_LOG_rxBufferLoopDetect != 0u) || (locRxBufferRead != locRxBufferWrite) )
 408:Generated_Source\PSoC5/UART_LOG.c ****         {
 409:Generated_Source\PSoC5/UART_LOG.c ****             rxData = UART_LOG_rxBuffer[locRxBufferRead];
 410:Generated_Source\PSoC5/UART_LOG.c ****             locRxBufferRead++;
 411:Generated_Source\PSoC5/UART_LOG.c **** 
 412:Generated_Source\PSoC5/UART_LOG.c ****             if(locRxBufferRead >= UART_LOG_RX_BUFFER_SIZE)
 413:Generated_Source\PSoC5/UART_LOG.c ****             {
 414:Generated_Source\PSoC5/UART_LOG.c ****                 locRxBufferRead = 0u;
 415:Generated_Source\PSoC5/UART_LOG.c ****             }
 416:Generated_Source\PSoC5/UART_LOG.c ****             /* Update the real pointer */
 417:Generated_Source\PSoC5/UART_LOG.c ****             UART_LOG_rxBufferRead = locRxBufferRead;
 418:Generated_Source\PSoC5/UART_LOG.c **** 
 419:Generated_Source\PSoC5/UART_LOG.c ****             if(UART_LOG_rxBufferLoopDetect != 0u)
 420:Generated_Source\PSoC5/UART_LOG.c ****             {
 421:Generated_Source\PSoC5/UART_LOG.c ****                 UART_LOG_rxBufferLoopDetect = 0u;
 422:Generated_Source\PSoC5/UART_LOG.c ****                 #if ((UART_LOG_RX_INTERRUPT_ENABLED) && (UART_LOG_FLOW_CONTROL != 0u))
 423:Generated_Source\PSoC5/UART_LOG.c ****                     /* When Hardware Flow Control selected - return RX mask */
 424:Generated_Source\PSoC5/UART_LOG.c ****                     #if( UART_LOG_HD_ENABLED )
 425:Generated_Source\PSoC5/UART_LOG.c ****                         if((UART_LOG_CONTROL_REG & UART_LOG_CTRL_HD_SEND) == 0u)
 426:Generated_Source\PSoC5/UART_LOG.c ****                         {   /* In Half duplex mode return RX mask only in RX
 427:Generated_Source\PSoC5/UART_LOG.c ****                             *  configuration set, otherwise
 428:Generated_Source\PSoC5/UART_LOG.c ****                             *  mask will be returned in LoadRxConfig() API.
 429:Generated_Source\PSoC5/UART_LOG.c ****                             */
 430:Generated_Source\PSoC5/UART_LOG.c ****                             UART_LOG_RXSTATUS_MASK_REG  |= UART_LOG_RX_STS_FIFO_NOTEMPTY;
 431:Generated_Source\PSoC5/UART_LOG.c ****                         }
 432:Generated_Source\PSoC5/UART_LOG.c ****                     #else
 433:Generated_Source\PSoC5/UART_LOG.c ****                         UART_LOG_RXSTATUS_MASK_REG  |= UART_LOG_RX_STS_FIFO_NOTEMPTY;
 434:Generated_Source\PSoC5/UART_LOG.c ****                     #endif /* end UART_LOG_HD_ENABLED */
ARM GAS  C:\Users\Reza\AppData\Local\Temp\ccgubnqn.s 			page 14


 435:Generated_Source\PSoC5/UART_LOG.c ****                 #endif /* ((UART_LOG_RX_INTERRUPT_ENABLED) && (UART_LOG_FLOW_CONTROL != 0u)) */
 436:Generated_Source\PSoC5/UART_LOG.c ****             }
 437:Generated_Source\PSoC5/UART_LOG.c ****         }
 438:Generated_Source\PSoC5/UART_LOG.c ****         else
 439:Generated_Source\PSoC5/UART_LOG.c ****         {   /* Needs to check status for RX_STS_FIFO_NOTEMPTY bit */
 440:Generated_Source\PSoC5/UART_LOG.c ****             rxData = UART_LOG_RXDATA_REG;
 441:Generated_Source\PSoC5/UART_LOG.c ****         }
 442:Generated_Source\PSoC5/UART_LOG.c **** 
 443:Generated_Source\PSoC5/UART_LOG.c ****         UART_LOG_EnableRxInt();
 444:Generated_Source\PSoC5/UART_LOG.c **** 
 445:Generated_Source\PSoC5/UART_LOG.c ****     #else
 446:Generated_Source\PSoC5/UART_LOG.c **** 
 447:Generated_Source\PSoC5/UART_LOG.c ****         /* Needs to check status for RX_STS_FIFO_NOTEMPTY bit */
 448:Generated_Source\PSoC5/UART_LOG.c ****         rxData = UART_LOG_RXDATA_REG;
 293              		.loc 1 448 0
 294 0000 014B     		ldr	r3, .L21
 295 0002 1878     		ldrb	r0, [r3]	@ zero_extendqisi2
 296              	.LVL13:
 449:Generated_Source\PSoC5/UART_LOG.c **** 
 450:Generated_Source\PSoC5/UART_LOG.c ****     #endif /* (UART_LOG_RX_INTERRUPT_ENABLED) */
 451:Generated_Source\PSoC5/UART_LOG.c **** 
 452:Generated_Source\PSoC5/UART_LOG.c ****         return(rxData);
 453:Generated_Source\PSoC5/UART_LOG.c ****     }
 297              		.loc 1 453 0
 298 0004 7047     		bx	lr
 299              	.L22:
 300 0006 00BF     		.align	2
 301              	.L21:
 302 0008 47650040 		.word	1073767751
 303              		.cfi_endproc
 304              	.LFE7:
 305              		.size	UART_LOG_ReadRxData, .-UART_LOG_ReadRxData
 306              		.section	.text.UART_LOG_ReadRxStatus,"ax",%progbits
 307              		.align	1
 308              		.global	UART_LOG_ReadRxStatus
 309              		.thumb
 310              		.thumb_func
 311              		.type	UART_LOG_ReadRxStatus, %function
 312              	UART_LOG_ReadRxStatus:
 313              	.LFB8:
 454:Generated_Source\PSoC5/UART_LOG.c **** 
 455:Generated_Source\PSoC5/UART_LOG.c **** 
 456:Generated_Source\PSoC5/UART_LOG.c ****     /*******************************************************************************
 457:Generated_Source\PSoC5/UART_LOG.c ****     * Function Name: UART_LOG_ReadRxStatus
 458:Generated_Source\PSoC5/UART_LOG.c ****     ********************************************************************************
 459:Generated_Source\PSoC5/UART_LOG.c ****     *
 460:Generated_Source\PSoC5/UART_LOG.c ****     * Summary:
 461:Generated_Source\PSoC5/UART_LOG.c ****     *  Returns the current state of the receiver status register and the software
 462:Generated_Source\PSoC5/UART_LOG.c ****     *  buffer overflow status.
 463:Generated_Source\PSoC5/UART_LOG.c ****     *
 464:Generated_Source\PSoC5/UART_LOG.c ****     * Parameters:
 465:Generated_Source\PSoC5/UART_LOG.c ****     *  None.
 466:Generated_Source\PSoC5/UART_LOG.c ****     *
 467:Generated_Source\PSoC5/UART_LOG.c ****     * Return:
 468:Generated_Source\PSoC5/UART_LOG.c ****     *  Current state of the status register.
 469:Generated_Source\PSoC5/UART_LOG.c ****     *
 470:Generated_Source\PSoC5/UART_LOG.c ****     * Side Effect:
ARM GAS  C:\Users\Reza\AppData\Local\Temp\ccgubnqn.s 			page 15


 471:Generated_Source\PSoC5/UART_LOG.c ****     *  All status register bits are clear-on-read except
 472:Generated_Source\PSoC5/UART_LOG.c ****     *  UART_LOG_RX_STS_FIFO_NOTEMPTY.
 473:Generated_Source\PSoC5/UART_LOG.c ****     *  UART_LOG_RX_STS_FIFO_NOTEMPTY clears immediately after RX data
 474:Generated_Source\PSoC5/UART_LOG.c ****     *  register read.
 475:Generated_Source\PSoC5/UART_LOG.c ****     *
 476:Generated_Source\PSoC5/UART_LOG.c ****     * Global Variables:
 477:Generated_Source\PSoC5/UART_LOG.c ****     *  UART_LOG_rxBufferOverflow - used to indicate overload condition.
 478:Generated_Source\PSoC5/UART_LOG.c ****     *   It set to one in RX interrupt when there isn't free space in
 479:Generated_Source\PSoC5/UART_LOG.c ****     *   UART_LOG_rxBufferRead to write new data. This condition returned
 480:Generated_Source\PSoC5/UART_LOG.c ****     *   and cleared to zero by this API as an
 481:Generated_Source\PSoC5/UART_LOG.c ****     *   UART_LOG_RX_STS_SOFT_BUFF_OVER bit along with RX Status register
 482:Generated_Source\PSoC5/UART_LOG.c ****     *   bits.
 483:Generated_Source\PSoC5/UART_LOG.c ****     *
 484:Generated_Source\PSoC5/UART_LOG.c ****     *******************************************************************************/
 485:Generated_Source\PSoC5/UART_LOG.c ****     uint8 UART_LOG_ReadRxStatus(void) 
 486:Generated_Source\PSoC5/UART_LOG.c ****     {
 314              		.loc 1 486 0
 315              		.cfi_startproc
 316              		@ args = 0, pretend = 0, frame = 0
 317              		@ frame_needed = 0, uses_anonymous_args = 0
 318              		@ link register save eliminated.
 487:Generated_Source\PSoC5/UART_LOG.c ****         uint8 status;
 488:Generated_Source\PSoC5/UART_LOG.c **** 
 489:Generated_Source\PSoC5/UART_LOG.c ****         status = UART_LOG_RXSTATUS_REG & UART_LOG_RX_HW_MASK;
 319              		.loc 1 489 0
 320 0000 024B     		ldr	r3, .L24
 321 0002 1878     		ldrb	r0, [r3]	@ zero_extendqisi2
 322              	.LVL14:
 490:Generated_Source\PSoC5/UART_LOG.c **** 
 491:Generated_Source\PSoC5/UART_LOG.c ****     #if (UART_LOG_RX_INTERRUPT_ENABLED)
 492:Generated_Source\PSoC5/UART_LOG.c ****         if(UART_LOG_rxBufferOverflow != 0u)
 493:Generated_Source\PSoC5/UART_LOG.c ****         {
 494:Generated_Source\PSoC5/UART_LOG.c ****             status |= UART_LOG_RX_STS_SOFT_BUFF_OVER;
 495:Generated_Source\PSoC5/UART_LOG.c ****             UART_LOG_rxBufferOverflow = 0u;
 496:Generated_Source\PSoC5/UART_LOG.c ****         }
 497:Generated_Source\PSoC5/UART_LOG.c ****     #endif /* (UART_LOG_RX_INTERRUPT_ENABLED) */
 498:Generated_Source\PSoC5/UART_LOG.c **** 
 499:Generated_Source\PSoC5/UART_LOG.c ****         return(status);
 500:Generated_Source\PSoC5/UART_LOG.c ****     }
 323              		.loc 1 500 0
 324 0004 00F07F00 		and	r0, r0, #127
 325              	.LVL15:
 326 0008 7047     		bx	lr
 327              	.L25:
 328 000a 00BF     		.align	2
 329              	.L24:
 330 000c 68650040 		.word	1073767784
 331              		.cfi_endproc
 332              	.LFE8:
 333              		.size	UART_LOG_ReadRxStatus, .-UART_LOG_ReadRxStatus
 334              		.section	.text.UART_LOG_GetChar,"ax",%progbits
 335              		.align	1
 336              		.global	UART_LOG_GetChar
 337              		.thumb
 338              		.thumb_func
 339              		.type	UART_LOG_GetChar, %function
 340              	UART_LOG_GetChar:
ARM GAS  C:\Users\Reza\AppData\Local\Temp\ccgubnqn.s 			page 16


 341              	.LFB9:
 501:Generated_Source\PSoC5/UART_LOG.c **** 
 502:Generated_Source\PSoC5/UART_LOG.c **** 
 503:Generated_Source\PSoC5/UART_LOG.c ****     /*******************************************************************************
 504:Generated_Source\PSoC5/UART_LOG.c ****     * Function Name: UART_LOG_GetChar
 505:Generated_Source\PSoC5/UART_LOG.c ****     ********************************************************************************
 506:Generated_Source\PSoC5/UART_LOG.c ****     *
 507:Generated_Source\PSoC5/UART_LOG.c ****     * Summary:
 508:Generated_Source\PSoC5/UART_LOG.c ****     *  Returns the last received byte of data. UART_LOG_GetChar() is
 509:Generated_Source\PSoC5/UART_LOG.c ****     *  designed for ASCII characters and returns a uint8 where 1 to 255 are values
 510:Generated_Source\PSoC5/UART_LOG.c ****     *  for valid characters and 0 indicates an error occurred or no data is present.
 511:Generated_Source\PSoC5/UART_LOG.c ****     *
 512:Generated_Source\PSoC5/UART_LOG.c ****     * Parameters:
 513:Generated_Source\PSoC5/UART_LOG.c ****     *  None.
 514:Generated_Source\PSoC5/UART_LOG.c ****     *
 515:Generated_Source\PSoC5/UART_LOG.c ****     * Return:
 516:Generated_Source\PSoC5/UART_LOG.c ****     *  Character read from UART RX buffer. ASCII characters from 1 to 255 are valid.
 517:Generated_Source\PSoC5/UART_LOG.c ****     *  A returned zero signifies an error condition or no data available.
 518:Generated_Source\PSoC5/UART_LOG.c ****     *
 519:Generated_Source\PSoC5/UART_LOG.c ****     * Global Variables:
 520:Generated_Source\PSoC5/UART_LOG.c ****     *  UART_LOG_rxBuffer - RAM buffer pointer for save received data.
 521:Generated_Source\PSoC5/UART_LOG.c ****     *  UART_LOG_rxBufferWrite - cyclic index for write to rxBuffer,
 522:Generated_Source\PSoC5/UART_LOG.c ****     *     checked to identify new data.
 523:Generated_Source\PSoC5/UART_LOG.c ****     *  UART_LOG_rxBufferRead - cyclic index for read from rxBuffer,
 524:Generated_Source\PSoC5/UART_LOG.c ****     *     incremented after each byte has been read from buffer.
 525:Generated_Source\PSoC5/UART_LOG.c ****     *  UART_LOG_rxBufferLoopDetect - cleared if loop condition was detected
 526:Generated_Source\PSoC5/UART_LOG.c ****     *     in RX ISR.
 527:Generated_Source\PSoC5/UART_LOG.c ****     *
 528:Generated_Source\PSoC5/UART_LOG.c ****     * Reentrant:
 529:Generated_Source\PSoC5/UART_LOG.c ****     *  No.
 530:Generated_Source\PSoC5/UART_LOG.c ****     *
 531:Generated_Source\PSoC5/UART_LOG.c ****     *******************************************************************************/
 532:Generated_Source\PSoC5/UART_LOG.c ****     uint8 UART_LOG_GetChar(void) 
 533:Generated_Source\PSoC5/UART_LOG.c ****     {
 342              		.loc 1 533 0
 343              		.cfi_startproc
 344              		@ args = 0, pretend = 0, frame = 0
 345              		@ frame_needed = 0, uses_anonymous_args = 0
 346              		@ link register save eliminated.
 347              	.LVL16:
 534:Generated_Source\PSoC5/UART_LOG.c ****         uint8 rxData = 0u;
 535:Generated_Source\PSoC5/UART_LOG.c ****         uint8 rxStatus;
 536:Generated_Source\PSoC5/UART_LOG.c **** 
 537:Generated_Source\PSoC5/UART_LOG.c ****     #if (UART_LOG_RX_INTERRUPT_ENABLED)
 538:Generated_Source\PSoC5/UART_LOG.c ****         uint8 locRxBufferRead;
 539:Generated_Source\PSoC5/UART_LOG.c ****         uint8 locRxBufferWrite;
 540:Generated_Source\PSoC5/UART_LOG.c **** 
 541:Generated_Source\PSoC5/UART_LOG.c ****         /* Protect variables that could change on interrupt */
 542:Generated_Source\PSoC5/UART_LOG.c ****         UART_LOG_DisableRxInt();
 543:Generated_Source\PSoC5/UART_LOG.c **** 
 544:Generated_Source\PSoC5/UART_LOG.c ****         locRxBufferRead  = UART_LOG_rxBufferRead;
 545:Generated_Source\PSoC5/UART_LOG.c ****         locRxBufferWrite = UART_LOG_rxBufferWrite;
 546:Generated_Source\PSoC5/UART_LOG.c **** 
 547:Generated_Source\PSoC5/UART_LOG.c ****         if( (UART_LOG_rxBufferLoopDetect != 0u) || (locRxBufferRead != locRxBufferWrite) )
 548:Generated_Source\PSoC5/UART_LOG.c ****         {
 549:Generated_Source\PSoC5/UART_LOG.c ****             rxData = UART_LOG_rxBuffer[locRxBufferRead];
 550:Generated_Source\PSoC5/UART_LOG.c ****             locRxBufferRead++;
ARM GAS  C:\Users\Reza\AppData\Local\Temp\ccgubnqn.s 			page 17


 551:Generated_Source\PSoC5/UART_LOG.c ****             if(locRxBufferRead >= UART_LOG_RX_BUFFER_SIZE)
 552:Generated_Source\PSoC5/UART_LOG.c ****             {
 553:Generated_Source\PSoC5/UART_LOG.c ****                 locRxBufferRead = 0u;
 554:Generated_Source\PSoC5/UART_LOG.c ****             }
 555:Generated_Source\PSoC5/UART_LOG.c ****             /* Update the real pointer */
 556:Generated_Source\PSoC5/UART_LOG.c ****             UART_LOG_rxBufferRead = locRxBufferRead;
 557:Generated_Source\PSoC5/UART_LOG.c **** 
 558:Generated_Source\PSoC5/UART_LOG.c ****             if(UART_LOG_rxBufferLoopDetect != 0u)
 559:Generated_Source\PSoC5/UART_LOG.c ****             {
 560:Generated_Source\PSoC5/UART_LOG.c ****                 UART_LOG_rxBufferLoopDetect = 0u;
 561:Generated_Source\PSoC5/UART_LOG.c ****                 #if( (UART_LOG_RX_INTERRUPT_ENABLED) && (UART_LOG_FLOW_CONTROL != 0u) )
 562:Generated_Source\PSoC5/UART_LOG.c ****                     /* When Hardware Flow Control selected - return RX mask */
 563:Generated_Source\PSoC5/UART_LOG.c ****                     #if( UART_LOG_HD_ENABLED )
 564:Generated_Source\PSoC5/UART_LOG.c ****                         if((UART_LOG_CONTROL_REG & UART_LOG_CTRL_HD_SEND) == 0u)
 565:Generated_Source\PSoC5/UART_LOG.c ****                         {   /* In Half duplex mode return RX mask only if
 566:Generated_Source\PSoC5/UART_LOG.c ****                             *  RX configuration set, otherwise
 567:Generated_Source\PSoC5/UART_LOG.c ****                             *  mask will be returned in LoadRxConfig() API.
 568:Generated_Source\PSoC5/UART_LOG.c ****                             */
 569:Generated_Source\PSoC5/UART_LOG.c ****                             UART_LOG_RXSTATUS_MASK_REG |= UART_LOG_RX_STS_FIFO_NOTEMPTY;
 570:Generated_Source\PSoC5/UART_LOG.c ****                         }
 571:Generated_Source\PSoC5/UART_LOG.c ****                     #else
 572:Generated_Source\PSoC5/UART_LOG.c ****                         UART_LOG_RXSTATUS_MASK_REG |= UART_LOG_RX_STS_FIFO_NOTEMPTY;
 573:Generated_Source\PSoC5/UART_LOG.c ****                     #endif /* end UART_LOG_HD_ENABLED */
 574:Generated_Source\PSoC5/UART_LOG.c ****                 #endif /* UART_LOG_RX_INTERRUPT_ENABLED and Hardware flow control*/
 575:Generated_Source\PSoC5/UART_LOG.c ****             }
 576:Generated_Source\PSoC5/UART_LOG.c **** 
 577:Generated_Source\PSoC5/UART_LOG.c ****         }
 578:Generated_Source\PSoC5/UART_LOG.c ****         else
 579:Generated_Source\PSoC5/UART_LOG.c ****         {   rxStatus = UART_LOG_RXSTATUS_REG;
 580:Generated_Source\PSoC5/UART_LOG.c ****             if((rxStatus & UART_LOG_RX_STS_FIFO_NOTEMPTY) != 0u)
 581:Generated_Source\PSoC5/UART_LOG.c ****             {   /* Read received data from FIFO */
 582:Generated_Source\PSoC5/UART_LOG.c ****                 rxData = UART_LOG_RXDATA_REG;
 583:Generated_Source\PSoC5/UART_LOG.c ****                 /*Check status on error*/
 584:Generated_Source\PSoC5/UART_LOG.c ****                 if((rxStatus & (UART_LOG_RX_STS_BREAK | UART_LOG_RX_STS_PAR_ERROR |
 585:Generated_Source\PSoC5/UART_LOG.c ****                                 UART_LOG_RX_STS_STOP_ERROR | UART_LOG_RX_STS_OVERRUN)) != 0u)
 586:Generated_Source\PSoC5/UART_LOG.c ****                 {
 587:Generated_Source\PSoC5/UART_LOG.c ****                     rxData = 0u;
 588:Generated_Source\PSoC5/UART_LOG.c ****                 }
 589:Generated_Source\PSoC5/UART_LOG.c ****             }
 590:Generated_Source\PSoC5/UART_LOG.c ****         }
 591:Generated_Source\PSoC5/UART_LOG.c **** 
 592:Generated_Source\PSoC5/UART_LOG.c ****         UART_LOG_EnableRxInt();
 593:Generated_Source\PSoC5/UART_LOG.c **** 
 594:Generated_Source\PSoC5/UART_LOG.c ****     #else
 595:Generated_Source\PSoC5/UART_LOG.c **** 
 596:Generated_Source\PSoC5/UART_LOG.c ****         rxStatus =UART_LOG_RXSTATUS_REG;
 348              		.loc 1 596 0
 349 0000 074B     		ldr	r3, .L30
 350 0002 1B78     		ldrb	r3, [r3]	@ zero_extendqisi2
 351 0004 DBB2     		uxtb	r3, r3
 352              	.LVL17:
 597:Generated_Source\PSoC5/UART_LOG.c ****         if((rxStatus & UART_LOG_RX_STS_FIFO_NOTEMPTY) != 0u)
 353              		.loc 1 597 0
 354 0006 03F02002 		and	r2, r3, #32
 355 000a 02F0FF00 		and	r0, r2, #255
 356 000e 2AB1     		cbz	r2, .L27
 598:Generated_Source\PSoC5/UART_LOG.c ****         {
ARM GAS  C:\Users\Reza\AppData\Local\Temp\ccgubnqn.s 			page 18


 599:Generated_Source\PSoC5/UART_LOG.c ****             /* Read received data from FIFO */
 600:Generated_Source\PSoC5/UART_LOG.c ****             rxData = UART_LOG_RXDATA_REG;
 357              		.loc 1 600 0
 358 0010 044A     		ldr	r2, .L30+4
 601:Generated_Source\PSoC5/UART_LOG.c **** 
 602:Generated_Source\PSoC5/UART_LOG.c ****             /*Check status on error*/
 603:Generated_Source\PSoC5/UART_LOG.c ****             if((rxStatus & (UART_LOG_RX_STS_BREAK | UART_LOG_RX_STS_PAR_ERROR |
 359              		.loc 1 603 0
 360 0012 13F01E0F 		tst	r3, #30
 600:Generated_Source\PSoC5/UART_LOG.c **** 
 361              		.loc 1 600 0
 362 0016 1078     		ldrb	r0, [r2]	@ zero_extendqisi2
 363              	.LVL18:
 604:Generated_Source\PSoC5/UART_LOG.c ****                             UART_LOG_RX_STS_STOP_ERROR | UART_LOG_RX_STS_OVERRUN)) != 0u)
 605:Generated_Source\PSoC5/UART_LOG.c ****             {
 606:Generated_Source\PSoC5/UART_LOG.c ****                 rxData = 0u;
 364              		.loc 1 606 0
 365 0018 18BF     		it	ne
 366 001a 0020     		movne	r0, #0
 367              	.LVL19:
 368              	.L27:
 607:Generated_Source\PSoC5/UART_LOG.c ****             }
 608:Generated_Source\PSoC5/UART_LOG.c ****         }
 609:Generated_Source\PSoC5/UART_LOG.c ****     #endif /* (UART_LOG_RX_INTERRUPT_ENABLED) */
 610:Generated_Source\PSoC5/UART_LOG.c **** 
 611:Generated_Source\PSoC5/UART_LOG.c ****         return(rxData);
 612:Generated_Source\PSoC5/UART_LOG.c ****     }
 369              		.loc 1 612 0
 370 001c 7047     		bx	lr
 371              	.L31:
 372 001e 00BF     		.align	2
 373              	.L30:
 374 0020 68650040 		.word	1073767784
 375 0024 47650040 		.word	1073767751
 376              		.cfi_endproc
 377              	.LFE9:
 378              		.size	UART_LOG_GetChar, .-UART_LOG_GetChar
 379              		.section	.text.UART_LOG_GetByte,"ax",%progbits
 380              		.align	1
 381              		.global	UART_LOG_GetByte
 382              		.thumb
 383              		.thumb_func
 384              		.type	UART_LOG_GetByte, %function
 385              	UART_LOG_GetByte:
 386              	.LFB10:
 613:Generated_Source\PSoC5/UART_LOG.c **** 
 614:Generated_Source\PSoC5/UART_LOG.c **** 
 615:Generated_Source\PSoC5/UART_LOG.c ****     /*******************************************************************************
 616:Generated_Source\PSoC5/UART_LOG.c ****     * Function Name: UART_LOG_GetByte
 617:Generated_Source\PSoC5/UART_LOG.c ****     ********************************************************************************
 618:Generated_Source\PSoC5/UART_LOG.c ****     *
 619:Generated_Source\PSoC5/UART_LOG.c ****     * Summary:
 620:Generated_Source\PSoC5/UART_LOG.c ****     *  Reads UART RX buffer immediately, returns received character and error
 621:Generated_Source\PSoC5/UART_LOG.c ****     *  condition.
 622:Generated_Source\PSoC5/UART_LOG.c ****     *
 623:Generated_Source\PSoC5/UART_LOG.c ****     * Parameters:
 624:Generated_Source\PSoC5/UART_LOG.c ****     *  None.
ARM GAS  C:\Users\Reza\AppData\Local\Temp\ccgubnqn.s 			page 19


 625:Generated_Source\PSoC5/UART_LOG.c ****     *
 626:Generated_Source\PSoC5/UART_LOG.c ****     * Return:
 627:Generated_Source\PSoC5/UART_LOG.c ****     *  MSB contains status and LSB contains UART RX data. If the MSB is nonzero,
 628:Generated_Source\PSoC5/UART_LOG.c ****     *  an error has occurred.
 629:Generated_Source\PSoC5/UART_LOG.c ****     *
 630:Generated_Source\PSoC5/UART_LOG.c ****     * Reentrant:
 631:Generated_Source\PSoC5/UART_LOG.c ****     *  No.
 632:Generated_Source\PSoC5/UART_LOG.c ****     *
 633:Generated_Source\PSoC5/UART_LOG.c ****     *******************************************************************************/
 634:Generated_Source\PSoC5/UART_LOG.c ****     uint16 UART_LOG_GetByte(void) 
 635:Generated_Source\PSoC5/UART_LOG.c ****     {
 387              		.loc 1 635 0
 388              		.cfi_startproc
 389              		@ args = 0, pretend = 0, frame = 0
 390              		@ frame_needed = 0, uses_anonymous_args = 0
 391              		@ link register save eliminated.
 392              	.LBB6:
 393              	.LBB7:
 489:Generated_Source\PSoC5/UART_LOG.c **** 
 394              		.loc 1 489 0
 395 0000 044B     		ldr	r3, .L33
 396              	.LBE7:
 397              	.LBE6:
 398              	.LBB9:
 399              	.LBB10:
 448:Generated_Source\PSoC5/UART_LOG.c **** 
 400              		.loc 1 448 0
 401 0002 054A     		ldr	r2, .L33+4
 402              	.LBE10:
 403              	.LBE9:
 404              	.LBB12:
 405              	.LBB8:
 489:Generated_Source\PSoC5/UART_LOG.c **** 
 406              		.loc 1 489 0
 407 0004 1B78     		ldrb	r3, [r3]	@ zero_extendqisi2
 408              	.LBE8:
 409              	.LBE12:
 410              	.LBB13:
 411              	.LBB11:
 448:Generated_Source\PSoC5/UART_LOG.c **** 
 412              		.loc 1 448 0
 413 0006 1078     		ldrb	r0, [r2]	@ zero_extendqisi2
 414              	.LBE11:
 415              	.LBE13:
 636:Generated_Source\PSoC5/UART_LOG.c ****         
 637:Generated_Source\PSoC5/UART_LOG.c ****     #if (UART_LOG_RX_INTERRUPT_ENABLED)
 638:Generated_Source\PSoC5/UART_LOG.c ****         uint16 locErrorStatus;
 639:Generated_Source\PSoC5/UART_LOG.c ****         /* Protect variables that could change on interrupt */
 640:Generated_Source\PSoC5/UART_LOG.c ****         UART_LOG_DisableRxInt();
 641:Generated_Source\PSoC5/UART_LOG.c ****         locErrorStatus = (uint16)UART_LOG_errorStatus;
 642:Generated_Source\PSoC5/UART_LOG.c ****         UART_LOG_errorStatus = 0u;
 643:Generated_Source\PSoC5/UART_LOG.c ****         UART_LOG_EnableRxInt();
 644:Generated_Source\PSoC5/UART_LOG.c ****         return ( (uint16)(locErrorStatus << 8u) | UART_LOG_ReadRxData() );
 645:Generated_Source\PSoC5/UART_LOG.c ****     #else
 646:Generated_Source\PSoC5/UART_LOG.c ****         return ( ((uint16)UART_LOG_ReadRxStatus() << 8u) | UART_LOG_ReadRxData() );
 416              		.loc 1 646 0
 417 0008 03F07F03 		and	r3, r3, #127
ARM GAS  C:\Users\Reza\AppData\Local\Temp\ccgubnqn.s 			page 20


 647:Generated_Source\PSoC5/UART_LOG.c ****     #endif /* UART_LOG_RX_INTERRUPT_ENABLED */
 648:Generated_Source\PSoC5/UART_LOG.c ****         
 649:Generated_Source\PSoC5/UART_LOG.c ****     }
 418              		.loc 1 649 0
 419 000c 40EA0320 		orr	r0, r0, r3, lsl #8
 420 0010 7047     		bx	lr
 421              	.L34:
 422 0012 00BF     		.align	2
 423              	.L33:
 424 0014 68650040 		.word	1073767784
 425 0018 47650040 		.word	1073767751
 426              		.cfi_endproc
 427              	.LFE10:
 428              		.size	UART_LOG_GetByte, .-UART_LOG_GetByte
 429              		.section	.text.UART_LOG_GetRxBufferSize,"ax",%progbits
 430              		.align	1
 431              		.global	UART_LOG_GetRxBufferSize
 432              		.thumb
 433              		.thumb_func
 434              		.type	UART_LOG_GetRxBufferSize, %function
 435              	UART_LOG_GetRxBufferSize:
 436              	.LFB11:
 650:Generated_Source\PSoC5/UART_LOG.c **** 
 651:Generated_Source\PSoC5/UART_LOG.c **** 
 652:Generated_Source\PSoC5/UART_LOG.c ****     /*******************************************************************************
 653:Generated_Source\PSoC5/UART_LOG.c ****     * Function Name: UART_LOG_GetRxBufferSize
 654:Generated_Source\PSoC5/UART_LOG.c ****     ********************************************************************************
 655:Generated_Source\PSoC5/UART_LOG.c ****     *
 656:Generated_Source\PSoC5/UART_LOG.c ****     * Summary:
 657:Generated_Source\PSoC5/UART_LOG.c ****     *  Returns the number of received bytes available in the RX buffer.
 658:Generated_Source\PSoC5/UART_LOG.c ****     *  * RX software buffer is disabled (RX Buffer Size parameter is equal to 4): 
 659:Generated_Source\PSoC5/UART_LOG.c ****     *    returns 0 for empty RX FIFO or 1 for not empty RX FIFO.
 660:Generated_Source\PSoC5/UART_LOG.c ****     *  * RX software buffer is enabled: returns the number of bytes available in 
 661:Generated_Source\PSoC5/UART_LOG.c ****     *    the RX software buffer. Bytes available in the RX FIFO do not take to 
 662:Generated_Source\PSoC5/UART_LOG.c ****     *    account.
 663:Generated_Source\PSoC5/UART_LOG.c ****     *
 664:Generated_Source\PSoC5/UART_LOG.c ****     * Parameters:
 665:Generated_Source\PSoC5/UART_LOG.c ****     *  None.
 666:Generated_Source\PSoC5/UART_LOG.c ****     *
 667:Generated_Source\PSoC5/UART_LOG.c ****     * Return:
 668:Generated_Source\PSoC5/UART_LOG.c ****     *  uint8: Number of bytes in the RX buffer. 
 669:Generated_Source\PSoC5/UART_LOG.c ****     *    Return value type depends on RX Buffer Size parameter.
 670:Generated_Source\PSoC5/UART_LOG.c ****     *
 671:Generated_Source\PSoC5/UART_LOG.c ****     * Global Variables:
 672:Generated_Source\PSoC5/UART_LOG.c ****     *  UART_LOG_rxBufferWrite - used to calculate left bytes.
 673:Generated_Source\PSoC5/UART_LOG.c ****     *  UART_LOG_rxBufferRead - used to calculate left bytes.
 674:Generated_Source\PSoC5/UART_LOG.c ****     *  UART_LOG_rxBufferLoopDetect - checked to decide left bytes amount.
 675:Generated_Source\PSoC5/UART_LOG.c ****     *
 676:Generated_Source\PSoC5/UART_LOG.c ****     * Reentrant:
 677:Generated_Source\PSoC5/UART_LOG.c ****     *  No.
 678:Generated_Source\PSoC5/UART_LOG.c ****     *
 679:Generated_Source\PSoC5/UART_LOG.c ****     * Theory:
 680:Generated_Source\PSoC5/UART_LOG.c ****     *  Allows the user to find out how full the RX Buffer is.
 681:Generated_Source\PSoC5/UART_LOG.c ****     *
 682:Generated_Source\PSoC5/UART_LOG.c ****     *******************************************************************************/
 683:Generated_Source\PSoC5/UART_LOG.c ****     uint8 UART_LOG_GetRxBufferSize(void)
 684:Generated_Source\PSoC5/UART_LOG.c ****                                                             
ARM GAS  C:\Users\Reza\AppData\Local\Temp\ccgubnqn.s 			page 21


 685:Generated_Source\PSoC5/UART_LOG.c ****     {
 437              		.loc 1 685 0
 438              		.cfi_startproc
 439              		@ args = 0, pretend = 0, frame = 0
 440              		@ frame_needed = 0, uses_anonymous_args = 0
 441              		@ link register save eliminated.
 686:Generated_Source\PSoC5/UART_LOG.c ****         uint8 size;
 687:Generated_Source\PSoC5/UART_LOG.c **** 
 688:Generated_Source\PSoC5/UART_LOG.c ****     #if (UART_LOG_RX_INTERRUPT_ENABLED)
 689:Generated_Source\PSoC5/UART_LOG.c **** 
 690:Generated_Source\PSoC5/UART_LOG.c ****         /* Protect variables that could change on interrupt */
 691:Generated_Source\PSoC5/UART_LOG.c ****         UART_LOG_DisableRxInt();
 692:Generated_Source\PSoC5/UART_LOG.c **** 
 693:Generated_Source\PSoC5/UART_LOG.c ****         if(UART_LOG_rxBufferRead == UART_LOG_rxBufferWrite)
 694:Generated_Source\PSoC5/UART_LOG.c ****         {
 695:Generated_Source\PSoC5/UART_LOG.c ****             if(UART_LOG_rxBufferLoopDetect != 0u)
 696:Generated_Source\PSoC5/UART_LOG.c ****             {
 697:Generated_Source\PSoC5/UART_LOG.c ****                 size = UART_LOG_RX_BUFFER_SIZE;
 698:Generated_Source\PSoC5/UART_LOG.c ****             }
 699:Generated_Source\PSoC5/UART_LOG.c ****             else
 700:Generated_Source\PSoC5/UART_LOG.c ****             {
 701:Generated_Source\PSoC5/UART_LOG.c ****                 size = 0u;
 702:Generated_Source\PSoC5/UART_LOG.c ****             }
 703:Generated_Source\PSoC5/UART_LOG.c ****         }
 704:Generated_Source\PSoC5/UART_LOG.c ****         else if(UART_LOG_rxBufferRead < UART_LOG_rxBufferWrite)
 705:Generated_Source\PSoC5/UART_LOG.c ****         {
 706:Generated_Source\PSoC5/UART_LOG.c ****             size = (UART_LOG_rxBufferWrite - UART_LOG_rxBufferRead);
 707:Generated_Source\PSoC5/UART_LOG.c ****         }
 708:Generated_Source\PSoC5/UART_LOG.c ****         else
 709:Generated_Source\PSoC5/UART_LOG.c ****         {
 710:Generated_Source\PSoC5/UART_LOG.c ****             size = (UART_LOG_RX_BUFFER_SIZE - UART_LOG_rxBufferRead) + UART_LOG_rxBufferWrite;
 711:Generated_Source\PSoC5/UART_LOG.c ****         }
 712:Generated_Source\PSoC5/UART_LOG.c **** 
 713:Generated_Source\PSoC5/UART_LOG.c ****         UART_LOG_EnableRxInt();
 714:Generated_Source\PSoC5/UART_LOG.c **** 
 715:Generated_Source\PSoC5/UART_LOG.c ****     #else
 716:Generated_Source\PSoC5/UART_LOG.c **** 
 717:Generated_Source\PSoC5/UART_LOG.c ****         /* We can only know if there is data in the fifo. */
 718:Generated_Source\PSoC5/UART_LOG.c ****         size = ((UART_LOG_RXSTATUS_REG & UART_LOG_RX_STS_FIFO_NOTEMPTY) != 0u) ? 1u : 0u;
 442              		.loc 1 718 0
 443 0000 024B     		ldr	r3, .L36
 444 0002 1878     		ldrb	r0, [r3]	@ zero_extendqisi2
 445              	.LVL20:
 719:Generated_Source\PSoC5/UART_LOG.c **** 
 720:Generated_Source\PSoC5/UART_LOG.c ****     #endif /* (UART_LOG_RX_INTERRUPT_ENABLED) */
 721:Generated_Source\PSoC5/UART_LOG.c **** 
 722:Generated_Source\PSoC5/UART_LOG.c ****         return(size);
 723:Generated_Source\PSoC5/UART_LOG.c ****     }
 446              		.loc 1 723 0
 447 0004 C0F34010 		ubfx	r0, r0, #5, #1
 448              	.LVL21:
 449 0008 7047     		bx	lr
 450              	.L37:
 451 000a 00BF     		.align	2
 452              	.L36:
 453 000c 68650040 		.word	1073767784
 454              		.cfi_endproc
ARM GAS  C:\Users\Reza\AppData\Local\Temp\ccgubnqn.s 			page 22


 455              	.LFE11:
 456              		.size	UART_LOG_GetRxBufferSize, .-UART_LOG_GetRxBufferSize
 457              		.section	.text.UART_LOG_ClearRxBuffer,"ax",%progbits
 458              		.align	1
 459              		.global	UART_LOG_ClearRxBuffer
 460              		.thumb
 461              		.thumb_func
 462              		.type	UART_LOG_ClearRxBuffer, %function
 463              	UART_LOG_ClearRxBuffer:
 464              	.LFB12:
 724:Generated_Source\PSoC5/UART_LOG.c **** 
 725:Generated_Source\PSoC5/UART_LOG.c **** 
 726:Generated_Source\PSoC5/UART_LOG.c ****     /*******************************************************************************
 727:Generated_Source\PSoC5/UART_LOG.c ****     * Function Name: UART_LOG_ClearRxBuffer
 728:Generated_Source\PSoC5/UART_LOG.c ****     ********************************************************************************
 729:Generated_Source\PSoC5/UART_LOG.c ****     *
 730:Generated_Source\PSoC5/UART_LOG.c ****     * Summary:
 731:Generated_Source\PSoC5/UART_LOG.c ****     *  Clears the receiver memory buffer and hardware RX FIFO of all received data.
 732:Generated_Source\PSoC5/UART_LOG.c ****     *
 733:Generated_Source\PSoC5/UART_LOG.c ****     * Parameters:
 734:Generated_Source\PSoC5/UART_LOG.c ****     *  None.
 735:Generated_Source\PSoC5/UART_LOG.c ****     *
 736:Generated_Source\PSoC5/UART_LOG.c ****     * Return:
 737:Generated_Source\PSoC5/UART_LOG.c ****     *  None.
 738:Generated_Source\PSoC5/UART_LOG.c ****     *
 739:Generated_Source\PSoC5/UART_LOG.c ****     * Global Variables:
 740:Generated_Source\PSoC5/UART_LOG.c ****     *  UART_LOG_rxBufferWrite - cleared to zero.
 741:Generated_Source\PSoC5/UART_LOG.c ****     *  UART_LOG_rxBufferRead - cleared to zero.
 742:Generated_Source\PSoC5/UART_LOG.c ****     *  UART_LOG_rxBufferLoopDetect - cleared to zero.
 743:Generated_Source\PSoC5/UART_LOG.c ****     *  UART_LOG_rxBufferOverflow - cleared to zero.
 744:Generated_Source\PSoC5/UART_LOG.c ****     *
 745:Generated_Source\PSoC5/UART_LOG.c ****     * Reentrant:
 746:Generated_Source\PSoC5/UART_LOG.c ****     *  No.
 747:Generated_Source\PSoC5/UART_LOG.c ****     *
 748:Generated_Source\PSoC5/UART_LOG.c ****     * Theory:
 749:Generated_Source\PSoC5/UART_LOG.c ****     *  Setting the pointers to zero makes the system believe there is no data to
 750:Generated_Source\PSoC5/UART_LOG.c ****     *  read and writing will resume at address 0 overwriting any data that may
 751:Generated_Source\PSoC5/UART_LOG.c ****     *  have remained in the RAM.
 752:Generated_Source\PSoC5/UART_LOG.c ****     *
 753:Generated_Source\PSoC5/UART_LOG.c ****     * Side Effects:
 754:Generated_Source\PSoC5/UART_LOG.c ****     *  Any received data not read from the RAM or FIFO buffer will be lost.
 755:Generated_Source\PSoC5/UART_LOG.c ****     *
 756:Generated_Source\PSoC5/UART_LOG.c ****     *******************************************************************************/
 757:Generated_Source\PSoC5/UART_LOG.c ****     void UART_LOG_ClearRxBuffer(void) 
 758:Generated_Source\PSoC5/UART_LOG.c ****     {
 465              		.loc 1 758 0
 466              		.cfi_startproc
 467              		@ args = 0, pretend = 0, frame = 0
 468              		@ frame_needed = 0, uses_anonymous_args = 0
 469 0000 08B5     		push	{r3, lr}
 470              		.cfi_def_cfa_offset 8
 471              		.cfi_offset 3, -8
 472              		.cfi_offset 14, -4
 759:Generated_Source\PSoC5/UART_LOG.c ****         uint8 enableInterrupts;
 760:Generated_Source\PSoC5/UART_LOG.c **** 
 761:Generated_Source\PSoC5/UART_LOG.c ****         /* Clear the HW FIFO */
 762:Generated_Source\PSoC5/UART_LOG.c ****         enableInterrupts = CyEnterCriticalSection();
ARM GAS  C:\Users\Reza\AppData\Local\Temp\ccgubnqn.s 			page 23


 473              		.loc 1 762 0
 474 0002 FFF7FEFF 		bl	CyEnterCriticalSection
 475              	.LVL22:
 763:Generated_Source\PSoC5/UART_LOG.c ****         UART_LOG_RXDATA_AUX_CTL_REG |= (uint8)  UART_LOG_RX_FIFO_CLR;
 476              		.loc 1 763 0
 477 0006 064B     		ldr	r3, .L39
 478 0008 1A78     		ldrb	r2, [r3]	@ zero_extendqisi2
 479 000a 42F00102 		orr	r2, r2, #1
 480 000e 1A70     		strb	r2, [r3]
 764:Generated_Source\PSoC5/UART_LOG.c ****         UART_LOG_RXDATA_AUX_CTL_REG &= (uint8) ~UART_LOG_RX_FIFO_CLR;
 481              		.loc 1 764 0
 482 0010 1A78     		ldrb	r2, [r3]	@ zero_extendqisi2
 483 0012 02F0FE02 		and	r2, r2, #254
 484 0016 1A70     		strb	r2, [r3]
 765:Generated_Source\PSoC5/UART_LOG.c ****         CyExitCriticalSection(enableInterrupts);
 766:Generated_Source\PSoC5/UART_LOG.c **** 
 767:Generated_Source\PSoC5/UART_LOG.c ****     #if (UART_LOG_RX_INTERRUPT_ENABLED)
 768:Generated_Source\PSoC5/UART_LOG.c **** 
 769:Generated_Source\PSoC5/UART_LOG.c ****         /* Protect variables that could change on interrupt. */
 770:Generated_Source\PSoC5/UART_LOG.c ****         UART_LOG_DisableRxInt();
 771:Generated_Source\PSoC5/UART_LOG.c **** 
 772:Generated_Source\PSoC5/UART_LOG.c ****         UART_LOG_rxBufferRead = 0u;
 773:Generated_Source\PSoC5/UART_LOG.c ****         UART_LOG_rxBufferWrite = 0u;
 774:Generated_Source\PSoC5/UART_LOG.c ****         UART_LOG_rxBufferLoopDetect = 0u;
 775:Generated_Source\PSoC5/UART_LOG.c ****         UART_LOG_rxBufferOverflow = 0u;
 776:Generated_Source\PSoC5/UART_LOG.c **** 
 777:Generated_Source\PSoC5/UART_LOG.c ****         UART_LOG_EnableRxInt();
 778:Generated_Source\PSoC5/UART_LOG.c **** 
 779:Generated_Source\PSoC5/UART_LOG.c ****     #endif /* (UART_LOG_RX_INTERRUPT_ENABLED) */
 780:Generated_Source\PSoC5/UART_LOG.c **** 
 781:Generated_Source\PSoC5/UART_LOG.c ****     }
 485              		.loc 1 781 0
 486 0018 BDE80840 		pop	{r3, lr}
 487              		.cfi_restore 14
 488              		.cfi_restore 3
 489              		.cfi_def_cfa_offset 0
 765:Generated_Source\PSoC5/UART_LOG.c ****         CyExitCriticalSection(enableInterrupts);
 490              		.loc 1 765 0
 491 001c FFF7FEBF 		b	CyExitCriticalSection
 492              	.LVL23:
 493              	.L40:
 494              		.align	2
 495              	.L39:
 496 0020 97650040 		.word	1073767831
 497              		.cfi_endproc
 498              	.LFE12:
 499              		.size	UART_LOG_ClearRxBuffer, .-UART_LOG_ClearRxBuffer
 500              		.section	.text.UART_LOG_SetRxAddressMode,"ax",%progbits
 501              		.align	1
 502              		.global	UART_LOG_SetRxAddressMode
 503              		.thumb
 504              		.thumb_func
 505              		.type	UART_LOG_SetRxAddressMode, %function
 506              	UART_LOG_SetRxAddressMode:
 507              	.LFB28:
 508              		.cfi_startproc
 509              		@ args = 0, pretend = 0, frame = 0
ARM GAS  C:\Users\Reza\AppData\Local\Temp\ccgubnqn.s 			page 24


 510              		@ frame_needed = 0, uses_anonymous_args = 0
 511              		@ link register save eliminated.
 512 0000 7047     		bx	lr
 513              		.cfi_endproc
 514              	.LFE28:
 515              		.size	UART_LOG_SetRxAddressMode, .-UART_LOG_SetRxAddressMode
 516              		.section	.text.UART_LOG_SetRxAddress1,"ax",%progbits
 517              		.align	1
 518              		.global	UART_LOG_SetRxAddress1
 519              		.thumb
 520              		.thumb_func
 521              		.type	UART_LOG_SetRxAddress1, %function
 522              	UART_LOG_SetRxAddress1:
 523              	.LFB14:
 782:Generated_Source\PSoC5/UART_LOG.c **** 
 783:Generated_Source\PSoC5/UART_LOG.c **** 
 784:Generated_Source\PSoC5/UART_LOG.c ****     /*******************************************************************************
 785:Generated_Source\PSoC5/UART_LOG.c ****     * Function Name: UART_LOG_SetRxAddressMode
 786:Generated_Source\PSoC5/UART_LOG.c ****     ********************************************************************************
 787:Generated_Source\PSoC5/UART_LOG.c ****     *
 788:Generated_Source\PSoC5/UART_LOG.c ****     * Summary:
 789:Generated_Source\PSoC5/UART_LOG.c ****     *  Sets the software controlled Addressing mode used by the RX portion of the
 790:Generated_Source\PSoC5/UART_LOG.c ****     *  UART.
 791:Generated_Source\PSoC5/UART_LOG.c ****     *
 792:Generated_Source\PSoC5/UART_LOG.c ****     * Parameters:
 793:Generated_Source\PSoC5/UART_LOG.c ****     *  addressMode: Enumerated value indicating the mode of RX addressing
 794:Generated_Source\PSoC5/UART_LOG.c ****     *  UART_LOG__B_UART__AM_SW_BYTE_BYTE -  Software Byte-by-Byte address
 795:Generated_Source\PSoC5/UART_LOG.c ****     *                                               detection
 796:Generated_Source\PSoC5/UART_LOG.c ****     *  UART_LOG__B_UART__AM_SW_DETECT_TO_BUFFER - Software Detect to Buffer
 797:Generated_Source\PSoC5/UART_LOG.c ****     *                                               address detection
 798:Generated_Source\PSoC5/UART_LOG.c ****     *  UART_LOG__B_UART__AM_HW_BYTE_BY_BYTE - Hardware Byte-by-Byte address
 799:Generated_Source\PSoC5/UART_LOG.c ****     *                                               detection
 800:Generated_Source\PSoC5/UART_LOG.c ****     *  UART_LOG__B_UART__AM_HW_DETECT_TO_BUFFER - Hardware Detect to Buffer
 801:Generated_Source\PSoC5/UART_LOG.c ****     *                                               address detection
 802:Generated_Source\PSoC5/UART_LOG.c ****     *  UART_LOG__B_UART__AM_NONE - No address detection
 803:Generated_Source\PSoC5/UART_LOG.c ****     *
 804:Generated_Source\PSoC5/UART_LOG.c ****     * Return:
 805:Generated_Source\PSoC5/UART_LOG.c ****     *  None.
 806:Generated_Source\PSoC5/UART_LOG.c ****     *
 807:Generated_Source\PSoC5/UART_LOG.c ****     * Global Variables:
 808:Generated_Source\PSoC5/UART_LOG.c ****     *  UART_LOG_rxAddressMode - the parameter stored in this variable for
 809:Generated_Source\PSoC5/UART_LOG.c ****     *   the farther usage in RX ISR.
 810:Generated_Source\PSoC5/UART_LOG.c ****     *  UART_LOG_rxAddressDetected - set to initial state (0).
 811:Generated_Source\PSoC5/UART_LOG.c ****     *
 812:Generated_Source\PSoC5/UART_LOG.c ****     *******************************************************************************/
 813:Generated_Source\PSoC5/UART_LOG.c ****     void UART_LOG_SetRxAddressMode(uint8 addressMode)
 814:Generated_Source\PSoC5/UART_LOG.c ****                                                         
 815:Generated_Source\PSoC5/UART_LOG.c ****     {
 816:Generated_Source\PSoC5/UART_LOG.c ****         #if(UART_LOG_RXHW_ADDRESS_ENABLED)
 817:Generated_Source\PSoC5/UART_LOG.c ****             #if(UART_LOG_CONTROL_REG_REMOVED)
 818:Generated_Source\PSoC5/UART_LOG.c ****                 if(0u != addressMode)
 819:Generated_Source\PSoC5/UART_LOG.c ****                 {
 820:Generated_Source\PSoC5/UART_LOG.c ****                     /* Suppress compiler warning */
 821:Generated_Source\PSoC5/UART_LOG.c ****                 }
 822:Generated_Source\PSoC5/UART_LOG.c ****             #else /* UART_LOG_CONTROL_REG_REMOVED */
 823:Generated_Source\PSoC5/UART_LOG.c ****                 uint8 tmpCtrl;
 824:Generated_Source\PSoC5/UART_LOG.c ****                 tmpCtrl = UART_LOG_CONTROL_REG & (uint8)~UART_LOG_CTRL_RXADDR_MODE_MASK;
ARM GAS  C:\Users\Reza\AppData\Local\Temp\ccgubnqn.s 			page 25


 825:Generated_Source\PSoC5/UART_LOG.c ****                 tmpCtrl |= (uint8)(addressMode << UART_LOG_CTRL_RXADDR_MODE0_SHIFT);
 826:Generated_Source\PSoC5/UART_LOG.c ****                 UART_LOG_CONTROL_REG = tmpCtrl;
 827:Generated_Source\PSoC5/UART_LOG.c **** 
 828:Generated_Source\PSoC5/UART_LOG.c ****                 #if(UART_LOG_RX_INTERRUPT_ENABLED && \
 829:Generated_Source\PSoC5/UART_LOG.c ****                    (UART_LOG_RXBUFFERSIZE > UART_LOG_FIFO_LENGTH) )
 830:Generated_Source\PSoC5/UART_LOG.c ****                     UART_LOG_rxAddressMode = addressMode;
 831:Generated_Source\PSoC5/UART_LOG.c ****                     UART_LOG_rxAddressDetected = 0u;
 832:Generated_Source\PSoC5/UART_LOG.c ****                 #endif /* End UART_LOG_RXBUFFERSIZE > UART_LOG_FIFO_LENGTH*/
 833:Generated_Source\PSoC5/UART_LOG.c ****             #endif /* End UART_LOG_CONTROL_REG_REMOVED */
 834:Generated_Source\PSoC5/UART_LOG.c ****         #else /* UART_LOG_RXHW_ADDRESS_ENABLED */
 835:Generated_Source\PSoC5/UART_LOG.c ****             if(0u != addressMode)
 836:Generated_Source\PSoC5/UART_LOG.c ****             {
 837:Generated_Source\PSoC5/UART_LOG.c ****                 /* Suppress compiler warning */
 838:Generated_Source\PSoC5/UART_LOG.c ****             }
 839:Generated_Source\PSoC5/UART_LOG.c ****         #endif /* End UART_LOG_RXHW_ADDRESS_ENABLED */
 840:Generated_Source\PSoC5/UART_LOG.c ****     }
 841:Generated_Source\PSoC5/UART_LOG.c **** 
 842:Generated_Source\PSoC5/UART_LOG.c **** 
 843:Generated_Source\PSoC5/UART_LOG.c ****     /*******************************************************************************
 844:Generated_Source\PSoC5/UART_LOG.c ****     * Function Name: UART_LOG_SetRxAddress1
 845:Generated_Source\PSoC5/UART_LOG.c ****     ********************************************************************************
 846:Generated_Source\PSoC5/UART_LOG.c ****     *
 847:Generated_Source\PSoC5/UART_LOG.c ****     * Summary:
 848:Generated_Source\PSoC5/UART_LOG.c ****     *  Sets the first of two hardware-detectable receiver addresses.
 849:Generated_Source\PSoC5/UART_LOG.c ****     *
 850:Generated_Source\PSoC5/UART_LOG.c ****     * Parameters:
 851:Generated_Source\PSoC5/UART_LOG.c ****     *  address: Address #1 for hardware address detection.
 852:Generated_Source\PSoC5/UART_LOG.c ****     *
 853:Generated_Source\PSoC5/UART_LOG.c ****     * Return:
 854:Generated_Source\PSoC5/UART_LOG.c ****     *  None.
 855:Generated_Source\PSoC5/UART_LOG.c ****     *
 856:Generated_Source\PSoC5/UART_LOG.c ****     *******************************************************************************/
 857:Generated_Source\PSoC5/UART_LOG.c ****     void UART_LOG_SetRxAddress1(uint8 address) 
 858:Generated_Source\PSoC5/UART_LOG.c ****     {
 524              		.loc 1 858 0
 525              		.cfi_startproc
 526              		@ args = 0, pretend = 0, frame = 0
 527              		@ frame_needed = 0, uses_anonymous_args = 0
 528              		@ link register save eliminated.
 529              	.LVL24:
 859:Generated_Source\PSoC5/UART_LOG.c ****         UART_LOG_RXADDRESS1_REG = address;
 530              		.loc 1 859 0
 531 0000 014B     		ldr	r3, .L43
 532 0002 1870     		strb	r0, [r3]
 533 0004 7047     		bx	lr
 534              	.L44:
 535 0006 00BF     		.align	2
 536              	.L43:
 537 0008 27650040 		.word	1073767719
 538              		.cfi_endproc
 539              	.LFE14:
 540              		.size	UART_LOG_SetRxAddress1, .-UART_LOG_SetRxAddress1
 541              		.section	.text.UART_LOG_SetRxAddress2,"ax",%progbits
 542              		.align	1
 543              		.global	UART_LOG_SetRxAddress2
 544              		.thumb
 545              		.thumb_func
ARM GAS  C:\Users\Reza\AppData\Local\Temp\ccgubnqn.s 			page 26


 546              		.type	UART_LOG_SetRxAddress2, %function
 547              	UART_LOG_SetRxAddress2:
 548              	.LFB15:
 860:Generated_Source\PSoC5/UART_LOG.c ****     }
 861:Generated_Source\PSoC5/UART_LOG.c **** 
 862:Generated_Source\PSoC5/UART_LOG.c **** 
 863:Generated_Source\PSoC5/UART_LOG.c ****     /*******************************************************************************
 864:Generated_Source\PSoC5/UART_LOG.c ****     * Function Name: UART_LOG_SetRxAddress2
 865:Generated_Source\PSoC5/UART_LOG.c ****     ********************************************************************************
 866:Generated_Source\PSoC5/UART_LOG.c ****     *
 867:Generated_Source\PSoC5/UART_LOG.c ****     * Summary:
 868:Generated_Source\PSoC5/UART_LOG.c ****     *  Sets the second of two hardware-detectable receiver addresses.
 869:Generated_Source\PSoC5/UART_LOG.c ****     *
 870:Generated_Source\PSoC5/UART_LOG.c ****     * Parameters:
 871:Generated_Source\PSoC5/UART_LOG.c ****     *  address: Address #2 for hardware address detection.
 872:Generated_Source\PSoC5/UART_LOG.c ****     *
 873:Generated_Source\PSoC5/UART_LOG.c ****     * Return:
 874:Generated_Source\PSoC5/UART_LOG.c ****     *  None.
 875:Generated_Source\PSoC5/UART_LOG.c ****     *
 876:Generated_Source\PSoC5/UART_LOG.c ****     *******************************************************************************/
 877:Generated_Source\PSoC5/UART_LOG.c ****     void UART_LOG_SetRxAddress2(uint8 address) 
 878:Generated_Source\PSoC5/UART_LOG.c ****     {
 549              		.loc 1 878 0
 550              		.cfi_startproc
 551              		@ args = 0, pretend = 0, frame = 0
 552              		@ frame_needed = 0, uses_anonymous_args = 0
 553              		@ link register save eliminated.
 554              	.LVL25:
 879:Generated_Source\PSoC5/UART_LOG.c ****         UART_LOG_RXADDRESS2_REG = address;
 555              		.loc 1 879 0
 556 0000 014B     		ldr	r3, .L46
 557 0002 1870     		strb	r0, [r3]
 558 0004 7047     		bx	lr
 559              	.L47:
 560 0006 00BF     		.align	2
 561              	.L46:
 562 0008 37650040 		.word	1073767735
 563              		.cfi_endproc
 564              	.LFE15:
 565              		.size	UART_LOG_SetRxAddress2, .-UART_LOG_SetRxAddress2
 566              		.section	.text.UART_LOG_SetTxInterruptMode,"ax",%progbits
 567              		.align	1
 568              		.global	UART_LOG_SetTxInterruptMode
 569              		.thumb
 570              		.thumb_func
 571              		.type	UART_LOG_SetTxInterruptMode, %function
 572              	UART_LOG_SetTxInterruptMode:
 573              	.LFB16:
 880:Generated_Source\PSoC5/UART_LOG.c ****     }
 881:Generated_Source\PSoC5/UART_LOG.c **** 
 882:Generated_Source\PSoC5/UART_LOG.c **** #endif  /* UART_LOG_RX_ENABLED || UART_LOG_HD_ENABLED*/
 883:Generated_Source\PSoC5/UART_LOG.c **** 
 884:Generated_Source\PSoC5/UART_LOG.c **** 
 885:Generated_Source\PSoC5/UART_LOG.c **** #if( (UART_LOG_TX_ENABLED) || (UART_LOG_HD_ENABLED) )
 886:Generated_Source\PSoC5/UART_LOG.c ****     /*******************************************************************************
 887:Generated_Source\PSoC5/UART_LOG.c ****     * Function Name: UART_LOG_SetTxInterruptMode
 888:Generated_Source\PSoC5/UART_LOG.c ****     ********************************************************************************
ARM GAS  C:\Users\Reza\AppData\Local\Temp\ccgubnqn.s 			page 27


 889:Generated_Source\PSoC5/UART_LOG.c ****     *
 890:Generated_Source\PSoC5/UART_LOG.c ****     * Summary:
 891:Generated_Source\PSoC5/UART_LOG.c ****     *  Configures the TX interrupt sources to be enabled, but does not enable the
 892:Generated_Source\PSoC5/UART_LOG.c ****     *  interrupt.
 893:Generated_Source\PSoC5/UART_LOG.c ****     *
 894:Generated_Source\PSoC5/UART_LOG.c ****     * Parameters:
 895:Generated_Source\PSoC5/UART_LOG.c ****     *  intSrc: Bit field containing the TX interrupt sources to enable
 896:Generated_Source\PSoC5/UART_LOG.c ****     *   UART_LOG_TX_STS_COMPLETE        Interrupt on TX byte complete
 897:Generated_Source\PSoC5/UART_LOG.c ****     *   UART_LOG_TX_STS_FIFO_EMPTY      Interrupt when TX FIFO is empty
 898:Generated_Source\PSoC5/UART_LOG.c ****     *   UART_LOG_TX_STS_FIFO_FULL       Interrupt when TX FIFO is full
 899:Generated_Source\PSoC5/UART_LOG.c ****     *   UART_LOG_TX_STS_FIFO_NOT_FULL   Interrupt when TX FIFO is not full
 900:Generated_Source\PSoC5/UART_LOG.c ****     *
 901:Generated_Source\PSoC5/UART_LOG.c ****     * Return:
 902:Generated_Source\PSoC5/UART_LOG.c ****     *  None.
 903:Generated_Source\PSoC5/UART_LOG.c ****     *
 904:Generated_Source\PSoC5/UART_LOG.c ****     * Theory:
 905:Generated_Source\PSoC5/UART_LOG.c ****     *  Enables the output of specific status bits to the interrupt controller
 906:Generated_Source\PSoC5/UART_LOG.c ****     *
 907:Generated_Source\PSoC5/UART_LOG.c ****     *******************************************************************************/
 908:Generated_Source\PSoC5/UART_LOG.c ****     void UART_LOG_SetTxInterruptMode(uint8 intSrc) 
 909:Generated_Source\PSoC5/UART_LOG.c ****     {
 574              		.loc 1 909 0
 575              		.cfi_startproc
 576              		@ args = 0, pretend = 0, frame = 0
 577              		@ frame_needed = 0, uses_anonymous_args = 0
 578              		@ link register save eliminated.
 579              	.LVL26:
 910:Generated_Source\PSoC5/UART_LOG.c ****         UART_LOG_TXSTATUS_MASK_REG = intSrc;
 580              		.loc 1 910 0
 581 0000 014B     		ldr	r3, .L49
 582 0002 1870     		strb	r0, [r3]
 583 0004 7047     		bx	lr
 584              	.L50:
 585 0006 00BF     		.align	2
 586              	.L49:
 587 0008 86640040 		.word	1073767558
 588              		.cfi_endproc
 589              	.LFE16:
 590              		.size	UART_LOG_SetTxInterruptMode, .-UART_LOG_SetTxInterruptMode
 591              		.section	.text.UART_LOG_WriteTxData,"ax",%progbits
 592              		.align	1
 593              		.global	UART_LOG_WriteTxData
 594              		.thumb
 595              		.thumb_func
 596              		.type	UART_LOG_WriteTxData, %function
 597              	UART_LOG_WriteTxData:
 598              	.LFB17:
 911:Generated_Source\PSoC5/UART_LOG.c ****     }
 912:Generated_Source\PSoC5/UART_LOG.c **** 
 913:Generated_Source\PSoC5/UART_LOG.c **** 
 914:Generated_Source\PSoC5/UART_LOG.c ****     /*******************************************************************************
 915:Generated_Source\PSoC5/UART_LOG.c ****     * Function Name: UART_LOG_WriteTxData
 916:Generated_Source\PSoC5/UART_LOG.c ****     ********************************************************************************
 917:Generated_Source\PSoC5/UART_LOG.c ****     *
 918:Generated_Source\PSoC5/UART_LOG.c ****     * Summary:
 919:Generated_Source\PSoC5/UART_LOG.c ****     *  Places a byte of data into the transmit buffer to be sent when the bus is
 920:Generated_Source\PSoC5/UART_LOG.c ****     *  available without checking the TX status register. You must check status
ARM GAS  C:\Users\Reza\AppData\Local\Temp\ccgubnqn.s 			page 28


 921:Generated_Source\PSoC5/UART_LOG.c ****     *  separately.
 922:Generated_Source\PSoC5/UART_LOG.c ****     *
 923:Generated_Source\PSoC5/UART_LOG.c ****     * Parameters:
 924:Generated_Source\PSoC5/UART_LOG.c ****     *  txDataByte: data byte
 925:Generated_Source\PSoC5/UART_LOG.c ****     *
 926:Generated_Source\PSoC5/UART_LOG.c ****     * Return:
 927:Generated_Source\PSoC5/UART_LOG.c ****     * None.
 928:Generated_Source\PSoC5/UART_LOG.c ****     *
 929:Generated_Source\PSoC5/UART_LOG.c ****     * Global Variables:
 930:Generated_Source\PSoC5/UART_LOG.c ****     *  UART_LOG_txBuffer - RAM buffer pointer for save data for transmission
 931:Generated_Source\PSoC5/UART_LOG.c ****     *  UART_LOG_txBufferWrite - cyclic index for write to txBuffer,
 932:Generated_Source\PSoC5/UART_LOG.c ****     *    incremented after each byte saved to buffer.
 933:Generated_Source\PSoC5/UART_LOG.c ****     *  UART_LOG_txBufferRead - cyclic index for read from txBuffer,
 934:Generated_Source\PSoC5/UART_LOG.c ****     *    checked to identify the condition to write to FIFO directly or to TX buffer
 935:Generated_Source\PSoC5/UART_LOG.c ****     *  UART_LOG_initVar - checked to identify that the component has been
 936:Generated_Source\PSoC5/UART_LOG.c ****     *    initialized.
 937:Generated_Source\PSoC5/UART_LOG.c ****     *
 938:Generated_Source\PSoC5/UART_LOG.c ****     * Reentrant:
 939:Generated_Source\PSoC5/UART_LOG.c ****     *  No.
 940:Generated_Source\PSoC5/UART_LOG.c ****     *
 941:Generated_Source\PSoC5/UART_LOG.c ****     *******************************************************************************/
 942:Generated_Source\PSoC5/UART_LOG.c ****     void UART_LOG_WriteTxData(uint8 txDataByte) 
 943:Generated_Source\PSoC5/UART_LOG.c ****     {
 599              		.loc 1 943 0
 600              		.cfi_startproc
 601              		@ args = 0, pretend = 0, frame = 0
 602              		@ frame_needed = 0, uses_anonymous_args = 0
 603              		@ link register save eliminated.
 604              	.LVL27:
 944:Generated_Source\PSoC5/UART_LOG.c ****         /* If not Initialized then skip this function*/
 945:Generated_Source\PSoC5/UART_LOG.c ****         if(UART_LOG_initVar != 0u)
 605              		.loc 1 945 0
 606 0000 024B     		ldr	r3, .L56
 607 0002 1B78     		ldrb	r3, [r3]	@ zero_extendqisi2
 608 0004 0BB1     		cbz	r3, .L51
 946:Generated_Source\PSoC5/UART_LOG.c ****         {
 947:Generated_Source\PSoC5/UART_LOG.c ****         #if (UART_LOG_TX_INTERRUPT_ENABLED)
 948:Generated_Source\PSoC5/UART_LOG.c **** 
 949:Generated_Source\PSoC5/UART_LOG.c ****             /* Protect variables that could change on interrupt. */
 950:Generated_Source\PSoC5/UART_LOG.c ****             UART_LOG_DisableTxInt();
 951:Generated_Source\PSoC5/UART_LOG.c **** 
 952:Generated_Source\PSoC5/UART_LOG.c ****             if( (UART_LOG_txBufferRead == UART_LOG_txBufferWrite) &&
 953:Generated_Source\PSoC5/UART_LOG.c ****                 ((UART_LOG_TXSTATUS_REG & UART_LOG_TX_STS_FIFO_FULL) == 0u) )
 954:Generated_Source\PSoC5/UART_LOG.c ****             {
 955:Generated_Source\PSoC5/UART_LOG.c ****                 /* Add directly to the FIFO. */
 956:Generated_Source\PSoC5/UART_LOG.c ****                 UART_LOG_TXDATA_REG = txDataByte;
 957:Generated_Source\PSoC5/UART_LOG.c ****             }
 958:Generated_Source\PSoC5/UART_LOG.c ****             else
 959:Generated_Source\PSoC5/UART_LOG.c ****             {
 960:Generated_Source\PSoC5/UART_LOG.c ****                 if(UART_LOG_txBufferWrite >= UART_LOG_TX_BUFFER_SIZE)
 961:Generated_Source\PSoC5/UART_LOG.c ****                 {
 962:Generated_Source\PSoC5/UART_LOG.c ****                     UART_LOG_txBufferWrite = 0u;
 963:Generated_Source\PSoC5/UART_LOG.c ****                 }
 964:Generated_Source\PSoC5/UART_LOG.c **** 
 965:Generated_Source\PSoC5/UART_LOG.c ****                 UART_LOG_txBuffer[UART_LOG_txBufferWrite] = txDataByte;
 966:Generated_Source\PSoC5/UART_LOG.c **** 
 967:Generated_Source\PSoC5/UART_LOG.c ****                 /* Add to the software buffer. */
ARM GAS  C:\Users\Reza\AppData\Local\Temp\ccgubnqn.s 			page 29


 968:Generated_Source\PSoC5/UART_LOG.c ****                 UART_LOG_txBufferWrite++;
 969:Generated_Source\PSoC5/UART_LOG.c ****             }
 970:Generated_Source\PSoC5/UART_LOG.c **** 
 971:Generated_Source\PSoC5/UART_LOG.c ****             UART_LOG_EnableTxInt();
 972:Generated_Source\PSoC5/UART_LOG.c **** 
 973:Generated_Source\PSoC5/UART_LOG.c ****         #else
 974:Generated_Source\PSoC5/UART_LOG.c **** 
 975:Generated_Source\PSoC5/UART_LOG.c ****             /* Add directly to the FIFO. */
 976:Generated_Source\PSoC5/UART_LOG.c ****             UART_LOG_TXDATA_REG = txDataByte;
 609              		.loc 1 976 0
 610 0006 024B     		ldr	r3, .L56+4
 611 0008 1870     		strb	r0, [r3]
 612              	.L51:
 613 000a 7047     		bx	lr
 614              	.L57:
 615              		.align	2
 616              	.L56:
 617 000c 00000000 		.word	.LANCHOR0
 618 0010 46640040 		.word	1073767494
 619              		.cfi_endproc
 620              	.LFE17:
 621              		.size	UART_LOG_WriteTxData, .-UART_LOG_WriteTxData
 622              		.section	.text.UART_LOG_ReadTxStatus,"ax",%progbits
 623              		.align	1
 624              		.global	UART_LOG_ReadTxStatus
 625              		.thumb
 626              		.thumb_func
 627              		.type	UART_LOG_ReadTxStatus, %function
 628              	UART_LOG_ReadTxStatus:
 629              	.LFB18:
 977:Generated_Source\PSoC5/UART_LOG.c **** 
 978:Generated_Source\PSoC5/UART_LOG.c ****         #endif /*(UART_LOG_TX_INTERRUPT_ENABLED) */
 979:Generated_Source\PSoC5/UART_LOG.c ****         }
 980:Generated_Source\PSoC5/UART_LOG.c ****     }
 981:Generated_Source\PSoC5/UART_LOG.c **** 
 982:Generated_Source\PSoC5/UART_LOG.c **** 
 983:Generated_Source\PSoC5/UART_LOG.c ****     /*******************************************************************************
 984:Generated_Source\PSoC5/UART_LOG.c ****     * Function Name: UART_LOG_ReadTxStatus
 985:Generated_Source\PSoC5/UART_LOG.c ****     ********************************************************************************
 986:Generated_Source\PSoC5/UART_LOG.c ****     *
 987:Generated_Source\PSoC5/UART_LOG.c ****     * Summary:
 988:Generated_Source\PSoC5/UART_LOG.c ****     *  Reads the status register for the TX portion of the UART.
 989:Generated_Source\PSoC5/UART_LOG.c ****     *
 990:Generated_Source\PSoC5/UART_LOG.c ****     * Parameters:
 991:Generated_Source\PSoC5/UART_LOG.c ****     *  None.
 992:Generated_Source\PSoC5/UART_LOG.c ****     *
 993:Generated_Source\PSoC5/UART_LOG.c ****     * Return:
 994:Generated_Source\PSoC5/UART_LOG.c ****     *  Contents of the status register
 995:Generated_Source\PSoC5/UART_LOG.c ****     *
 996:Generated_Source\PSoC5/UART_LOG.c ****     * Theory:
 997:Generated_Source\PSoC5/UART_LOG.c ****     *  This function reads the TX status register, which is cleared on read.
 998:Generated_Source\PSoC5/UART_LOG.c ****     *  It is up to the user to handle all bits in this return value accordingly,
 999:Generated_Source\PSoC5/UART_LOG.c ****     *  even if the bit was not enabled as an interrupt source the event happened
1000:Generated_Source\PSoC5/UART_LOG.c ****     *  and must be handled accordingly.
1001:Generated_Source\PSoC5/UART_LOG.c ****     *
1002:Generated_Source\PSoC5/UART_LOG.c ****     *******************************************************************************/
1003:Generated_Source\PSoC5/UART_LOG.c ****     uint8 UART_LOG_ReadTxStatus(void) 
ARM GAS  C:\Users\Reza\AppData\Local\Temp\ccgubnqn.s 			page 30


1004:Generated_Source\PSoC5/UART_LOG.c ****     {
 630              		.loc 1 1004 0
 631              		.cfi_startproc
 632              		@ args = 0, pretend = 0, frame = 0
 633              		@ frame_needed = 0, uses_anonymous_args = 0
 634              		@ link register save eliminated.
1005:Generated_Source\PSoC5/UART_LOG.c ****         return(UART_LOG_TXSTATUS_REG);
 635              		.loc 1 1005 0
 636 0000 014B     		ldr	r3, .L59
 637 0002 1878     		ldrb	r0, [r3]	@ zero_extendqisi2
1006:Generated_Source\PSoC5/UART_LOG.c ****     }
 638              		.loc 1 1006 0
 639 0004 7047     		bx	lr
 640              	.L60:
 641 0006 00BF     		.align	2
 642              	.L59:
 643 0008 66640040 		.word	1073767526
 644              		.cfi_endproc
 645              	.LFE18:
 646              		.size	UART_LOG_ReadTxStatus, .-UART_LOG_ReadTxStatus
 647              		.section	.text.UART_LOG_PutChar,"ax",%progbits
 648              		.align	1
 649              		.global	UART_LOG_PutChar
 650              		.thumb
 651              		.thumb_func
 652              		.type	UART_LOG_PutChar, %function
 653              	UART_LOG_PutChar:
 654              	.LFB19:
1007:Generated_Source\PSoC5/UART_LOG.c **** 
1008:Generated_Source\PSoC5/UART_LOG.c **** 
1009:Generated_Source\PSoC5/UART_LOG.c ****     /*******************************************************************************
1010:Generated_Source\PSoC5/UART_LOG.c ****     * Function Name: UART_LOG_PutChar
1011:Generated_Source\PSoC5/UART_LOG.c ****     ********************************************************************************
1012:Generated_Source\PSoC5/UART_LOG.c ****     *
1013:Generated_Source\PSoC5/UART_LOG.c ****     * Summary:
1014:Generated_Source\PSoC5/UART_LOG.c ****     *  Puts a byte of data into the transmit buffer to be sent when the bus is
1015:Generated_Source\PSoC5/UART_LOG.c ****     *  available. This is a blocking API that waits until the TX buffer has room to
1016:Generated_Source\PSoC5/UART_LOG.c ****     *  hold the data.
1017:Generated_Source\PSoC5/UART_LOG.c ****     *
1018:Generated_Source\PSoC5/UART_LOG.c ****     * Parameters:
1019:Generated_Source\PSoC5/UART_LOG.c ****     *  txDataByte: Byte containing the data to transmit
1020:Generated_Source\PSoC5/UART_LOG.c ****     *
1021:Generated_Source\PSoC5/UART_LOG.c ****     * Return:
1022:Generated_Source\PSoC5/UART_LOG.c ****     *  None.
1023:Generated_Source\PSoC5/UART_LOG.c ****     *
1024:Generated_Source\PSoC5/UART_LOG.c ****     * Global Variables:
1025:Generated_Source\PSoC5/UART_LOG.c ****     *  UART_LOG_txBuffer - RAM buffer pointer for save data for transmission
1026:Generated_Source\PSoC5/UART_LOG.c ****     *  UART_LOG_txBufferWrite - cyclic index for write to txBuffer,
1027:Generated_Source\PSoC5/UART_LOG.c ****     *     checked to identify free space in txBuffer and incremented after each byte
1028:Generated_Source\PSoC5/UART_LOG.c ****     *     saved to buffer.
1029:Generated_Source\PSoC5/UART_LOG.c ****     *  UART_LOG_txBufferRead - cyclic index for read from txBuffer,
1030:Generated_Source\PSoC5/UART_LOG.c ****     *     checked to identify free space in txBuffer.
1031:Generated_Source\PSoC5/UART_LOG.c ****     *  UART_LOG_initVar - checked to identify that the component has been
1032:Generated_Source\PSoC5/UART_LOG.c ****     *     initialized.
1033:Generated_Source\PSoC5/UART_LOG.c ****     *
1034:Generated_Source\PSoC5/UART_LOG.c ****     * Reentrant:
1035:Generated_Source\PSoC5/UART_LOG.c ****     *  No.
ARM GAS  C:\Users\Reza\AppData\Local\Temp\ccgubnqn.s 			page 31


1036:Generated_Source\PSoC5/UART_LOG.c ****     *
1037:Generated_Source\PSoC5/UART_LOG.c ****     * Theory:
1038:Generated_Source\PSoC5/UART_LOG.c ****     *  Allows the user to transmit any byte of data in a single transfer
1039:Generated_Source\PSoC5/UART_LOG.c ****     *
1040:Generated_Source\PSoC5/UART_LOG.c ****     *******************************************************************************/
1041:Generated_Source\PSoC5/UART_LOG.c ****     void UART_LOG_PutChar(uint8 txDataByte) 
1042:Generated_Source\PSoC5/UART_LOG.c ****     {
 655              		.loc 1 1042 0
 656              		.cfi_startproc
 657              		@ args = 0, pretend = 0, frame = 0
 658              		@ frame_needed = 0, uses_anonymous_args = 0
 659              		@ link register save eliminated.
 660              	.LVL28:
1043:Generated_Source\PSoC5/UART_LOG.c ****     #if (UART_LOG_TX_INTERRUPT_ENABLED)
1044:Generated_Source\PSoC5/UART_LOG.c ****         /* The temporary output pointer is used since it takes two instructions
1045:Generated_Source\PSoC5/UART_LOG.c ****         *  to increment with a wrap, and we can't risk doing that with the real
1046:Generated_Source\PSoC5/UART_LOG.c ****         *  pointer and getting an interrupt in between instructions.
1047:Generated_Source\PSoC5/UART_LOG.c ****         */
1048:Generated_Source\PSoC5/UART_LOG.c ****         uint8 locTxBufferWrite;
1049:Generated_Source\PSoC5/UART_LOG.c ****         uint8 locTxBufferRead;
1050:Generated_Source\PSoC5/UART_LOG.c **** 
1051:Generated_Source\PSoC5/UART_LOG.c ****         do
1052:Generated_Source\PSoC5/UART_LOG.c ****         { /* Block if software buffer is full, so we don't overwrite. */
1053:Generated_Source\PSoC5/UART_LOG.c **** 
1054:Generated_Source\PSoC5/UART_LOG.c ****         #if ((UART_LOG_TX_BUFFER_SIZE > UART_LOG_MAX_BYTE_VALUE) && (CY_PSOC3))
1055:Generated_Source\PSoC5/UART_LOG.c ****             /* Disable TX interrupt to protect variables from modification */
1056:Generated_Source\PSoC5/UART_LOG.c ****             UART_LOG_DisableTxInt();
1057:Generated_Source\PSoC5/UART_LOG.c ****         #endif /* (UART_LOG_TX_BUFFER_SIZE > UART_LOG_MAX_BYTE_VALUE) && (CY_PSOC3) */
1058:Generated_Source\PSoC5/UART_LOG.c **** 
1059:Generated_Source\PSoC5/UART_LOG.c ****             locTxBufferWrite = UART_LOG_txBufferWrite;
1060:Generated_Source\PSoC5/UART_LOG.c ****             locTxBufferRead  = UART_LOG_txBufferRead;
1061:Generated_Source\PSoC5/UART_LOG.c **** 
1062:Generated_Source\PSoC5/UART_LOG.c ****         #if ((UART_LOG_TX_BUFFER_SIZE > UART_LOG_MAX_BYTE_VALUE) && (CY_PSOC3))
1063:Generated_Source\PSoC5/UART_LOG.c ****             /* Enable interrupt to continue transmission */
1064:Generated_Source\PSoC5/UART_LOG.c ****             UART_LOG_EnableTxInt();
1065:Generated_Source\PSoC5/UART_LOG.c ****         #endif /* (UART_LOG_TX_BUFFER_SIZE > UART_LOG_MAX_BYTE_VALUE) && (CY_PSOC3) */
1066:Generated_Source\PSoC5/UART_LOG.c ****         }
1067:Generated_Source\PSoC5/UART_LOG.c ****         while( (locTxBufferWrite < locTxBufferRead) ? (locTxBufferWrite == (locTxBufferRead - 1u)) 
1068:Generated_Source\PSoC5/UART_LOG.c ****                                 ((locTxBufferWrite - locTxBufferRead) ==
1069:Generated_Source\PSoC5/UART_LOG.c ****                                 (uint8)(UART_LOG_TX_BUFFER_SIZE - 1u)) );
1070:Generated_Source\PSoC5/UART_LOG.c **** 
1071:Generated_Source\PSoC5/UART_LOG.c ****         if( (locTxBufferRead == locTxBufferWrite) &&
1072:Generated_Source\PSoC5/UART_LOG.c ****             ((UART_LOG_TXSTATUS_REG & UART_LOG_TX_STS_FIFO_FULL) == 0u) )
1073:Generated_Source\PSoC5/UART_LOG.c ****         {
1074:Generated_Source\PSoC5/UART_LOG.c ****             /* Add directly to the FIFO */
1075:Generated_Source\PSoC5/UART_LOG.c ****             UART_LOG_TXDATA_REG = txDataByte;
1076:Generated_Source\PSoC5/UART_LOG.c ****         }
1077:Generated_Source\PSoC5/UART_LOG.c ****         else
1078:Generated_Source\PSoC5/UART_LOG.c ****         {
1079:Generated_Source\PSoC5/UART_LOG.c ****             if(locTxBufferWrite >= UART_LOG_TX_BUFFER_SIZE)
1080:Generated_Source\PSoC5/UART_LOG.c ****             {
1081:Generated_Source\PSoC5/UART_LOG.c ****                 locTxBufferWrite = 0u;
1082:Generated_Source\PSoC5/UART_LOG.c ****             }
1083:Generated_Source\PSoC5/UART_LOG.c ****             /* Add to the software buffer. */
1084:Generated_Source\PSoC5/UART_LOG.c ****             UART_LOG_txBuffer[locTxBufferWrite] = txDataByte;
1085:Generated_Source\PSoC5/UART_LOG.c ****             locTxBufferWrite++;
1086:Generated_Source\PSoC5/UART_LOG.c **** 
ARM GAS  C:\Users\Reza\AppData\Local\Temp\ccgubnqn.s 			page 32


1087:Generated_Source\PSoC5/UART_LOG.c ****             /* Finally, update the real output pointer */
1088:Generated_Source\PSoC5/UART_LOG.c ****         #if ((UART_LOG_TX_BUFFER_SIZE > UART_LOG_MAX_BYTE_VALUE) && (CY_PSOC3))
1089:Generated_Source\PSoC5/UART_LOG.c ****             UART_LOG_DisableTxInt();
1090:Generated_Source\PSoC5/UART_LOG.c ****         #endif /* (UART_LOG_TX_BUFFER_SIZE > UART_LOG_MAX_BYTE_VALUE) && (CY_PSOC3) */
1091:Generated_Source\PSoC5/UART_LOG.c **** 
1092:Generated_Source\PSoC5/UART_LOG.c ****             UART_LOG_txBufferWrite = locTxBufferWrite;
1093:Generated_Source\PSoC5/UART_LOG.c **** 
1094:Generated_Source\PSoC5/UART_LOG.c ****         #if ((UART_LOG_TX_BUFFER_SIZE > UART_LOG_MAX_BYTE_VALUE) && (CY_PSOC3))
1095:Generated_Source\PSoC5/UART_LOG.c ****             UART_LOG_EnableTxInt();
1096:Generated_Source\PSoC5/UART_LOG.c ****         #endif /* (UART_LOG_TX_BUFFER_SIZE > UART_LOG_MAX_BYTE_VALUE) && (CY_PSOC3) */
1097:Generated_Source\PSoC5/UART_LOG.c **** 
1098:Generated_Source\PSoC5/UART_LOG.c ****             if(0u != (UART_LOG_TXSTATUS_REG & UART_LOG_TX_STS_FIFO_EMPTY))
1099:Generated_Source\PSoC5/UART_LOG.c ****             {
1100:Generated_Source\PSoC5/UART_LOG.c ****                 /* Trigger TX interrupt to send software buffer */
1101:Generated_Source\PSoC5/UART_LOG.c ****                 UART_LOG_SetPendingTxInt();
1102:Generated_Source\PSoC5/UART_LOG.c ****             }
1103:Generated_Source\PSoC5/UART_LOG.c ****         }
1104:Generated_Source\PSoC5/UART_LOG.c **** 
1105:Generated_Source\PSoC5/UART_LOG.c ****     #else
1106:Generated_Source\PSoC5/UART_LOG.c **** 
1107:Generated_Source\PSoC5/UART_LOG.c ****         while((UART_LOG_TXSTATUS_REG & UART_LOG_TX_STS_FIFO_FULL) != 0u)
 661              		.loc 1 1107 0
 662 0000 034A     		ldr	r2, .L64
 663              	.L62:
 664              		.loc 1 1107 0 is_stmt 0 discriminator 1
 665 0002 1378     		ldrb	r3, [r2]	@ zero_extendqisi2
 666 0004 5B07     		lsls	r3, r3, #29
 667 0006 FCD4     		bmi	.L62
1108:Generated_Source\PSoC5/UART_LOG.c ****         {
1109:Generated_Source\PSoC5/UART_LOG.c ****             /* Wait for room in the FIFO */
1110:Generated_Source\PSoC5/UART_LOG.c ****         }
1111:Generated_Source\PSoC5/UART_LOG.c **** 
1112:Generated_Source\PSoC5/UART_LOG.c ****         /* Add directly to the FIFO */
1113:Generated_Source\PSoC5/UART_LOG.c ****         UART_LOG_TXDATA_REG = txDataByte;
 668              		.loc 1 1113 0 is_stmt 1
 669 0008 024B     		ldr	r3, .L64+4
 670 000a 1870     		strb	r0, [r3]
 671 000c 7047     		bx	lr
 672              	.L65:
 673 000e 00BF     		.align	2
 674              	.L64:
 675 0010 66640040 		.word	1073767526
 676 0014 46640040 		.word	1073767494
 677              		.cfi_endproc
 678              	.LFE19:
 679              		.size	UART_LOG_PutChar, .-UART_LOG_PutChar
 680              		.section	.text.UART_LOG_PutString,"ax",%progbits
 681              		.align	1
 682              		.global	UART_LOG_PutString
 683              		.thumb
 684              		.thumb_func
 685              		.type	UART_LOG_PutString, %function
 686              	UART_LOG_PutString:
 687              	.LFB20:
1114:Generated_Source\PSoC5/UART_LOG.c **** 
1115:Generated_Source\PSoC5/UART_LOG.c ****     #endif /* UART_LOG_TX_INTERRUPT_ENABLED */
1116:Generated_Source\PSoC5/UART_LOG.c ****     }
ARM GAS  C:\Users\Reza\AppData\Local\Temp\ccgubnqn.s 			page 33


1117:Generated_Source\PSoC5/UART_LOG.c **** 
1118:Generated_Source\PSoC5/UART_LOG.c **** 
1119:Generated_Source\PSoC5/UART_LOG.c ****     /*******************************************************************************
1120:Generated_Source\PSoC5/UART_LOG.c ****     * Function Name: UART_LOG_PutString
1121:Generated_Source\PSoC5/UART_LOG.c ****     ********************************************************************************
1122:Generated_Source\PSoC5/UART_LOG.c ****     *
1123:Generated_Source\PSoC5/UART_LOG.c ****     * Summary:
1124:Generated_Source\PSoC5/UART_LOG.c ****     *  Sends a NULL terminated string to the TX buffer for transmission.
1125:Generated_Source\PSoC5/UART_LOG.c ****     *
1126:Generated_Source\PSoC5/UART_LOG.c ****     * Parameters:
1127:Generated_Source\PSoC5/UART_LOG.c ****     *  string[]: Pointer to the null terminated string array residing in RAM or ROM
1128:Generated_Source\PSoC5/UART_LOG.c ****     *
1129:Generated_Source\PSoC5/UART_LOG.c ****     * Return:
1130:Generated_Source\PSoC5/UART_LOG.c ****     *  None.
1131:Generated_Source\PSoC5/UART_LOG.c ****     *
1132:Generated_Source\PSoC5/UART_LOG.c ****     * Global Variables:
1133:Generated_Source\PSoC5/UART_LOG.c ****     *  UART_LOG_initVar - checked to identify that the component has been
1134:Generated_Source\PSoC5/UART_LOG.c ****     *     initialized.
1135:Generated_Source\PSoC5/UART_LOG.c ****     *
1136:Generated_Source\PSoC5/UART_LOG.c ****     * Reentrant:
1137:Generated_Source\PSoC5/UART_LOG.c ****     *  No.
1138:Generated_Source\PSoC5/UART_LOG.c ****     *
1139:Generated_Source\PSoC5/UART_LOG.c ****     * Theory:
1140:Generated_Source\PSoC5/UART_LOG.c ****     *  If there is not enough memory in the TX buffer for the entire string, this
1141:Generated_Source\PSoC5/UART_LOG.c ****     *  function blocks until the last character of the string is loaded into the
1142:Generated_Source\PSoC5/UART_LOG.c ****     *  TX buffer.
1143:Generated_Source\PSoC5/UART_LOG.c ****     *
1144:Generated_Source\PSoC5/UART_LOG.c ****     *******************************************************************************/
1145:Generated_Source\PSoC5/UART_LOG.c ****     void UART_LOG_PutString(const char8 string[]) 
1146:Generated_Source\PSoC5/UART_LOG.c ****     {
 688              		.loc 1 1146 0
 689              		.cfi_startproc
 690              		@ args = 0, pretend = 0, frame = 0
 691              		@ frame_needed = 0, uses_anonymous_args = 0
 692              	.LVL29:
 693 0000 10B5     		push	{r4, lr}
 694              		.cfi_def_cfa_offset 8
 695              		.cfi_offset 4, -8
 696              		.cfi_offset 14, -4
1147:Generated_Source\PSoC5/UART_LOG.c ****         uint16 bufIndex = 0u;
1148:Generated_Source\PSoC5/UART_LOG.c **** 
1149:Generated_Source\PSoC5/UART_LOG.c ****         /* If not Initialized then skip this function */
1150:Generated_Source\PSoC5/UART_LOG.c ****         if(UART_LOG_initVar != 0u)
 697              		.loc 1 1150 0
 698 0002 064B     		ldr	r3, .L73
1146:Generated_Source\PSoC5/UART_LOG.c ****         uint16 bufIndex = 0u;
 699              		.loc 1 1146 0
 700 0004 0446     		mov	r4, r0
 701              		.loc 1 1150 0
 702 0006 1B78     		ldrb	r3, [r3]	@ zero_extendqisi2
 703 0008 3BB1     		cbz	r3, .L66
 704 000a 0021     		movs	r1, #0
 705              	.LVL30:
 706              	.L68:
1151:Generated_Source\PSoC5/UART_LOG.c ****         {
1152:Generated_Source\PSoC5/UART_LOG.c ****             /* This is a blocking function, it will not exit until all data is sent */
1153:Generated_Source\PSoC5/UART_LOG.c ****             while(string[bufIndex] != (char8) 0)
ARM GAS  C:\Users\Reza\AppData\Local\Temp\ccgubnqn.s 			page 34


 707              		.loc 1 1153 0
 708 000c 8BB2     		uxth	r3, r1
 709              	.LVL31:
 710 000e E05C     		ldrb	r0, [r4, r3]	@ zero_extendqisi2
 711 0010 0131     		adds	r1, r1, #1
 712 0012 10B1     		cbz	r0, .L66
1154:Generated_Source\PSoC5/UART_LOG.c ****             {
1155:Generated_Source\PSoC5/UART_LOG.c ****                 UART_LOG_PutChar((uint8)string[bufIndex]);
 713              		.loc 1 1155 0
 714 0014 FFF7FEFF 		bl	UART_LOG_PutChar
 715              	.LVL32:
 716 0018 F8E7     		b	.L68
 717              	.LVL33:
 718              	.L66:
 719 001a 10BD     		pop	{r4, pc}
 720              	.LVL34:
 721              	.L74:
 722              		.align	2
 723              	.L73:
 724 001c 00000000 		.word	.LANCHOR0
 725              		.cfi_endproc
 726              	.LFE20:
 727              		.size	UART_LOG_PutString, .-UART_LOG_PutString
 728              		.section	.text.UART_LOG_PutArray,"ax",%progbits
 729              		.align	1
 730              		.global	UART_LOG_PutArray
 731              		.thumb
 732              		.thumb_func
 733              		.type	UART_LOG_PutArray, %function
 734              	UART_LOG_PutArray:
 735              	.LFB21:
1156:Generated_Source\PSoC5/UART_LOG.c ****                 bufIndex++;
1157:Generated_Source\PSoC5/UART_LOG.c ****             }
1158:Generated_Source\PSoC5/UART_LOG.c ****         }
1159:Generated_Source\PSoC5/UART_LOG.c ****     }
1160:Generated_Source\PSoC5/UART_LOG.c **** 
1161:Generated_Source\PSoC5/UART_LOG.c **** 
1162:Generated_Source\PSoC5/UART_LOG.c ****     /*******************************************************************************
1163:Generated_Source\PSoC5/UART_LOG.c ****     * Function Name: UART_LOG_PutArray
1164:Generated_Source\PSoC5/UART_LOG.c ****     ********************************************************************************
1165:Generated_Source\PSoC5/UART_LOG.c ****     *
1166:Generated_Source\PSoC5/UART_LOG.c ****     * Summary:
1167:Generated_Source\PSoC5/UART_LOG.c ****     *  Places N bytes of data from a memory array into the TX buffer for
1168:Generated_Source\PSoC5/UART_LOG.c ****     *  transmission.
1169:Generated_Source\PSoC5/UART_LOG.c ****     *
1170:Generated_Source\PSoC5/UART_LOG.c ****     * Parameters:
1171:Generated_Source\PSoC5/UART_LOG.c ****     *  string[]: Address of the memory array residing in RAM or ROM.
1172:Generated_Source\PSoC5/UART_LOG.c ****     *  byteCount: Number of bytes to be transmitted. The type depends on TX Buffer
1173:Generated_Source\PSoC5/UART_LOG.c ****     *             Size parameter.
1174:Generated_Source\PSoC5/UART_LOG.c ****     *
1175:Generated_Source\PSoC5/UART_LOG.c ****     * Return:
1176:Generated_Source\PSoC5/UART_LOG.c ****     *  None.
1177:Generated_Source\PSoC5/UART_LOG.c ****     *
1178:Generated_Source\PSoC5/UART_LOG.c ****     * Global Variables:
1179:Generated_Source\PSoC5/UART_LOG.c ****     *  UART_LOG_initVar - checked to identify that the component has been
1180:Generated_Source\PSoC5/UART_LOG.c ****     *     initialized.
1181:Generated_Source\PSoC5/UART_LOG.c ****     *
ARM GAS  C:\Users\Reza\AppData\Local\Temp\ccgubnqn.s 			page 35


1182:Generated_Source\PSoC5/UART_LOG.c ****     * Reentrant:
1183:Generated_Source\PSoC5/UART_LOG.c ****     *  No.
1184:Generated_Source\PSoC5/UART_LOG.c ****     *
1185:Generated_Source\PSoC5/UART_LOG.c ****     * Theory:
1186:Generated_Source\PSoC5/UART_LOG.c ****     *  If there is not enough memory in the TX buffer for the entire string, this
1187:Generated_Source\PSoC5/UART_LOG.c ****     *  function blocks until the last character of the string is loaded into the
1188:Generated_Source\PSoC5/UART_LOG.c ****     *  TX buffer.
1189:Generated_Source\PSoC5/UART_LOG.c ****     *
1190:Generated_Source\PSoC5/UART_LOG.c ****     *******************************************************************************/
1191:Generated_Source\PSoC5/UART_LOG.c ****     void UART_LOG_PutArray(const uint8 string[], uint8 byteCount)
1192:Generated_Source\PSoC5/UART_LOG.c ****                                                                     
1193:Generated_Source\PSoC5/UART_LOG.c ****     {
 736              		.loc 1 1193 0
 737              		.cfi_startproc
 738              		@ args = 0, pretend = 0, frame = 0
 739              		@ frame_needed = 0, uses_anonymous_args = 0
 740              	.LVL35:
 741 0000 10B5     		push	{r4, lr}
 742              		.cfi_def_cfa_offset 8
 743              		.cfi_offset 4, -8
 744              		.cfi_offset 14, -4
1194:Generated_Source\PSoC5/UART_LOG.c ****         uint8 bufIndex = 0u;
1195:Generated_Source\PSoC5/UART_LOG.c **** 
1196:Generated_Source\PSoC5/UART_LOG.c ****         /* If not Initialized then skip this function */
1197:Generated_Source\PSoC5/UART_LOG.c ****         if(UART_LOG_initVar != 0u)
 745              		.loc 1 1197 0
 746 0002 074B     		ldr	r3, .L80
 747 0004 1B78     		ldrb	r3, [r3]	@ zero_extendqisi2
 748 0006 4BB1     		cbz	r3, .L75
 749 0008 0139     		subs	r1, r1, #1
 750              	.LVL36:
 751 000a 441E     		subs	r4, r0, #1
 752 000c 0144     		add	r1, r1, r0
 753              	.LVL37:
 754              	.L77:
1198:Generated_Source\PSoC5/UART_LOG.c ****         {
1199:Generated_Source\PSoC5/UART_LOG.c ****             while(bufIndex < byteCount)
 755              		.loc 1 1199 0
 756 000e 8C42     		cmp	r4, r1
 757 0010 04D0     		beq	.L75
1200:Generated_Source\PSoC5/UART_LOG.c ****             {
1201:Generated_Source\PSoC5/UART_LOG.c ****                 UART_LOG_PutChar(string[bufIndex]);
 758              		.loc 1 1201 0
 759 0012 14F8010F 		ldrb	r0, [r4, #1]!	@ zero_extendqisi2
 760              	.LVL38:
 761 0016 FFF7FEFF 		bl	UART_LOG_PutChar
 762              	.LVL39:
 763 001a F8E7     		b	.L77
 764              	.LVL40:
 765              	.L75:
 766 001c 10BD     		pop	{r4, pc}
 767              	.L81:
 768 001e 00BF     		.align	2
 769              	.L80:
 770 0020 00000000 		.word	.LANCHOR0
 771              		.cfi_endproc
 772              	.LFE21:
ARM GAS  C:\Users\Reza\AppData\Local\Temp\ccgubnqn.s 			page 36


 773              		.size	UART_LOG_PutArray, .-UART_LOG_PutArray
 774              		.section	.text.UART_LOG_PutCRLF,"ax",%progbits
 775              		.align	1
 776              		.global	UART_LOG_PutCRLF
 777              		.thumb
 778              		.thumb_func
 779              		.type	UART_LOG_PutCRLF, %function
 780              	UART_LOG_PutCRLF:
 781              	.LFB22:
1202:Generated_Source\PSoC5/UART_LOG.c ****                 bufIndex++;
1203:Generated_Source\PSoC5/UART_LOG.c ****             }
1204:Generated_Source\PSoC5/UART_LOG.c ****         }
1205:Generated_Source\PSoC5/UART_LOG.c ****     }
1206:Generated_Source\PSoC5/UART_LOG.c **** 
1207:Generated_Source\PSoC5/UART_LOG.c **** 
1208:Generated_Source\PSoC5/UART_LOG.c ****     /*******************************************************************************
1209:Generated_Source\PSoC5/UART_LOG.c ****     * Function Name: UART_LOG_PutCRLF
1210:Generated_Source\PSoC5/UART_LOG.c ****     ********************************************************************************
1211:Generated_Source\PSoC5/UART_LOG.c ****     *
1212:Generated_Source\PSoC5/UART_LOG.c ****     * Summary:
1213:Generated_Source\PSoC5/UART_LOG.c ****     *  Writes a byte of data followed by a carriage return (0x0D) and line feed
1214:Generated_Source\PSoC5/UART_LOG.c ****     *  (0x0A) to the transmit buffer.
1215:Generated_Source\PSoC5/UART_LOG.c ****     *
1216:Generated_Source\PSoC5/UART_LOG.c ****     * Parameters:
1217:Generated_Source\PSoC5/UART_LOG.c ****     *  txDataByte: Data byte to transmit before the carriage return and line feed.
1218:Generated_Source\PSoC5/UART_LOG.c ****     *
1219:Generated_Source\PSoC5/UART_LOG.c ****     * Return:
1220:Generated_Source\PSoC5/UART_LOG.c ****     *  None.
1221:Generated_Source\PSoC5/UART_LOG.c ****     *
1222:Generated_Source\PSoC5/UART_LOG.c ****     * Global Variables:
1223:Generated_Source\PSoC5/UART_LOG.c ****     *  UART_LOG_initVar - checked to identify that the component has been
1224:Generated_Source\PSoC5/UART_LOG.c ****     *     initialized.
1225:Generated_Source\PSoC5/UART_LOG.c ****     *
1226:Generated_Source\PSoC5/UART_LOG.c ****     * Reentrant:
1227:Generated_Source\PSoC5/UART_LOG.c ****     *  No.
1228:Generated_Source\PSoC5/UART_LOG.c ****     *
1229:Generated_Source\PSoC5/UART_LOG.c ****     *******************************************************************************/
1230:Generated_Source\PSoC5/UART_LOG.c ****     void UART_LOG_PutCRLF(uint8 txDataByte) 
1231:Generated_Source\PSoC5/UART_LOG.c ****     {
 782              		.loc 1 1231 0
 783              		.cfi_startproc
 784              		@ args = 0, pretend = 0, frame = 0
 785              		@ frame_needed = 0, uses_anonymous_args = 0
 786              	.LVL41:
 787 0000 08B5     		push	{r3, lr}
 788              		.cfi_def_cfa_offset 8
 789              		.cfi_offset 3, -8
 790              		.cfi_offset 14, -4
1232:Generated_Source\PSoC5/UART_LOG.c ****         /* If not Initialized then skip this function */
1233:Generated_Source\PSoC5/UART_LOG.c ****         if(UART_LOG_initVar != 0u)
 791              		.loc 1 1233 0
 792 0002 074B     		ldr	r3, .L84
 793 0004 1B78     		ldrb	r3, [r3]	@ zero_extendqisi2
 794 0006 4BB1     		cbz	r3, .L82
1234:Generated_Source\PSoC5/UART_LOG.c ****         {
1235:Generated_Source\PSoC5/UART_LOG.c ****             UART_LOG_PutChar(txDataByte);
 795              		.loc 1 1235 0
ARM GAS  C:\Users\Reza\AppData\Local\Temp\ccgubnqn.s 			page 37


 796 0008 FFF7FEFF 		bl	UART_LOG_PutChar
 797              	.LVL42:
1236:Generated_Source\PSoC5/UART_LOG.c ****             UART_LOG_PutChar(0x0Du);
 798              		.loc 1 1236 0
 799 000c 0D20     		movs	r0, #13
 800 000e FFF7FEFF 		bl	UART_LOG_PutChar
 801              	.LVL43:
1237:Generated_Source\PSoC5/UART_LOG.c ****             UART_LOG_PutChar(0x0Au);
1238:Generated_Source\PSoC5/UART_LOG.c ****         }
1239:Generated_Source\PSoC5/UART_LOG.c ****     }
 802              		.loc 1 1239 0
 803 0012 BDE80840 		pop	{r3, lr}
 804              		.cfi_remember_state
 805              		.cfi_restore 14
 806              		.cfi_restore 3
 807              		.cfi_def_cfa_offset 0
1237:Generated_Source\PSoC5/UART_LOG.c ****             UART_LOG_PutChar(0x0Au);
 808              		.loc 1 1237 0
 809 0016 0A20     		movs	r0, #10
 810 0018 FFF7FEBF 		b	UART_LOG_PutChar
 811              	.LVL44:
 812              	.L82:
 813              		.cfi_restore_state
 814 001c 08BD     		pop	{r3, pc}
 815              	.L85:
 816 001e 00BF     		.align	2
 817              	.L84:
 818 0020 00000000 		.word	.LANCHOR0
 819              		.cfi_endproc
 820              	.LFE22:
 821              		.size	UART_LOG_PutCRLF, .-UART_LOG_PutCRLF
 822              		.section	.text.UART_LOG_GetTxBufferSize,"ax",%progbits
 823              		.align	1
 824              		.global	UART_LOG_GetTxBufferSize
 825              		.thumb
 826              		.thumb_func
 827              		.type	UART_LOG_GetTxBufferSize, %function
 828              	UART_LOG_GetTxBufferSize:
 829              	.LFB23:
1240:Generated_Source\PSoC5/UART_LOG.c **** 
1241:Generated_Source\PSoC5/UART_LOG.c **** 
1242:Generated_Source\PSoC5/UART_LOG.c ****     /*******************************************************************************
1243:Generated_Source\PSoC5/UART_LOG.c ****     * Function Name: UART_LOG_GetTxBufferSize
1244:Generated_Source\PSoC5/UART_LOG.c ****     ********************************************************************************
1245:Generated_Source\PSoC5/UART_LOG.c ****     *
1246:Generated_Source\PSoC5/UART_LOG.c ****     * Summary:
1247:Generated_Source\PSoC5/UART_LOG.c ****     *  Returns the number of bytes in the TX buffer which are waiting to be 
1248:Generated_Source\PSoC5/UART_LOG.c ****     *  transmitted.
1249:Generated_Source\PSoC5/UART_LOG.c ****     *  * TX software buffer is disabled (TX Buffer Size parameter is equal to 4): 
1250:Generated_Source\PSoC5/UART_LOG.c ****     *    returns 0 for empty TX FIFO, 1 for not full TX FIFO or 4 for full TX FIFO.
1251:Generated_Source\PSoC5/UART_LOG.c ****     *  * TX software buffer is enabled: returns the number of bytes in the TX 
1252:Generated_Source\PSoC5/UART_LOG.c ****     *    software buffer which are waiting to be transmitted. Bytes available in the
1253:Generated_Source\PSoC5/UART_LOG.c ****     *    TX FIFO do not count.
1254:Generated_Source\PSoC5/UART_LOG.c ****     *
1255:Generated_Source\PSoC5/UART_LOG.c ****     * Parameters:
1256:Generated_Source\PSoC5/UART_LOG.c ****     *  None.
1257:Generated_Source\PSoC5/UART_LOG.c ****     *
ARM GAS  C:\Users\Reza\AppData\Local\Temp\ccgubnqn.s 			page 38


1258:Generated_Source\PSoC5/UART_LOG.c ****     * Return:
1259:Generated_Source\PSoC5/UART_LOG.c ****     *  Number of bytes used in the TX buffer. Return value type depends on the TX 
1260:Generated_Source\PSoC5/UART_LOG.c ****     *  Buffer Size parameter.
1261:Generated_Source\PSoC5/UART_LOG.c ****     *
1262:Generated_Source\PSoC5/UART_LOG.c ****     * Global Variables:
1263:Generated_Source\PSoC5/UART_LOG.c ****     *  UART_LOG_txBufferWrite - used to calculate left space.
1264:Generated_Source\PSoC5/UART_LOG.c ****     *  UART_LOG_txBufferRead - used to calculate left space.
1265:Generated_Source\PSoC5/UART_LOG.c ****     *
1266:Generated_Source\PSoC5/UART_LOG.c ****     * Reentrant:
1267:Generated_Source\PSoC5/UART_LOG.c ****     *  No.
1268:Generated_Source\PSoC5/UART_LOG.c ****     *
1269:Generated_Source\PSoC5/UART_LOG.c ****     * Theory:
1270:Generated_Source\PSoC5/UART_LOG.c ****     *  Allows the user to find out how full the TX Buffer is.
1271:Generated_Source\PSoC5/UART_LOG.c ****     *
1272:Generated_Source\PSoC5/UART_LOG.c ****     *******************************************************************************/
1273:Generated_Source\PSoC5/UART_LOG.c ****     uint8 UART_LOG_GetTxBufferSize(void)
1274:Generated_Source\PSoC5/UART_LOG.c ****                                                             
1275:Generated_Source\PSoC5/UART_LOG.c ****     {
 830              		.loc 1 1275 0
 831              		.cfi_startproc
 832              		@ args = 0, pretend = 0, frame = 0
 833              		@ frame_needed = 0, uses_anonymous_args = 0
 834              		@ link register save eliminated.
1276:Generated_Source\PSoC5/UART_LOG.c ****         uint8 size;
1277:Generated_Source\PSoC5/UART_LOG.c **** 
1278:Generated_Source\PSoC5/UART_LOG.c ****     #if (UART_LOG_TX_INTERRUPT_ENABLED)
1279:Generated_Source\PSoC5/UART_LOG.c **** 
1280:Generated_Source\PSoC5/UART_LOG.c ****         /* Protect variables that could change on interrupt. */
1281:Generated_Source\PSoC5/UART_LOG.c ****         UART_LOG_DisableTxInt();
1282:Generated_Source\PSoC5/UART_LOG.c **** 
1283:Generated_Source\PSoC5/UART_LOG.c ****         if(UART_LOG_txBufferRead == UART_LOG_txBufferWrite)
1284:Generated_Source\PSoC5/UART_LOG.c ****         {
1285:Generated_Source\PSoC5/UART_LOG.c ****             size = 0u;
1286:Generated_Source\PSoC5/UART_LOG.c ****         }
1287:Generated_Source\PSoC5/UART_LOG.c ****         else if(UART_LOG_txBufferRead < UART_LOG_txBufferWrite)
1288:Generated_Source\PSoC5/UART_LOG.c ****         {
1289:Generated_Source\PSoC5/UART_LOG.c ****             size = (UART_LOG_txBufferWrite - UART_LOG_txBufferRead);
1290:Generated_Source\PSoC5/UART_LOG.c ****         }
1291:Generated_Source\PSoC5/UART_LOG.c ****         else
1292:Generated_Source\PSoC5/UART_LOG.c ****         {
1293:Generated_Source\PSoC5/UART_LOG.c ****             size = (UART_LOG_TX_BUFFER_SIZE - UART_LOG_txBufferRead) +
1294:Generated_Source\PSoC5/UART_LOG.c ****                     UART_LOG_txBufferWrite;
1295:Generated_Source\PSoC5/UART_LOG.c ****         }
1296:Generated_Source\PSoC5/UART_LOG.c **** 
1297:Generated_Source\PSoC5/UART_LOG.c ****         UART_LOG_EnableTxInt();
1298:Generated_Source\PSoC5/UART_LOG.c **** 
1299:Generated_Source\PSoC5/UART_LOG.c ****     #else
1300:Generated_Source\PSoC5/UART_LOG.c **** 
1301:Generated_Source\PSoC5/UART_LOG.c ****         size = UART_LOG_TXSTATUS_REG;
 835              		.loc 1 1301 0
 836 0000 054B     		ldr	r3, .L89
 837 0002 1878     		ldrb	r0, [r3]	@ zero_extendqisi2
 838 0004 C0B2     		uxtb	r0, r0
 839              	.LVL45:
1302:Generated_Source\PSoC5/UART_LOG.c **** 
1303:Generated_Source\PSoC5/UART_LOG.c ****         /* Is the fifo is full. */
1304:Generated_Source\PSoC5/UART_LOG.c ****         if((size & UART_LOG_TX_STS_FIFO_FULL) != 0u)
ARM GAS  C:\Users\Reza\AppData\Local\Temp\ccgubnqn.s 			page 39


 840              		.loc 1 1304 0
 841 0006 4307     		lsls	r3, r0, #29
1305:Generated_Source\PSoC5/UART_LOG.c ****         {
1306:Generated_Source\PSoC5/UART_LOG.c ****             size = UART_LOG_FIFO_LENGTH;
1307:Generated_Source\PSoC5/UART_LOG.c ****         }
1308:Generated_Source\PSoC5/UART_LOG.c ****         else if((size & UART_LOG_TX_STS_FIFO_EMPTY) != 0u)
 842              		.loc 1 1308 0
 843 0008 5ABF     		itte	pl
 844 000a 80F00200 		eorpl	r0, r0, #2
 845              	.LVL46:
 846 000e C0F34000 		ubfxpl	r0, r0, #1, #1
1306:Generated_Source\PSoC5/UART_LOG.c ****         }
 847              		.loc 1 1306 0
 848 0012 0420     		movmi	r0, #4
 849              	.LVL47:
1309:Generated_Source\PSoC5/UART_LOG.c ****         {
1310:Generated_Source\PSoC5/UART_LOG.c ****             size = 0u;
1311:Generated_Source\PSoC5/UART_LOG.c ****         }
1312:Generated_Source\PSoC5/UART_LOG.c ****         else
1313:Generated_Source\PSoC5/UART_LOG.c ****         {
1314:Generated_Source\PSoC5/UART_LOG.c ****             /* We only know there is data in the fifo. */
1315:Generated_Source\PSoC5/UART_LOG.c ****             size = 1u;
1316:Generated_Source\PSoC5/UART_LOG.c ****         }
1317:Generated_Source\PSoC5/UART_LOG.c **** 
1318:Generated_Source\PSoC5/UART_LOG.c ****     #endif /* (UART_LOG_TX_INTERRUPT_ENABLED) */
1319:Generated_Source\PSoC5/UART_LOG.c **** 
1320:Generated_Source\PSoC5/UART_LOG.c ****     return(size);
1321:Generated_Source\PSoC5/UART_LOG.c ****     }
 850              		.loc 1 1321 0
 851 0014 7047     		bx	lr
 852              	.L90:
 853 0016 00BF     		.align	2
 854              	.L89:
 855 0018 66640040 		.word	1073767526
 856              		.cfi_endproc
 857              	.LFE23:
 858              		.size	UART_LOG_GetTxBufferSize, .-UART_LOG_GetTxBufferSize
 859              		.section	.text.UART_LOG_ClearTxBuffer,"ax",%progbits
 860              		.align	1
 861              		.global	UART_LOG_ClearTxBuffer
 862              		.thumb
 863              		.thumb_func
 864              		.type	UART_LOG_ClearTxBuffer, %function
 865              	UART_LOG_ClearTxBuffer:
 866              	.LFB24:
1322:Generated_Source\PSoC5/UART_LOG.c **** 
1323:Generated_Source\PSoC5/UART_LOG.c **** 
1324:Generated_Source\PSoC5/UART_LOG.c ****     /*******************************************************************************
1325:Generated_Source\PSoC5/UART_LOG.c ****     * Function Name: UART_LOG_ClearTxBuffer
1326:Generated_Source\PSoC5/UART_LOG.c ****     ********************************************************************************
1327:Generated_Source\PSoC5/UART_LOG.c ****     *
1328:Generated_Source\PSoC5/UART_LOG.c ****     * Summary:
1329:Generated_Source\PSoC5/UART_LOG.c ****     *  Clears all data from the TX buffer and hardware TX FIFO.
1330:Generated_Source\PSoC5/UART_LOG.c ****     *
1331:Generated_Source\PSoC5/UART_LOG.c ****     * Parameters:
1332:Generated_Source\PSoC5/UART_LOG.c ****     *  None.
1333:Generated_Source\PSoC5/UART_LOG.c ****     *
ARM GAS  C:\Users\Reza\AppData\Local\Temp\ccgubnqn.s 			page 40


1334:Generated_Source\PSoC5/UART_LOG.c ****     * Return:
1335:Generated_Source\PSoC5/UART_LOG.c ****     *  None.
1336:Generated_Source\PSoC5/UART_LOG.c ****     *
1337:Generated_Source\PSoC5/UART_LOG.c ****     * Global Variables:
1338:Generated_Source\PSoC5/UART_LOG.c ****     *  UART_LOG_txBufferWrite - cleared to zero.
1339:Generated_Source\PSoC5/UART_LOG.c ****     *  UART_LOG_txBufferRead - cleared to zero.
1340:Generated_Source\PSoC5/UART_LOG.c ****     *
1341:Generated_Source\PSoC5/UART_LOG.c ****     * Reentrant:
1342:Generated_Source\PSoC5/UART_LOG.c ****     *  No.
1343:Generated_Source\PSoC5/UART_LOG.c ****     *
1344:Generated_Source\PSoC5/UART_LOG.c ****     * Theory:
1345:Generated_Source\PSoC5/UART_LOG.c ****     *  Setting the pointers to zero makes the system believe there is no data to
1346:Generated_Source\PSoC5/UART_LOG.c ****     *  read and writing will resume at address 0 overwriting any data that may have
1347:Generated_Source\PSoC5/UART_LOG.c ****     *  remained in the RAM.
1348:Generated_Source\PSoC5/UART_LOG.c ****     *
1349:Generated_Source\PSoC5/UART_LOG.c ****     * Side Effects:
1350:Generated_Source\PSoC5/UART_LOG.c ****     *  Data waiting in the transmit buffer is not sent; a byte that is currently
1351:Generated_Source\PSoC5/UART_LOG.c ****     *  transmitting finishes transmitting.
1352:Generated_Source\PSoC5/UART_LOG.c ****     *
1353:Generated_Source\PSoC5/UART_LOG.c ****     *******************************************************************************/
1354:Generated_Source\PSoC5/UART_LOG.c ****     void UART_LOG_ClearTxBuffer(void) 
1355:Generated_Source\PSoC5/UART_LOG.c ****     {
 867              		.loc 1 1355 0
 868              		.cfi_startproc
 869              		@ args = 0, pretend = 0, frame = 0
 870              		@ frame_needed = 0, uses_anonymous_args = 0
 871 0000 08B5     		push	{r3, lr}
 872              		.cfi_def_cfa_offset 8
 873              		.cfi_offset 3, -8
 874              		.cfi_offset 14, -4
1356:Generated_Source\PSoC5/UART_LOG.c ****         uint8 enableInterrupts;
1357:Generated_Source\PSoC5/UART_LOG.c **** 
1358:Generated_Source\PSoC5/UART_LOG.c ****         enableInterrupts = CyEnterCriticalSection();
 875              		.loc 1 1358 0
 876 0002 FFF7FEFF 		bl	CyEnterCriticalSection
 877              	.LVL48:
1359:Generated_Source\PSoC5/UART_LOG.c ****         /* Clear the HW FIFO */
1360:Generated_Source\PSoC5/UART_LOG.c ****         UART_LOG_TXDATA_AUX_CTL_REG |= (uint8)  UART_LOG_TX_FIFO_CLR;
 878              		.loc 1 1360 0
 879 0006 064B     		ldr	r3, .L92
 880 0008 1A78     		ldrb	r2, [r3]	@ zero_extendqisi2
 881 000a 42F00102 		orr	r2, r2, #1
 882 000e 1A70     		strb	r2, [r3]
1361:Generated_Source\PSoC5/UART_LOG.c ****         UART_LOG_TXDATA_AUX_CTL_REG &= (uint8) ~UART_LOG_TX_FIFO_CLR;
 883              		.loc 1 1361 0
 884 0010 1A78     		ldrb	r2, [r3]	@ zero_extendqisi2
 885 0012 02F0FE02 		and	r2, r2, #254
 886 0016 1A70     		strb	r2, [r3]
1362:Generated_Source\PSoC5/UART_LOG.c ****         CyExitCriticalSection(enableInterrupts);
1363:Generated_Source\PSoC5/UART_LOG.c **** 
1364:Generated_Source\PSoC5/UART_LOG.c ****     #if (UART_LOG_TX_INTERRUPT_ENABLED)
1365:Generated_Source\PSoC5/UART_LOG.c **** 
1366:Generated_Source\PSoC5/UART_LOG.c ****         /* Protect variables that could change on interrupt. */
1367:Generated_Source\PSoC5/UART_LOG.c ****         UART_LOG_DisableTxInt();
1368:Generated_Source\PSoC5/UART_LOG.c **** 
1369:Generated_Source\PSoC5/UART_LOG.c ****         UART_LOG_txBufferRead = 0u;
1370:Generated_Source\PSoC5/UART_LOG.c ****         UART_LOG_txBufferWrite = 0u;
ARM GAS  C:\Users\Reza\AppData\Local\Temp\ccgubnqn.s 			page 41


1371:Generated_Source\PSoC5/UART_LOG.c **** 
1372:Generated_Source\PSoC5/UART_LOG.c ****         /* Enable Tx interrupt. */
1373:Generated_Source\PSoC5/UART_LOG.c ****         UART_LOG_EnableTxInt();
1374:Generated_Source\PSoC5/UART_LOG.c **** 
1375:Generated_Source\PSoC5/UART_LOG.c ****     #endif /* (UART_LOG_TX_INTERRUPT_ENABLED) */
1376:Generated_Source\PSoC5/UART_LOG.c ****     }
 887              		.loc 1 1376 0
 888 0018 BDE80840 		pop	{r3, lr}
 889              		.cfi_restore 14
 890              		.cfi_restore 3
 891              		.cfi_def_cfa_offset 0
1362:Generated_Source\PSoC5/UART_LOG.c ****         CyExitCriticalSection(enableInterrupts);
 892              		.loc 1 1362 0
 893 001c FFF7FEBF 		b	CyExitCriticalSection
 894              	.LVL49:
 895              	.L93:
 896              		.align	2
 897              	.L92:
 898 0020 96640040 		.word	1073767574
 899              		.cfi_endproc
 900              	.LFE24:
 901              		.size	UART_LOG_ClearTxBuffer, .-UART_LOG_ClearTxBuffer
 902              		.section	.text.UART_LOG_SendBreak,"ax",%progbits
 903              		.align	1
 904              		.global	UART_LOG_SendBreak
 905              		.thumb
 906              		.thumb_func
 907              		.type	UART_LOG_SendBreak, %function
 908              	UART_LOG_SendBreak:
 909              	.LFB25:
1377:Generated_Source\PSoC5/UART_LOG.c **** 
1378:Generated_Source\PSoC5/UART_LOG.c **** 
1379:Generated_Source\PSoC5/UART_LOG.c ****     /*******************************************************************************
1380:Generated_Source\PSoC5/UART_LOG.c ****     * Function Name: UART_LOG_SendBreak
1381:Generated_Source\PSoC5/UART_LOG.c ****     ********************************************************************************
1382:Generated_Source\PSoC5/UART_LOG.c ****     *
1383:Generated_Source\PSoC5/UART_LOG.c ****     * Summary:
1384:Generated_Source\PSoC5/UART_LOG.c ****     *  Transmits a break signal on the bus.
1385:Generated_Source\PSoC5/UART_LOG.c ****     *
1386:Generated_Source\PSoC5/UART_LOG.c ****     * Parameters:
1387:Generated_Source\PSoC5/UART_LOG.c ****     *  uint8 retMode:  Send Break return mode. See the following table for options.
1388:Generated_Source\PSoC5/UART_LOG.c ****     *   UART_LOG_SEND_BREAK - Initialize registers for break, send the Break
1389:Generated_Source\PSoC5/UART_LOG.c ****     *       signal and return immediately.
1390:Generated_Source\PSoC5/UART_LOG.c ****     *   UART_LOG_WAIT_FOR_COMPLETE_REINIT - Wait until break transmission is
1391:Generated_Source\PSoC5/UART_LOG.c ****     *       complete, reinitialize registers to normal transmission mode then return
1392:Generated_Source\PSoC5/UART_LOG.c ****     *   UART_LOG_REINIT - Reinitialize registers to normal transmission mode
1393:Generated_Source\PSoC5/UART_LOG.c ****     *       then return.
1394:Generated_Source\PSoC5/UART_LOG.c ****     *   UART_LOG_SEND_WAIT_REINIT - Performs both options: 
1395:Generated_Source\PSoC5/UART_LOG.c ****     *      UART_LOG_SEND_BREAK and UART_LOG_WAIT_FOR_COMPLETE_REINIT.
1396:Generated_Source\PSoC5/UART_LOG.c ****     *      This option is recommended for most cases.
1397:Generated_Source\PSoC5/UART_LOG.c ****     *
1398:Generated_Source\PSoC5/UART_LOG.c ****     * Return:
1399:Generated_Source\PSoC5/UART_LOG.c ****     *  None.
1400:Generated_Source\PSoC5/UART_LOG.c ****     *
1401:Generated_Source\PSoC5/UART_LOG.c ****     * Global Variables:
1402:Generated_Source\PSoC5/UART_LOG.c ****     *  UART_LOG_initVar - checked to identify that the component has been
1403:Generated_Source\PSoC5/UART_LOG.c ****     *     initialized.
ARM GAS  C:\Users\Reza\AppData\Local\Temp\ccgubnqn.s 			page 42


1404:Generated_Source\PSoC5/UART_LOG.c ****     *  txPeriod - static variable, used for keeping TX period configuration.
1405:Generated_Source\PSoC5/UART_LOG.c ****     *
1406:Generated_Source\PSoC5/UART_LOG.c ****     * Reentrant:
1407:Generated_Source\PSoC5/UART_LOG.c ****     *  No.
1408:Generated_Source\PSoC5/UART_LOG.c ****     *
1409:Generated_Source\PSoC5/UART_LOG.c ****     * Theory:
1410:Generated_Source\PSoC5/UART_LOG.c ****     *  SendBreak function initializes registers to send 13-bit break signal. It is
1411:Generated_Source\PSoC5/UART_LOG.c ****     *  important to return the registers configuration to normal for continue 8-bit
1412:Generated_Source\PSoC5/UART_LOG.c ****     *  operation.
1413:Generated_Source\PSoC5/UART_LOG.c ****     *  There are 3 variants for this API usage:
1414:Generated_Source\PSoC5/UART_LOG.c ****     *  1) SendBreak(3) - function will send the Break signal and take care on the
1415:Generated_Source\PSoC5/UART_LOG.c ****     *     configuration returning. Function will block CPU until transmission
1416:Generated_Source\PSoC5/UART_LOG.c ****     *     complete.
1417:Generated_Source\PSoC5/UART_LOG.c ****     *  2) User may want to use blocking time if UART configured to the low speed
1418:Generated_Source\PSoC5/UART_LOG.c ****     *     operation
1419:Generated_Source\PSoC5/UART_LOG.c ****     *     Example for this case:
1420:Generated_Source\PSoC5/UART_LOG.c ****     *     SendBreak(0);     - initialize Break signal transmission
1421:Generated_Source\PSoC5/UART_LOG.c ****     *         Add your code here to use CPU time
1422:Generated_Source\PSoC5/UART_LOG.c ****     *     SendBreak(1);     - complete Break operation
1423:Generated_Source\PSoC5/UART_LOG.c ****     *  3) Same to 2) but user may want to initialize and use the interrupt to
1424:Generated_Source\PSoC5/UART_LOG.c ****     *     complete break operation.
1425:Generated_Source\PSoC5/UART_LOG.c ****     *     Example for this case:
1426:Generated_Source\PSoC5/UART_LOG.c ****     *     Initialize TX interrupt with "TX - On TX Complete" parameter
1427:Generated_Source\PSoC5/UART_LOG.c ****     *     SendBreak(0);     - initialize Break signal transmission
1428:Generated_Source\PSoC5/UART_LOG.c ****     *         Add your code here to use CPU time
1429:Generated_Source\PSoC5/UART_LOG.c ****     *     When interrupt appear with UART_LOG_TX_STS_COMPLETE status:
1430:Generated_Source\PSoC5/UART_LOG.c ****     *     SendBreak(2);     - complete Break operation
1431:Generated_Source\PSoC5/UART_LOG.c ****     *
1432:Generated_Source\PSoC5/UART_LOG.c ****     * Side Effects:
1433:Generated_Source\PSoC5/UART_LOG.c ****     *  The UART_LOG_SendBreak() function initializes registers to send a
1434:Generated_Source\PSoC5/UART_LOG.c ****     *  break signal.
1435:Generated_Source\PSoC5/UART_LOG.c ****     *  Break signal length depends on the break signal bits configuration.
1436:Generated_Source\PSoC5/UART_LOG.c ****     *  The register configuration should be reinitialized before normal 8-bit
1437:Generated_Source\PSoC5/UART_LOG.c ****     *  communication can continue.
1438:Generated_Source\PSoC5/UART_LOG.c ****     *
1439:Generated_Source\PSoC5/UART_LOG.c ****     *******************************************************************************/
1440:Generated_Source\PSoC5/UART_LOG.c ****     void UART_LOG_SendBreak(uint8 retMode) 
1441:Generated_Source\PSoC5/UART_LOG.c ****     {
 910              		.loc 1 1441 0
 911              		.cfi_startproc
 912              		@ args = 0, pretend = 0, frame = 0
 913              		@ frame_needed = 0, uses_anonymous_args = 0
 914              		@ link register save eliminated.
 915              	.LVL50:
1442:Generated_Source\PSoC5/UART_LOG.c **** 
1443:Generated_Source\PSoC5/UART_LOG.c ****         /* If not Initialized then skip this function*/
1444:Generated_Source\PSoC5/UART_LOG.c ****         if(UART_LOG_initVar != 0u)
 916              		.loc 1 1444 0
 917 0000 124B     		ldr	r3, .L117
 918 0002 1A78     		ldrb	r2, [r3]	@ zero_extendqisi2
 919 0004 0AB3     		cbz	r2, .L94
 920              	.LBB14:
1445:Generated_Source\PSoC5/UART_LOG.c ****         {
1446:Generated_Source\PSoC5/UART_LOG.c ****             /* Set the Counter to 13-bits and transmit a 00 byte */
1447:Generated_Source\PSoC5/UART_LOG.c ****             /* When that is done then reset the counter value back */
1448:Generated_Source\PSoC5/UART_LOG.c ****             uint8 tmpStat;
1449:Generated_Source\PSoC5/UART_LOG.c **** 
ARM GAS  C:\Users\Reza\AppData\Local\Temp\ccgubnqn.s 			page 43


1450:Generated_Source\PSoC5/UART_LOG.c ****         #if(UART_LOG_HD_ENABLED) /* Half Duplex mode*/
1451:Generated_Source\PSoC5/UART_LOG.c **** 
1452:Generated_Source\PSoC5/UART_LOG.c ****             if( (retMode == UART_LOG_SEND_BREAK) ||
1453:Generated_Source\PSoC5/UART_LOG.c ****                 (retMode == UART_LOG_SEND_WAIT_REINIT ) )
1454:Generated_Source\PSoC5/UART_LOG.c ****             {
1455:Generated_Source\PSoC5/UART_LOG.c ****                 /* CTRL_HD_SEND_BREAK - sends break bits in HD mode */
1456:Generated_Source\PSoC5/UART_LOG.c ****                 UART_LOG_WriteControlRegister(UART_LOG_ReadControlRegister() |
1457:Generated_Source\PSoC5/UART_LOG.c ****                                                       UART_LOG_CTRL_HD_SEND_BREAK);
1458:Generated_Source\PSoC5/UART_LOG.c ****                 /* Send zeros */
1459:Generated_Source\PSoC5/UART_LOG.c ****                 UART_LOG_TXDATA_REG = 0u;
1460:Generated_Source\PSoC5/UART_LOG.c **** 
1461:Generated_Source\PSoC5/UART_LOG.c ****                 do /* Wait until transmit starts */
1462:Generated_Source\PSoC5/UART_LOG.c ****                 {
1463:Generated_Source\PSoC5/UART_LOG.c ****                     tmpStat = UART_LOG_TXSTATUS_REG;
1464:Generated_Source\PSoC5/UART_LOG.c ****                 }
1465:Generated_Source\PSoC5/UART_LOG.c ****                 while((tmpStat & UART_LOG_TX_STS_FIFO_EMPTY) != 0u);
1466:Generated_Source\PSoC5/UART_LOG.c ****             }
1467:Generated_Source\PSoC5/UART_LOG.c **** 
1468:Generated_Source\PSoC5/UART_LOG.c ****             if( (retMode == UART_LOG_WAIT_FOR_COMPLETE_REINIT) ||
1469:Generated_Source\PSoC5/UART_LOG.c ****                 (retMode == UART_LOG_SEND_WAIT_REINIT) )
1470:Generated_Source\PSoC5/UART_LOG.c ****             {
1471:Generated_Source\PSoC5/UART_LOG.c ****                 do /* Wait until transmit complete */
1472:Generated_Source\PSoC5/UART_LOG.c ****                 {
1473:Generated_Source\PSoC5/UART_LOG.c ****                     tmpStat = UART_LOG_TXSTATUS_REG;
1474:Generated_Source\PSoC5/UART_LOG.c ****                 }
1475:Generated_Source\PSoC5/UART_LOG.c ****                 while(((uint8)~tmpStat & UART_LOG_TX_STS_COMPLETE) != 0u);
1476:Generated_Source\PSoC5/UART_LOG.c ****             }
1477:Generated_Source\PSoC5/UART_LOG.c **** 
1478:Generated_Source\PSoC5/UART_LOG.c ****             if( (retMode == UART_LOG_WAIT_FOR_COMPLETE_REINIT) ||
1479:Generated_Source\PSoC5/UART_LOG.c ****                 (retMode == UART_LOG_REINIT) ||
1480:Generated_Source\PSoC5/UART_LOG.c ****                 (retMode == UART_LOG_SEND_WAIT_REINIT) )
1481:Generated_Source\PSoC5/UART_LOG.c ****             {
1482:Generated_Source\PSoC5/UART_LOG.c ****                 UART_LOG_WriteControlRegister(UART_LOG_ReadControlRegister() &
1483:Generated_Source\PSoC5/UART_LOG.c ****                                               (uint8)~UART_LOG_CTRL_HD_SEND_BREAK);
1484:Generated_Source\PSoC5/UART_LOG.c ****             }
1485:Generated_Source\PSoC5/UART_LOG.c **** 
1486:Generated_Source\PSoC5/UART_LOG.c ****         #else /* UART_LOG_HD_ENABLED Full Duplex mode */
1487:Generated_Source\PSoC5/UART_LOG.c **** 
1488:Generated_Source\PSoC5/UART_LOG.c ****             static uint8 txPeriod;
1489:Generated_Source\PSoC5/UART_LOG.c **** 
1490:Generated_Source\PSoC5/UART_LOG.c ****             if( (retMode == UART_LOG_SEND_BREAK) ||
 921              		.loc 1 1490 0
 922 0006 08B1     		cbz	r0, .L97
 923              		.loc 1 1490 0 is_stmt 0 discriminator 1
 924 0008 0328     		cmp	r0, #3
 925 000a 1CD1     		bne	.L98
 926              	.L97:
1491:Generated_Source\PSoC5/UART_LOG.c ****                 (retMode == UART_LOG_SEND_WAIT_REINIT) )
1492:Generated_Source\PSoC5/UART_LOG.c ****             {
1493:Generated_Source\PSoC5/UART_LOG.c ****                 /* CTRL_HD_SEND_BREAK - skip to send parity bit at Break signal in Full Duplex mode
1494:Generated_Source\PSoC5/UART_LOG.c ****                 #if( (UART_LOG_PARITY_TYPE != UART_LOG__B_UART__NONE_REVB) || \
1495:Generated_Source\PSoC5/UART_LOG.c ****                                     (UART_LOG_PARITY_TYPE_SW != 0u) )
1496:Generated_Source\PSoC5/UART_LOG.c ****                     UART_LOG_WriteControlRegister(UART_LOG_ReadControlRegister() |
1497:Generated_Source\PSoC5/UART_LOG.c ****                                                           UART_LOG_CTRL_HD_SEND_BREAK);
1498:Generated_Source\PSoC5/UART_LOG.c ****                 #endif /* End UART_LOG_PARITY_TYPE != UART_LOG__B_UART__NONE_REVB  */
1499:Generated_Source\PSoC5/UART_LOG.c **** 
1500:Generated_Source\PSoC5/UART_LOG.c ****                 #if(UART_LOG_TXCLKGEN_DP)
ARM GAS  C:\Users\Reza\AppData\Local\Temp\ccgubnqn.s 			page 44


1501:Generated_Source\PSoC5/UART_LOG.c ****                     txPeriod = UART_LOG_TXBITCLKTX_COMPLETE_REG;
 927              		.loc 1 1501 0 is_stmt 1
 928 000c 104A     		ldr	r2, .L117+4
 929 000e 1178     		ldrb	r1, [r2]	@ zero_extendqisi2
 930 0010 5970     		strb	r1, [r3, #1]
1502:Generated_Source\PSoC5/UART_LOG.c ****                     UART_LOG_TXBITCLKTX_COMPLETE_REG = UART_LOG_TXBITCTR_BREAKBITS;
 931              		.loc 1 1502 0
 932 0012 6721     		movs	r1, #103
 933 0014 1170     		strb	r1, [r2]
1503:Generated_Source\PSoC5/UART_LOG.c ****                 #else
1504:Generated_Source\PSoC5/UART_LOG.c ****                     txPeriod = UART_LOG_TXBITCTR_PERIOD_REG;
1505:Generated_Source\PSoC5/UART_LOG.c ****                     UART_LOG_TXBITCTR_PERIOD_REG = UART_LOG_TXBITCTR_BREAKBITS8X;
1506:Generated_Source\PSoC5/UART_LOG.c ****                 #endif /* End UART_LOG_TXCLKGEN_DP */
1507:Generated_Source\PSoC5/UART_LOG.c **** 
1508:Generated_Source\PSoC5/UART_LOG.c ****                 /* Send zeros */
1509:Generated_Source\PSoC5/UART_LOG.c ****                 UART_LOG_TXDATA_REG = 0u;
 934              		.loc 1 1509 0
 935 0016 0021     		movs	r1, #0
 936 0018 02F8F01C 		strb	r1, [r2, #-240]
1510:Generated_Source\PSoC5/UART_LOG.c **** 
1511:Generated_Source\PSoC5/UART_LOG.c ****                 do /* Wait until transmit starts */
1512:Generated_Source\PSoC5/UART_LOG.c ****                 {
1513:Generated_Source\PSoC5/UART_LOG.c ****                     tmpStat = UART_LOG_TXSTATUS_REG;
 937              		.loc 1 1513 0
 938 001c 0D49     		ldr	r1, .L117+8
 939              	.L99:
 940              		.loc 1 1513 0 is_stmt 0 discriminator 1
 941 001e 0A78     		ldrb	r2, [r1]	@ zero_extendqisi2
 942              	.LVL51:
1514:Generated_Source\PSoC5/UART_LOG.c ****                 }
1515:Generated_Source\PSoC5/UART_LOG.c ****                 while((tmpStat & UART_LOG_TX_STS_FIFO_EMPTY) != 0u);
 943              		.loc 1 1515 0 is_stmt 1 discriminator 1
 944 0020 9207     		lsls	r2, r2, #30
 945              	.LVL52:
 946 0022 FCD4     		bmi	.L99
1516:Generated_Source\PSoC5/UART_LOG.c ****             }
1517:Generated_Source\PSoC5/UART_LOG.c **** 
1518:Generated_Source\PSoC5/UART_LOG.c ****             if( (retMode == UART_LOG_WAIT_FOR_COMPLETE_REINIT) ||
 947              		.loc 1 1518 0
 948 0024 00F0FD02 		and	r2, r0, #253
 949 0028 012A     		cmp	r2, #1
 950              	.L116:
 951 002a 03D0     		beq	.L100
 952              	.L104:
1519:Generated_Source\PSoC5/UART_LOG.c ****                 (retMode == UART_LOG_SEND_WAIT_REINIT) )
1520:Generated_Source\PSoC5/UART_LOG.c ****             {
1521:Generated_Source\PSoC5/UART_LOG.c ****                 do /* Wait until transmit complete */
1522:Generated_Source\PSoC5/UART_LOG.c ****                 {
1523:Generated_Source\PSoC5/UART_LOG.c ****                     tmpStat = UART_LOG_TXSTATUS_REG;
1524:Generated_Source\PSoC5/UART_LOG.c ****                 }
1525:Generated_Source\PSoC5/UART_LOG.c ****                 while(((uint8)~tmpStat & UART_LOG_TX_STS_COMPLETE) != 0u);
1526:Generated_Source\PSoC5/UART_LOG.c ****             }
1527:Generated_Source\PSoC5/UART_LOG.c **** 
1528:Generated_Source\PSoC5/UART_LOG.c ****             if( (retMode == UART_LOG_WAIT_FOR_COMPLETE_REINIT) ||
 953              		.loc 1 1528 0
 954 002c 0138     		subs	r0, r0, #1
 955              	.LVL53:
ARM GAS  C:\Users\Reza\AppData\Local\Temp\ccgubnqn.s 			page 45


 956 002e 0228     		cmp	r0, #2
 957 0030 05D9     		bls	.L101
 958 0032 7047     		bx	lr
 959              	.LVL54:
 960              	.L100:
1523:Generated_Source\PSoC5/UART_LOG.c ****                 }
 961              		.loc 1 1523 0
 962 0034 0749     		ldr	r1, .L117+8
 963              	.L103:
1523:Generated_Source\PSoC5/UART_LOG.c ****                 }
 964              		.loc 1 1523 0 is_stmt 0 discriminator 1
 965 0036 0A78     		ldrb	r2, [r1]	@ zero_extendqisi2
 966              	.LVL55:
1525:Generated_Source\PSoC5/UART_LOG.c ****             }
 967              		.loc 1 1525 0 is_stmt 1 discriminator 1
 968 0038 D207     		lsls	r2, r2, #31
 969              	.LVL56:
 970 003a FCD5     		bpl	.L103
 971 003c F6E7     		b	.L104
 972              	.LVL57:
 973              	.L101:
1529:Generated_Source\PSoC5/UART_LOG.c ****                 (retMode == UART_LOG_REINIT) ||
1530:Generated_Source\PSoC5/UART_LOG.c ****                 (retMode == UART_LOG_SEND_WAIT_REINIT) )
1531:Generated_Source\PSoC5/UART_LOG.c ****             {
1532:Generated_Source\PSoC5/UART_LOG.c **** 
1533:Generated_Source\PSoC5/UART_LOG.c ****             #if(UART_LOG_TXCLKGEN_DP)
1534:Generated_Source\PSoC5/UART_LOG.c ****                 UART_LOG_TXBITCLKTX_COMPLETE_REG = txPeriod;
 974              		.loc 1 1534 0
 975 003e 5A78     		ldrb	r2, [r3, #1]	@ zero_extendqisi2
 976 0040 034B     		ldr	r3, .L117+4
 977 0042 1A70     		strb	r2, [r3]
 978              	.LBE14:
1535:Generated_Source\PSoC5/UART_LOG.c ****             #else
1536:Generated_Source\PSoC5/UART_LOG.c ****                 UART_LOG_TXBITCTR_PERIOD_REG = txPeriod;
1537:Generated_Source\PSoC5/UART_LOG.c ****             #endif /* End UART_LOG_TXCLKGEN_DP */
1538:Generated_Source\PSoC5/UART_LOG.c **** 
1539:Generated_Source\PSoC5/UART_LOG.c ****             #if( (UART_LOG_PARITY_TYPE != UART_LOG__B_UART__NONE_REVB) || \
1540:Generated_Source\PSoC5/UART_LOG.c ****                  (UART_LOG_PARITY_TYPE_SW != 0u) )
1541:Generated_Source\PSoC5/UART_LOG.c ****                 UART_LOG_WriteControlRegister(UART_LOG_ReadControlRegister() &
1542:Generated_Source\PSoC5/UART_LOG.c ****                                                       (uint8) ~UART_LOG_CTRL_HD_SEND_BREAK);
1543:Generated_Source\PSoC5/UART_LOG.c ****             #endif /* End UART_LOG_PARITY_TYPE != NONE */
1544:Generated_Source\PSoC5/UART_LOG.c ****             }
1545:Generated_Source\PSoC5/UART_LOG.c ****         #endif    /* End UART_LOG_HD_ENABLED */
1546:Generated_Source\PSoC5/UART_LOG.c ****         }
1547:Generated_Source\PSoC5/UART_LOG.c ****     }
 979              		.loc 1 1547 0
 980 0044 7047     		bx	lr
 981              	.LVL58:
 982              	.L98:
 983              	.LBB15:
1518:Generated_Source\PSoC5/UART_LOG.c ****                 (retMode == UART_LOG_SEND_WAIT_REINIT) )
 984              		.loc 1 1518 0
 985 0046 0128     		cmp	r0, #1
 986 0048 EFE7     		b	.L116
 987              	.L94:
 988 004a 7047     		bx	lr
 989              	.L118:
ARM GAS  C:\Users\Reza\AppData\Local\Temp\ccgubnqn.s 			page 46


 990              		.align	2
 991              	.L117:
 992 004c 00000000 		.word	.LANCHOR0
 993 0050 36650040 		.word	1073767734
 994 0054 66640040 		.word	1073767526
 995              	.LBE15:
 996              		.cfi_endproc
 997              	.LFE25:
 998              		.size	UART_LOG_SendBreak, .-UART_LOG_SendBreak
 999              		.section	.text.UART_LOG_SetTxAddressMode,"ax",%progbits
 1000              		.align	1
 1001              		.global	UART_LOG_SetTxAddressMode
 1002              		.thumb
 1003              		.thumb_func
 1004              		.type	UART_LOG_SetTxAddressMode, %function
 1005              	UART_LOG_SetTxAddressMode:
 1006              	.LFB26:
1548:Generated_Source\PSoC5/UART_LOG.c **** 
1549:Generated_Source\PSoC5/UART_LOG.c **** 
1550:Generated_Source\PSoC5/UART_LOG.c ****     /*******************************************************************************
1551:Generated_Source\PSoC5/UART_LOG.c ****     * Function Name: UART_LOG_SetTxAddressMode
1552:Generated_Source\PSoC5/UART_LOG.c ****     ********************************************************************************
1553:Generated_Source\PSoC5/UART_LOG.c ****     *
1554:Generated_Source\PSoC5/UART_LOG.c ****     * Summary:
1555:Generated_Source\PSoC5/UART_LOG.c ****     *  Configures the transmitter to signal the next bytes is address or data.
1556:Generated_Source\PSoC5/UART_LOG.c ****     *
1557:Generated_Source\PSoC5/UART_LOG.c ****     * Parameters:
1558:Generated_Source\PSoC5/UART_LOG.c ****     *  addressMode: 
1559:Generated_Source\PSoC5/UART_LOG.c ****     *       UART_LOG_SET_SPACE - Configure the transmitter to send the next
1560:Generated_Source\PSoC5/UART_LOG.c ****     *                                    byte as a data.
1561:Generated_Source\PSoC5/UART_LOG.c ****     *       UART_LOG_SET_MARK  - Configure the transmitter to send the next
1562:Generated_Source\PSoC5/UART_LOG.c ****     *                                    byte as an address.
1563:Generated_Source\PSoC5/UART_LOG.c ****     *
1564:Generated_Source\PSoC5/UART_LOG.c ****     * Return:
1565:Generated_Source\PSoC5/UART_LOG.c ****     *  None.
1566:Generated_Source\PSoC5/UART_LOG.c ****     *
1567:Generated_Source\PSoC5/UART_LOG.c ****     * Side Effects:
1568:Generated_Source\PSoC5/UART_LOG.c ****     *  This function sets and clears UART_LOG_CTRL_MARK bit in the Control
1569:Generated_Source\PSoC5/UART_LOG.c ****     *  register.
1570:Generated_Source\PSoC5/UART_LOG.c ****     *
1571:Generated_Source\PSoC5/UART_LOG.c ****     *******************************************************************************/
1572:Generated_Source\PSoC5/UART_LOG.c ****     void UART_LOG_SetTxAddressMode(uint8 addressMode) 
1573:Generated_Source\PSoC5/UART_LOG.c ****     {
 1007              		.loc 1 1573 0
 1008              		.cfi_startproc
 1009              		@ args = 0, pretend = 0, frame = 0
 1010              		@ frame_needed = 0, uses_anonymous_args = 0
 1011              		@ link register save eliminated.
 1012              	.LVL59:
 1013 0000 7047     		bx	lr
 1014              		.cfi_endproc
 1015              	.LFE26:
 1016              		.size	UART_LOG_SetTxAddressMode, .-UART_LOG_SetTxAddressMode
 1017              		.global	UART_LOG_initVar
 1018              		.bss
 1019              		.set	.LANCHOR0,. + 0
 1020              		.type	UART_LOG_initVar, %object
ARM GAS  C:\Users\Reza\AppData\Local\Temp\ccgubnqn.s 			page 47


 1021              		.size	UART_LOG_initVar, 1
 1022              	UART_LOG_initVar:
 1023 0000 00       		.space	1
 1024              		.type	txPeriod.5122, %object
 1025              		.size	txPeriod.5122, 1
 1026              	txPeriod.5122:
 1027 0001 00       		.space	1
 1028              		.text
 1029              	.Letext0:
 1030              		.file 2 "Generated_Source\\PSoC5\\cytypes.h"
 1031              		.file 3 "Generated_Source\\PSoC5\\CyLib.h"
 1032              		.file 4 "Generated_Source\\PSoC5\\UART_LOG_IntClock.h"